ARM GAS  C:\Users\Marcelo\AppData\Local\Temp\ccKEfGLG.s 			page 1


   1              		.cpu cortex-m0
   2              		.fpu softvfp
   3              		.eabi_attribute 20, 1
   4              		.eabi_attribute 21, 1
   5              		.eabi_attribute 23, 3
   6              		.eabi_attribute 24, 1
   7              		.eabi_attribute 25, 1
   8              		.eabi_attribute 26, 1
   9              		.eabi_attribute 30, 1
  10              		.eabi_attribute 34, 0
  11              		.eabi_attribute 18, 4
  12              		.code	16
  13              		.file	"UART_1.c"
  14              		.text
  15              	.Ltext0:
  16              		.cfi_sections	.debug_frame
  17              		.section	.text.UART_1_ScbEnableIntr,"ax",%progbits
  18              		.align	2
  19              		.code	16
  20              		.thumb_func
  21              		.type	UART_1_ScbEnableIntr, %function
  22              	UART_1_ScbEnableIntr:
  23              	.LFB7:
  24              		.file 1 ".\\Generated_Source\\PSoC4\\UART_1.c"
   1:.\Generated_Source\PSoC4/UART_1.c **** /*******************************************************************************
   2:.\Generated_Source\PSoC4/UART_1.c **** * File Name: UART_1.c
   3:.\Generated_Source\PSoC4/UART_1.c **** * Version 3.0
   4:.\Generated_Source\PSoC4/UART_1.c **** *
   5:.\Generated_Source\PSoC4/UART_1.c **** * Description:
   6:.\Generated_Source\PSoC4/UART_1.c **** *  This file provides the source code to the API for the SCB Component.
   7:.\Generated_Source\PSoC4/UART_1.c **** *
   8:.\Generated_Source\PSoC4/UART_1.c **** * Note:
   9:.\Generated_Source\PSoC4/UART_1.c **** *
  10:.\Generated_Source\PSoC4/UART_1.c **** *******************************************************************************
  11:.\Generated_Source\PSoC4/UART_1.c **** * Copyright 2013-2015, Cypress Semiconductor Corporation.  All rights reserved.
  12:.\Generated_Source\PSoC4/UART_1.c **** * You may use this file only in accordance with the license, terms, conditions,
  13:.\Generated_Source\PSoC4/UART_1.c **** * disclaimers, and limitations in the end user license agreement accompanying
  14:.\Generated_Source\PSoC4/UART_1.c **** * the software package with which this file was provided.
  15:.\Generated_Source\PSoC4/UART_1.c **** *******************************************************************************/
  16:.\Generated_Source\PSoC4/UART_1.c **** 
  17:.\Generated_Source\PSoC4/UART_1.c **** #include "UART_1_PVT.h"
  18:.\Generated_Source\PSoC4/UART_1.c **** 
  19:.\Generated_Source\PSoC4/UART_1.c **** #if (UART_1_SCB_MODE_I2C_INC)
  20:.\Generated_Source\PSoC4/UART_1.c ****     #include "UART_1_I2C_PVT.h"
  21:.\Generated_Source\PSoC4/UART_1.c **** #endif /* (UART_1_SCB_MODE_I2C_INC) */
  22:.\Generated_Source\PSoC4/UART_1.c **** 
  23:.\Generated_Source\PSoC4/UART_1.c **** #if (UART_1_SCB_MODE_EZI2C_INC)
  24:.\Generated_Source\PSoC4/UART_1.c ****     #include "UART_1_EZI2C_PVT.h"
  25:.\Generated_Source\PSoC4/UART_1.c **** #endif /* (UART_1_SCB_MODE_EZI2C_INC) */
  26:.\Generated_Source\PSoC4/UART_1.c **** 
  27:.\Generated_Source\PSoC4/UART_1.c **** #if (UART_1_SCB_MODE_SPI_INC || UART_1_SCB_MODE_UART_INC)
  28:.\Generated_Source\PSoC4/UART_1.c ****     #include "UART_1_SPI_UART_PVT.h"
  29:.\Generated_Source\PSoC4/UART_1.c **** #endif /* (UART_1_SCB_MODE_SPI_INC || UART_1_SCB_MODE_UART_INC) */
  30:.\Generated_Source\PSoC4/UART_1.c **** 
  31:.\Generated_Source\PSoC4/UART_1.c **** 
  32:.\Generated_Source\PSoC4/UART_1.c **** /***************************************
  33:.\Generated_Source\PSoC4/UART_1.c **** *    Run Time Configuration Vars
ARM GAS  C:\Users\Marcelo\AppData\Local\Temp\ccKEfGLG.s 			page 2


  34:.\Generated_Source\PSoC4/UART_1.c **** ***************************************/
  35:.\Generated_Source\PSoC4/UART_1.c **** 
  36:.\Generated_Source\PSoC4/UART_1.c **** /* Stores internal component configuration for Unconfigured mode */
  37:.\Generated_Source\PSoC4/UART_1.c **** #if (UART_1_SCB_MODE_UNCONFIG_CONST_CFG)
  38:.\Generated_Source\PSoC4/UART_1.c ****     /* Common configuration variables */
  39:.\Generated_Source\PSoC4/UART_1.c ****     uint8 UART_1_scbMode = UART_1_SCB_MODE_UNCONFIG;
  40:.\Generated_Source\PSoC4/UART_1.c ****     uint8 UART_1_scbEnableWake;
  41:.\Generated_Source\PSoC4/UART_1.c ****     uint8 UART_1_scbEnableIntr;
  42:.\Generated_Source\PSoC4/UART_1.c **** 
  43:.\Generated_Source\PSoC4/UART_1.c ****     /* I2C configuration variables */
  44:.\Generated_Source\PSoC4/UART_1.c ****     uint8 UART_1_mode;
  45:.\Generated_Source\PSoC4/UART_1.c ****     uint8 UART_1_acceptAddr;
  46:.\Generated_Source\PSoC4/UART_1.c **** 
  47:.\Generated_Source\PSoC4/UART_1.c ****     /* SPI/UART configuration variables */
  48:.\Generated_Source\PSoC4/UART_1.c ****     volatile uint8 * UART_1_rxBuffer;
  49:.\Generated_Source\PSoC4/UART_1.c ****     uint8  UART_1_rxDataBits;
  50:.\Generated_Source\PSoC4/UART_1.c ****     uint32 UART_1_rxBufferSize;
  51:.\Generated_Source\PSoC4/UART_1.c **** 
  52:.\Generated_Source\PSoC4/UART_1.c ****     volatile uint8 * UART_1_txBuffer;
  53:.\Generated_Source\PSoC4/UART_1.c ****     uint8  UART_1_txDataBits;
  54:.\Generated_Source\PSoC4/UART_1.c ****     uint32 UART_1_txBufferSize;
  55:.\Generated_Source\PSoC4/UART_1.c **** 
  56:.\Generated_Source\PSoC4/UART_1.c ****     /* EZI2C configuration variables */
  57:.\Generated_Source\PSoC4/UART_1.c ****     uint8 UART_1_numberOfAddr;
  58:.\Generated_Source\PSoC4/UART_1.c ****     uint8 UART_1_subAddrSize;
  59:.\Generated_Source\PSoC4/UART_1.c **** #endif /* (UART_1_SCB_MODE_UNCONFIG_CONST_CFG) */
  60:.\Generated_Source\PSoC4/UART_1.c **** 
  61:.\Generated_Source\PSoC4/UART_1.c **** 
  62:.\Generated_Source\PSoC4/UART_1.c **** /***************************************
  63:.\Generated_Source\PSoC4/UART_1.c **** *     Common SCB Vars
  64:.\Generated_Source\PSoC4/UART_1.c **** ***************************************/
  65:.\Generated_Source\PSoC4/UART_1.c **** 
  66:.\Generated_Source\PSoC4/UART_1.c **** uint8 UART_1_initVar = 0u;
  67:.\Generated_Source\PSoC4/UART_1.c **** 
  68:.\Generated_Source\PSoC4/UART_1.c **** #if (UART_1_SCB_IRQ_INTERNAL)
  69:.\Generated_Source\PSoC4/UART_1.c **** #if !defined (CY_REMOVE_UART_1_CUSTOM_INTR_HANDLER)
  70:.\Generated_Source\PSoC4/UART_1.c ****     void (*UART_1_customIntrHandler)(void) = NULL;
  71:.\Generated_Source\PSoC4/UART_1.c **** #endif /* !defined (CY_REMOVE_UART_1_CUSTOM_INTR_HANDLER) */
  72:.\Generated_Source\PSoC4/UART_1.c **** #endif /* (UART_1_SCB_IRQ_INTERNAL) */
  73:.\Generated_Source\PSoC4/UART_1.c **** 
  74:.\Generated_Source\PSoC4/UART_1.c **** 
  75:.\Generated_Source\PSoC4/UART_1.c **** /***************************************
  76:.\Generated_Source\PSoC4/UART_1.c **** *    Private Function Prototypes
  77:.\Generated_Source\PSoC4/UART_1.c **** ***************************************/
  78:.\Generated_Source\PSoC4/UART_1.c **** 
  79:.\Generated_Source\PSoC4/UART_1.c **** static void UART_1_ScbEnableIntr(void);
  80:.\Generated_Source\PSoC4/UART_1.c **** static void UART_1_ScbModeStop(void);
  81:.\Generated_Source\PSoC4/UART_1.c **** static void UART_1_ScbModePostEnable(void);
  82:.\Generated_Source\PSoC4/UART_1.c **** 
  83:.\Generated_Source\PSoC4/UART_1.c **** 
  84:.\Generated_Source\PSoC4/UART_1.c **** /*******************************************************************************
  85:.\Generated_Source\PSoC4/UART_1.c **** * Function Name: UART_1_Init
  86:.\Generated_Source\PSoC4/UART_1.c **** ********************************************************************************
  87:.\Generated_Source\PSoC4/UART_1.c **** *
  88:.\Generated_Source\PSoC4/UART_1.c **** * Summary:
  89:.\Generated_Source\PSoC4/UART_1.c **** *  Initializes the SCB component to operate in one of the selected
  90:.\Generated_Source\PSoC4/UART_1.c **** *  configurations: I2C, SPI, UART or EZI2C.
ARM GAS  C:\Users\Marcelo\AppData\Local\Temp\ccKEfGLG.s 			page 3


  91:.\Generated_Source\PSoC4/UART_1.c **** *  When the configuration is set to "Unconfigured SCB", this function does
  92:.\Generated_Source\PSoC4/UART_1.c **** *  not do any initialization. Use mode-specific initialization APIs instead:
  93:.\Generated_Source\PSoC4/UART_1.c **** *  SCB_I2CInit, SCB_SpiInit, SCB_UartInit or SCB_EzI2CInit.
  94:.\Generated_Source\PSoC4/UART_1.c **** *
  95:.\Generated_Source\PSoC4/UART_1.c **** * Parameters:
  96:.\Generated_Source\PSoC4/UART_1.c **** *  None
  97:.\Generated_Source\PSoC4/UART_1.c **** *
  98:.\Generated_Source\PSoC4/UART_1.c **** * Return:
  99:.\Generated_Source\PSoC4/UART_1.c **** *  None
 100:.\Generated_Source\PSoC4/UART_1.c **** *
 101:.\Generated_Source\PSoC4/UART_1.c **** *******************************************************************************/
 102:.\Generated_Source\PSoC4/UART_1.c **** void UART_1_Init(void)
 103:.\Generated_Source\PSoC4/UART_1.c **** {
 104:.\Generated_Source\PSoC4/UART_1.c **** #if (UART_1_SCB_MODE_UNCONFIG_CONST_CFG)
 105:.\Generated_Source\PSoC4/UART_1.c ****     if (UART_1_SCB_MODE_UNCONFIG_RUNTM_CFG)
 106:.\Generated_Source\PSoC4/UART_1.c ****     {
 107:.\Generated_Source\PSoC4/UART_1.c ****         UART_1_initVar = 0u;
 108:.\Generated_Source\PSoC4/UART_1.c ****     }
 109:.\Generated_Source\PSoC4/UART_1.c ****     else
 110:.\Generated_Source\PSoC4/UART_1.c ****     {
 111:.\Generated_Source\PSoC4/UART_1.c ****         /* Initialization was done before this function call */
 112:.\Generated_Source\PSoC4/UART_1.c ****     }
 113:.\Generated_Source\PSoC4/UART_1.c **** 
 114:.\Generated_Source\PSoC4/UART_1.c **** #elif (UART_1_SCB_MODE_I2C_CONST_CFG)
 115:.\Generated_Source\PSoC4/UART_1.c ****     UART_1_I2CInit();
 116:.\Generated_Source\PSoC4/UART_1.c **** 
 117:.\Generated_Source\PSoC4/UART_1.c **** #elif (UART_1_SCB_MODE_SPI_CONST_CFG)
 118:.\Generated_Source\PSoC4/UART_1.c ****     UART_1_SpiInit();
 119:.\Generated_Source\PSoC4/UART_1.c **** 
 120:.\Generated_Source\PSoC4/UART_1.c **** #elif (UART_1_SCB_MODE_UART_CONST_CFG)
 121:.\Generated_Source\PSoC4/UART_1.c ****     UART_1_UartInit();
 122:.\Generated_Source\PSoC4/UART_1.c **** 
 123:.\Generated_Source\PSoC4/UART_1.c **** #elif (UART_1_SCB_MODE_EZI2C_CONST_CFG)
 124:.\Generated_Source\PSoC4/UART_1.c ****     UART_1_EzI2CInit();
 125:.\Generated_Source\PSoC4/UART_1.c **** 
 126:.\Generated_Source\PSoC4/UART_1.c **** #endif /* (UART_1_SCB_MODE_UNCONFIG_CONST_CFG) */
 127:.\Generated_Source\PSoC4/UART_1.c **** }
 128:.\Generated_Source\PSoC4/UART_1.c **** 
 129:.\Generated_Source\PSoC4/UART_1.c **** 
 130:.\Generated_Source\PSoC4/UART_1.c **** /*******************************************************************************
 131:.\Generated_Source\PSoC4/UART_1.c **** * Function Name: UART_1_Enable
 132:.\Generated_Source\PSoC4/UART_1.c **** ********************************************************************************
 133:.\Generated_Source\PSoC4/UART_1.c **** *
 134:.\Generated_Source\PSoC4/UART_1.c **** * Summary:
 135:.\Generated_Source\PSoC4/UART_1.c **** *  Enables the SCB component operation.
 136:.\Generated_Source\PSoC4/UART_1.c **** *  The SCB configuration should be not changed when the component is enabled.
 137:.\Generated_Source\PSoC4/UART_1.c **** *  Any configuration changes should be made after disabling the component.
 138:.\Generated_Source\PSoC4/UART_1.c **** *
 139:.\Generated_Source\PSoC4/UART_1.c **** * Parameters:
 140:.\Generated_Source\PSoC4/UART_1.c **** *  None
 141:.\Generated_Source\PSoC4/UART_1.c **** *
 142:.\Generated_Source\PSoC4/UART_1.c **** * Return:
 143:.\Generated_Source\PSoC4/UART_1.c **** *  None
 144:.\Generated_Source\PSoC4/UART_1.c **** *
 145:.\Generated_Source\PSoC4/UART_1.c **** *******************************************************************************/
 146:.\Generated_Source\PSoC4/UART_1.c **** void UART_1_Enable(void)
 147:.\Generated_Source\PSoC4/UART_1.c **** {
ARM GAS  C:\Users\Marcelo\AppData\Local\Temp\ccKEfGLG.s 			page 4


 148:.\Generated_Source\PSoC4/UART_1.c **** #if (UART_1_SCB_MODE_UNCONFIG_CONST_CFG)
 149:.\Generated_Source\PSoC4/UART_1.c ****     /* Enable SCB block, only if it is already configured */
 150:.\Generated_Source\PSoC4/UART_1.c ****     if (!UART_1_SCB_MODE_UNCONFIG_RUNTM_CFG)
 151:.\Generated_Source\PSoC4/UART_1.c ****     {
 152:.\Generated_Source\PSoC4/UART_1.c ****         UART_1_CTRL_REG |= UART_1_CTRL_ENABLED;
 153:.\Generated_Source\PSoC4/UART_1.c **** 
 154:.\Generated_Source\PSoC4/UART_1.c ****         UART_1_ScbEnableIntr();
 155:.\Generated_Source\PSoC4/UART_1.c **** 
 156:.\Generated_Source\PSoC4/UART_1.c ****         /* Call PostEnable function specific to current operation mode */
 157:.\Generated_Source\PSoC4/UART_1.c ****         UART_1_ScbModePostEnable();
 158:.\Generated_Source\PSoC4/UART_1.c ****     }
 159:.\Generated_Source\PSoC4/UART_1.c **** #else
 160:.\Generated_Source\PSoC4/UART_1.c ****     UART_1_CTRL_REG |= UART_1_CTRL_ENABLED;
 161:.\Generated_Source\PSoC4/UART_1.c **** 
 162:.\Generated_Source\PSoC4/UART_1.c ****     UART_1_ScbEnableIntr();
 163:.\Generated_Source\PSoC4/UART_1.c **** 
 164:.\Generated_Source\PSoC4/UART_1.c ****     /* Call PostEnable function specific to current operation mode */
 165:.\Generated_Source\PSoC4/UART_1.c ****     UART_1_ScbModePostEnable();
 166:.\Generated_Source\PSoC4/UART_1.c **** #endif /* (UART_1_SCB_MODE_UNCONFIG_CONST_CFG) */
 167:.\Generated_Source\PSoC4/UART_1.c **** }
 168:.\Generated_Source\PSoC4/UART_1.c **** 
 169:.\Generated_Source\PSoC4/UART_1.c **** 
 170:.\Generated_Source\PSoC4/UART_1.c **** /*******************************************************************************
 171:.\Generated_Source\PSoC4/UART_1.c **** * Function Name: UART_1_Start
 172:.\Generated_Source\PSoC4/UART_1.c **** ********************************************************************************
 173:.\Generated_Source\PSoC4/UART_1.c **** *
 174:.\Generated_Source\PSoC4/UART_1.c **** * Summary:
 175:.\Generated_Source\PSoC4/UART_1.c **** *  Invokes SCB_Init() and SCB_Enable().
 176:.\Generated_Source\PSoC4/UART_1.c **** *  After this function call, the component is enabled and ready for operation.
 177:.\Generated_Source\PSoC4/UART_1.c **** *  When configuration is set to "Unconfigured SCB", the component must first be
 178:.\Generated_Source\PSoC4/UART_1.c **** *  initialized to operate in one of the following configurations: I2C, SPI, UART
 179:.\Generated_Source\PSoC4/UART_1.c **** *  or EZ I2C. Otherwise this function does not enable the component.
 180:.\Generated_Source\PSoC4/UART_1.c **** *
 181:.\Generated_Source\PSoC4/UART_1.c **** * Parameters:
 182:.\Generated_Source\PSoC4/UART_1.c **** *  None
 183:.\Generated_Source\PSoC4/UART_1.c **** *
 184:.\Generated_Source\PSoC4/UART_1.c **** * Return:
 185:.\Generated_Source\PSoC4/UART_1.c **** *  None
 186:.\Generated_Source\PSoC4/UART_1.c **** *
 187:.\Generated_Source\PSoC4/UART_1.c **** * Global variables:
 188:.\Generated_Source\PSoC4/UART_1.c **** *  UART_1_initVar - used to check initial configuration, modified
 189:.\Generated_Source\PSoC4/UART_1.c **** *  on first function call.
 190:.\Generated_Source\PSoC4/UART_1.c **** *
 191:.\Generated_Source\PSoC4/UART_1.c **** *******************************************************************************/
 192:.\Generated_Source\PSoC4/UART_1.c **** void UART_1_Start(void)
 193:.\Generated_Source\PSoC4/UART_1.c **** {
 194:.\Generated_Source\PSoC4/UART_1.c ****     if (0u == UART_1_initVar)
 195:.\Generated_Source\PSoC4/UART_1.c ****     {
 196:.\Generated_Source\PSoC4/UART_1.c ****         UART_1_Init();
 197:.\Generated_Source\PSoC4/UART_1.c ****         UART_1_initVar = 1u; /* Component was initialized */
 198:.\Generated_Source\PSoC4/UART_1.c ****     }
 199:.\Generated_Source\PSoC4/UART_1.c **** 
 200:.\Generated_Source\PSoC4/UART_1.c ****     UART_1_Enable();
 201:.\Generated_Source\PSoC4/UART_1.c **** }
 202:.\Generated_Source\PSoC4/UART_1.c **** 
 203:.\Generated_Source\PSoC4/UART_1.c **** 
 204:.\Generated_Source\PSoC4/UART_1.c **** /*******************************************************************************
ARM GAS  C:\Users\Marcelo\AppData\Local\Temp\ccKEfGLG.s 			page 5


 205:.\Generated_Source\PSoC4/UART_1.c **** * Function Name: UART_1_Stop
 206:.\Generated_Source\PSoC4/UART_1.c **** ********************************************************************************
 207:.\Generated_Source\PSoC4/UART_1.c **** *
 208:.\Generated_Source\PSoC4/UART_1.c **** * Summary:
 209:.\Generated_Source\PSoC4/UART_1.c **** *  Disables the SCB component and its interrupt.
 210:.\Generated_Source\PSoC4/UART_1.c **** *  It also disables all TX interrupt sources so as not to cause an unexpected
 211:.\Generated_Source\PSoC4/UART_1.c **** *  interrupt trigger because after the component is enabled, the TX FIFO 
 212:.\Generated_Source\PSoC4/UART_1.c **** *  is empty.
 213:.\Generated_Source\PSoC4/UART_1.c **** *
 214:.\Generated_Source\PSoC4/UART_1.c **** * Parameters:
 215:.\Generated_Source\PSoC4/UART_1.c **** *  None
 216:.\Generated_Source\PSoC4/UART_1.c **** *
 217:.\Generated_Source\PSoC4/UART_1.c **** * Return:
 218:.\Generated_Source\PSoC4/UART_1.c **** *  None
 219:.\Generated_Source\PSoC4/UART_1.c **** * 
 220:.\Generated_Source\PSoC4/UART_1.c **** *******************************************************************************/
 221:.\Generated_Source\PSoC4/UART_1.c **** void UART_1_Stop(void)
 222:.\Generated_Source\PSoC4/UART_1.c **** {
 223:.\Generated_Source\PSoC4/UART_1.c **** #if (UART_1_SCB_IRQ_INTERNAL)
 224:.\Generated_Source\PSoC4/UART_1.c ****     UART_1_DisableInt();
 225:.\Generated_Source\PSoC4/UART_1.c **** #endif /* (UART_1_SCB_IRQ_INTERNAL) */
 226:.\Generated_Source\PSoC4/UART_1.c **** 
 227:.\Generated_Source\PSoC4/UART_1.c ****     /* Call Stop function specific to current operation mode */
 228:.\Generated_Source\PSoC4/UART_1.c ****     UART_1_ScbModeStop();
 229:.\Generated_Source\PSoC4/UART_1.c **** 
 230:.\Generated_Source\PSoC4/UART_1.c ****     /* Disable SCB IP */
 231:.\Generated_Source\PSoC4/UART_1.c ****     UART_1_CTRL_REG &= (uint32) ~UART_1_CTRL_ENABLED;
 232:.\Generated_Source\PSoC4/UART_1.c **** 
 233:.\Generated_Source\PSoC4/UART_1.c ****     /* Disable all TX interrupt sources so as not to cause an unexpected
 234:.\Generated_Source\PSoC4/UART_1.c ****     * interrupt trigger because after the component is enabled, the TX FIFO
 235:.\Generated_Source\PSoC4/UART_1.c ****     * is empty.
 236:.\Generated_Source\PSoC4/UART_1.c ****     * For SCB IP v0, it is critical as it does not mask-out interrupt
 237:.\Generated_Source\PSoC4/UART_1.c ****     * sources when they are disabled. This can cause a code lock-up in the
 238:.\Generated_Source\PSoC4/UART_1.c ****     * interrupt handler because TX FIFO cannot be loaded after the block
 239:.\Generated_Source\PSoC4/UART_1.c ****     * is disabled.
 240:.\Generated_Source\PSoC4/UART_1.c ****     */
 241:.\Generated_Source\PSoC4/UART_1.c ****     UART_1_SetTxInterruptMode(UART_1_NO_INTR_SOURCES);
 242:.\Generated_Source\PSoC4/UART_1.c **** 
 243:.\Generated_Source\PSoC4/UART_1.c **** #if (UART_1_SCB_IRQ_INTERNAL)
 244:.\Generated_Source\PSoC4/UART_1.c ****     UART_1_ClearPendingInt();
 245:.\Generated_Source\PSoC4/UART_1.c **** #endif /* (UART_1_SCB_IRQ_INTERNAL) */
 246:.\Generated_Source\PSoC4/UART_1.c **** }
 247:.\Generated_Source\PSoC4/UART_1.c **** 
 248:.\Generated_Source\PSoC4/UART_1.c **** 
 249:.\Generated_Source\PSoC4/UART_1.c **** /*******************************************************************************
 250:.\Generated_Source\PSoC4/UART_1.c **** * Function Name: UART_1_SetRxFifoLevel
 251:.\Generated_Source\PSoC4/UART_1.c **** ********************************************************************************
 252:.\Generated_Source\PSoC4/UART_1.c **** *
 253:.\Generated_Source\PSoC4/UART_1.c **** * Summary:
 254:.\Generated_Source\PSoC4/UART_1.c **** *  Sets level in the RX FIFO to generate a RX level interrupt.
 255:.\Generated_Source\PSoC4/UART_1.c **** *  When the RX FIFO has more entries than the RX FIFO level an RX level
 256:.\Generated_Source\PSoC4/UART_1.c **** *  interrupt request is generated.
 257:.\Generated_Source\PSoC4/UART_1.c **** *
 258:.\Generated_Source\PSoC4/UART_1.c **** * Parameters:
 259:.\Generated_Source\PSoC4/UART_1.c **** *  level: Level in the RX FIFO to generate RX level interrupt.
 260:.\Generated_Source\PSoC4/UART_1.c **** *         The range of valid level values is between 0 and RX FIFO depth - 1.
 261:.\Generated_Source\PSoC4/UART_1.c **** *
ARM GAS  C:\Users\Marcelo\AppData\Local\Temp\ccKEfGLG.s 			page 6


 262:.\Generated_Source\PSoC4/UART_1.c **** * Return:
 263:.\Generated_Source\PSoC4/UART_1.c **** *  None
 264:.\Generated_Source\PSoC4/UART_1.c **** *
 265:.\Generated_Source\PSoC4/UART_1.c **** *******************************************************************************/
 266:.\Generated_Source\PSoC4/UART_1.c **** void UART_1_SetRxFifoLevel(uint32 level)
 267:.\Generated_Source\PSoC4/UART_1.c **** {
 268:.\Generated_Source\PSoC4/UART_1.c ****     uint32 rxFifoCtrl;
 269:.\Generated_Source\PSoC4/UART_1.c **** 
 270:.\Generated_Source\PSoC4/UART_1.c ****     rxFifoCtrl = UART_1_RX_FIFO_CTRL_REG;
 271:.\Generated_Source\PSoC4/UART_1.c **** 
 272:.\Generated_Source\PSoC4/UART_1.c ****     rxFifoCtrl &= ((uint32) ~UART_1_RX_FIFO_CTRL_TRIGGER_LEVEL_MASK); /* Clear level mask bits */
 273:.\Generated_Source\PSoC4/UART_1.c ****     rxFifoCtrl |= ((uint32) (UART_1_RX_FIFO_CTRL_TRIGGER_LEVEL_MASK & level));
 274:.\Generated_Source\PSoC4/UART_1.c **** 
 275:.\Generated_Source\PSoC4/UART_1.c ****     UART_1_RX_FIFO_CTRL_REG = rxFifoCtrl;
 276:.\Generated_Source\PSoC4/UART_1.c **** }
 277:.\Generated_Source\PSoC4/UART_1.c **** 
 278:.\Generated_Source\PSoC4/UART_1.c **** 
 279:.\Generated_Source\PSoC4/UART_1.c **** /*******************************************************************************
 280:.\Generated_Source\PSoC4/UART_1.c **** * Function Name: UART_1_SetTxFifoLevel
 281:.\Generated_Source\PSoC4/UART_1.c **** ********************************************************************************
 282:.\Generated_Source\PSoC4/UART_1.c **** *
 283:.\Generated_Source\PSoC4/UART_1.c **** * Summary:
 284:.\Generated_Source\PSoC4/UART_1.c **** *  Sets level in the TX FIFO to generate a TX level interrupt.
 285:.\Generated_Source\PSoC4/UART_1.c **** *  When the TX FIFO has more entries than the TX FIFO level an TX level
 286:.\Generated_Source\PSoC4/UART_1.c **** *  interrupt request is generated.
 287:.\Generated_Source\PSoC4/UART_1.c **** *
 288:.\Generated_Source\PSoC4/UART_1.c **** * Parameters:
 289:.\Generated_Source\PSoC4/UART_1.c **** *  level: Level in the TX FIFO to generate TX level interrupt.
 290:.\Generated_Source\PSoC4/UART_1.c **** *         The range of valid level values is between 0 and TX FIFO depth - 1.
 291:.\Generated_Source\PSoC4/UART_1.c **** *
 292:.\Generated_Source\PSoC4/UART_1.c **** * Return:
 293:.\Generated_Source\PSoC4/UART_1.c **** *  None
 294:.\Generated_Source\PSoC4/UART_1.c **** *
 295:.\Generated_Source\PSoC4/UART_1.c **** *******************************************************************************/
 296:.\Generated_Source\PSoC4/UART_1.c **** void UART_1_SetTxFifoLevel(uint32 level)
 297:.\Generated_Source\PSoC4/UART_1.c **** {
 298:.\Generated_Source\PSoC4/UART_1.c ****     uint32 txFifoCtrl;
 299:.\Generated_Source\PSoC4/UART_1.c **** 
 300:.\Generated_Source\PSoC4/UART_1.c ****     txFifoCtrl = UART_1_TX_FIFO_CTRL_REG;
 301:.\Generated_Source\PSoC4/UART_1.c **** 
 302:.\Generated_Source\PSoC4/UART_1.c ****     txFifoCtrl &= ((uint32) ~UART_1_TX_FIFO_CTRL_TRIGGER_LEVEL_MASK); /* Clear level mask bits */
 303:.\Generated_Source\PSoC4/UART_1.c ****     txFifoCtrl |= ((uint32) (UART_1_TX_FIFO_CTRL_TRIGGER_LEVEL_MASK & level));
 304:.\Generated_Source\PSoC4/UART_1.c **** 
 305:.\Generated_Source\PSoC4/UART_1.c ****     UART_1_TX_FIFO_CTRL_REG = txFifoCtrl;
 306:.\Generated_Source\PSoC4/UART_1.c **** }
 307:.\Generated_Source\PSoC4/UART_1.c **** 
 308:.\Generated_Source\PSoC4/UART_1.c **** 
 309:.\Generated_Source\PSoC4/UART_1.c **** #if (UART_1_SCB_IRQ_INTERNAL)
 310:.\Generated_Source\PSoC4/UART_1.c ****     /*******************************************************************************
 311:.\Generated_Source\PSoC4/UART_1.c ****     * Function Name: UART_1_SetCustomInterruptHandler
 312:.\Generated_Source\PSoC4/UART_1.c ****     ********************************************************************************
 313:.\Generated_Source\PSoC4/UART_1.c ****     *
 314:.\Generated_Source\PSoC4/UART_1.c ****     * Summary:
 315:.\Generated_Source\PSoC4/UART_1.c ****     *  Registers a function to be called by the internal interrupt handler.
 316:.\Generated_Source\PSoC4/UART_1.c ****     *  First the function that is registered is called, then the internal interrupt
 317:.\Generated_Source\PSoC4/UART_1.c ****     *  handler performs any operation such as software buffer management functions
 318:.\Generated_Source\PSoC4/UART_1.c ****     *  before the interrupt returns.  It is the user's responsibility not to break
ARM GAS  C:\Users\Marcelo\AppData\Local\Temp\ccKEfGLG.s 			page 7


 319:.\Generated_Source\PSoC4/UART_1.c ****     *  the software buffer operations. Only one custom handler is supported, which
 320:.\Generated_Source\PSoC4/UART_1.c ****     *  is the function provided by the most recent call.
 321:.\Generated_Source\PSoC4/UART_1.c ****     *  At the initialization time no custom handler is registered.
 322:.\Generated_Source\PSoC4/UART_1.c ****     *
 323:.\Generated_Source\PSoC4/UART_1.c ****     * Parameters:
 324:.\Generated_Source\PSoC4/UART_1.c ****     *  func: Pointer to the function to register.
 325:.\Generated_Source\PSoC4/UART_1.c ****     *        The value NULL indicates to remove the current custom interrupt
 326:.\Generated_Source\PSoC4/UART_1.c ****     *        handler.
 327:.\Generated_Source\PSoC4/UART_1.c ****     *
 328:.\Generated_Source\PSoC4/UART_1.c ****     * Return:
 329:.\Generated_Source\PSoC4/UART_1.c ****     *  None
 330:.\Generated_Source\PSoC4/UART_1.c ****     *
 331:.\Generated_Source\PSoC4/UART_1.c ****     *******************************************************************************/
 332:.\Generated_Source\PSoC4/UART_1.c ****     void UART_1_SetCustomInterruptHandler(void (*func)(void))
 333:.\Generated_Source\PSoC4/UART_1.c ****     {
 334:.\Generated_Source\PSoC4/UART_1.c ****     #if !defined (CY_REMOVE_UART_1_CUSTOM_INTR_HANDLER)
 335:.\Generated_Source\PSoC4/UART_1.c ****         UART_1_customIntrHandler = func; /* Register interrupt handler */
 336:.\Generated_Source\PSoC4/UART_1.c ****     #else
 337:.\Generated_Source\PSoC4/UART_1.c ****         if (NULL != func)
 338:.\Generated_Source\PSoC4/UART_1.c ****         {
 339:.\Generated_Source\PSoC4/UART_1.c ****             /* Suppress compiler warning */
 340:.\Generated_Source\PSoC4/UART_1.c ****         }
 341:.\Generated_Source\PSoC4/UART_1.c ****     #endif /* !defined (CY_REMOVE_UART_1_CUSTOM_INTR_HANDLER) */
 342:.\Generated_Source\PSoC4/UART_1.c ****     }
 343:.\Generated_Source\PSoC4/UART_1.c **** #endif /* (UART_1_SCB_IRQ_INTERNAL) */
 344:.\Generated_Source\PSoC4/UART_1.c **** 
 345:.\Generated_Source\PSoC4/UART_1.c **** 
 346:.\Generated_Source\PSoC4/UART_1.c **** /*******************************************************************************
 347:.\Generated_Source\PSoC4/UART_1.c **** * Function Name: UART_1_ScbModeEnableIntr
 348:.\Generated_Source\PSoC4/UART_1.c **** ********************************************************************************
 349:.\Generated_Source\PSoC4/UART_1.c **** *
 350:.\Generated_Source\PSoC4/UART_1.c **** * Summary:
 351:.\Generated_Source\PSoC4/UART_1.c **** *  Enables an interrupt for a specific mode.
 352:.\Generated_Source\PSoC4/UART_1.c **** *
 353:.\Generated_Source\PSoC4/UART_1.c **** * Parameters:
 354:.\Generated_Source\PSoC4/UART_1.c **** *  None
 355:.\Generated_Source\PSoC4/UART_1.c **** *
 356:.\Generated_Source\PSoC4/UART_1.c **** * Return:
 357:.\Generated_Source\PSoC4/UART_1.c **** *  None
 358:.\Generated_Source\PSoC4/UART_1.c **** *
 359:.\Generated_Source\PSoC4/UART_1.c **** *******************************************************************************/
 360:.\Generated_Source\PSoC4/UART_1.c **** static void UART_1_ScbEnableIntr(void)
 361:.\Generated_Source\PSoC4/UART_1.c **** {
  25              		.loc 1 361 0
  26              		.cfi_startproc
  27 0000 08B5     		push	{r3, lr}
  28              		.cfi_def_cfa_offset 8
  29              		.cfi_offset 3, -8
  30              		.cfi_offset 14, -4
 362:.\Generated_Source\PSoC4/UART_1.c **** #if (UART_1_SCB_IRQ_INTERNAL)
 363:.\Generated_Source\PSoC4/UART_1.c ****     /* Enable interrupt in NVIC */
 364:.\Generated_Source\PSoC4/UART_1.c ****     #if (UART_1_SCB_MODE_UNCONFIG_CONST_CFG)
 365:.\Generated_Source\PSoC4/UART_1.c ****         if (0u != UART_1_scbEnableIntr)
  31              		.loc 1 365 0
  32 0002 044B     		ldr	r3, .L3
  33 0004 1B78     		ldrb	r3, [r3]
  34 0006 002B     		cmp	r3, #0
ARM GAS  C:\Users\Marcelo\AppData\Local\Temp\ccKEfGLG.s 			page 8


  35 0008 02D0     		beq	.L1
 366:.\Generated_Source\PSoC4/UART_1.c ****         {
 367:.\Generated_Source\PSoC4/UART_1.c ****             UART_1_EnableInt();
  36              		.loc 1 367 0
  37 000a 0B20     		mov	r0, #11
  38 000c FFF7FEFF 		bl	CyIntEnable
  39              	.LVL0:
  40              	.L1:
 368:.\Generated_Source\PSoC4/UART_1.c ****         }
 369:.\Generated_Source\PSoC4/UART_1.c **** 
 370:.\Generated_Source\PSoC4/UART_1.c ****     #else
 371:.\Generated_Source\PSoC4/UART_1.c ****         UART_1_EnableInt();
 372:.\Generated_Source\PSoC4/UART_1.c **** 
 373:.\Generated_Source\PSoC4/UART_1.c ****     #endif /* (UART_1_SCB_MODE_UNCONFIG_CONST_CFG) */
 374:.\Generated_Source\PSoC4/UART_1.c **** #endif /* (UART_1_SCB_IRQ_INTERNAL) */
 375:.\Generated_Source\PSoC4/UART_1.c **** }
  41              		.loc 1 375 0
  42              		@ sp needed
  43 0010 08BD     		pop	{r3, pc}
  44              	.L4:
  45 0012 C046     		.align	2
  46              	.L3:
  47 0014 00000000 		.word	UART_1_scbEnableIntr
  48              		.cfi_endproc
  49              	.LFE7:
  50              		.size	UART_1_ScbEnableIntr, .-UART_1_ScbEnableIntr
  51              		.section	.text.UART_1_ScbModePostEnable,"ax",%progbits
  52              		.align	2
  53              		.code	16
  54              		.thumb_func
  55              		.type	UART_1_ScbModePostEnable, %function
  56              	UART_1_ScbModePostEnable:
  57              	.LFB8:
 376:.\Generated_Source\PSoC4/UART_1.c **** 
 377:.\Generated_Source\PSoC4/UART_1.c **** 
 378:.\Generated_Source\PSoC4/UART_1.c **** /*******************************************************************************
 379:.\Generated_Source\PSoC4/UART_1.c **** * Function Name: UART_1_ScbModePostEnable
 380:.\Generated_Source\PSoC4/UART_1.c **** ********************************************************************************
 381:.\Generated_Source\PSoC4/UART_1.c **** *
 382:.\Generated_Source\PSoC4/UART_1.c **** * Summary:
 383:.\Generated_Source\PSoC4/UART_1.c **** *  Calls the PostEnable function for a specific operation mode.
 384:.\Generated_Source\PSoC4/UART_1.c **** *
 385:.\Generated_Source\PSoC4/UART_1.c **** * Parameters:
 386:.\Generated_Source\PSoC4/UART_1.c **** *  None
 387:.\Generated_Source\PSoC4/UART_1.c **** *
 388:.\Generated_Source\PSoC4/UART_1.c **** * Return:
 389:.\Generated_Source\PSoC4/UART_1.c **** *  None
 390:.\Generated_Source\PSoC4/UART_1.c **** *
 391:.\Generated_Source\PSoC4/UART_1.c **** *******************************************************************************/
 392:.\Generated_Source\PSoC4/UART_1.c **** static void UART_1_ScbModePostEnable(void)
 393:.\Generated_Source\PSoC4/UART_1.c **** {
  58              		.loc 1 393 0
  59              		.cfi_startproc
  60 0000 08B5     		push	{r3, lr}
  61              		.cfi_def_cfa_offset 8
  62              		.cfi_offset 3, -8
  63              		.cfi_offset 14, -4
ARM GAS  C:\Users\Marcelo\AppData\Local\Temp\ccKEfGLG.s 			page 9


 394:.\Generated_Source\PSoC4/UART_1.c **** #if (UART_1_SCB_MODE_UNCONFIG_CONST_CFG)
 395:.\Generated_Source\PSoC4/UART_1.c **** #if (!UART_1_CY_SCBIP_V1)
 396:.\Generated_Source\PSoC4/UART_1.c ****     if (UART_1_SCB_MODE_SPI_RUNTM_CFG)
  64              		.loc 1 396 0
  65 0002 064B     		ldr	r3, .L8
  66 0004 1B78     		ldrb	r3, [r3]
  67 0006 022B     		cmp	r3, #2
  68 0008 02D1     		bne	.L6
 397:.\Generated_Source\PSoC4/UART_1.c ****     {
 398:.\Generated_Source\PSoC4/UART_1.c ****         UART_1_SpiPostEnable();
  69              		.loc 1 398 0
  70 000a FFF7FEFF 		bl	UART_1_SpiPostEnable
  71              	.LVL1:
  72 000e 03E0     		b	.L5
  73              	.L6:
 399:.\Generated_Source\PSoC4/UART_1.c ****     }
 400:.\Generated_Source\PSoC4/UART_1.c ****     else if (UART_1_SCB_MODE_UART_RUNTM_CFG)
  74              		.loc 1 400 0
  75 0010 042B     		cmp	r3, #4
  76 0012 01D1     		bne	.L5
 401:.\Generated_Source\PSoC4/UART_1.c ****     {
 402:.\Generated_Source\PSoC4/UART_1.c ****         UART_1_UartPostEnable();
  77              		.loc 1 402 0
  78 0014 FFF7FEFF 		bl	UART_1_UartPostEnable
  79              	.LVL2:
  80              	.L5:
 403:.\Generated_Source\PSoC4/UART_1.c ****     }
 404:.\Generated_Source\PSoC4/UART_1.c ****     else
 405:.\Generated_Source\PSoC4/UART_1.c ****     {
 406:.\Generated_Source\PSoC4/UART_1.c ****         /* Unknown mode: do nothing */
 407:.\Generated_Source\PSoC4/UART_1.c ****     }
 408:.\Generated_Source\PSoC4/UART_1.c **** #endif /* (!UART_1_CY_SCBIP_V1) */
 409:.\Generated_Source\PSoC4/UART_1.c **** 
 410:.\Generated_Source\PSoC4/UART_1.c **** #elif (UART_1_SCB_MODE_SPI_CONST_CFG)
 411:.\Generated_Source\PSoC4/UART_1.c ****     UART_1_SpiPostEnable();
 412:.\Generated_Source\PSoC4/UART_1.c **** 
 413:.\Generated_Source\PSoC4/UART_1.c **** #elif (UART_1_SCB_MODE_UART_CONST_CFG)
 414:.\Generated_Source\PSoC4/UART_1.c ****     UART_1_UartPostEnable();
 415:.\Generated_Source\PSoC4/UART_1.c **** 
 416:.\Generated_Source\PSoC4/UART_1.c **** #else
 417:.\Generated_Source\PSoC4/UART_1.c ****     /* Unknown mode: do nothing */
 418:.\Generated_Source\PSoC4/UART_1.c **** #endif /* (UART_1_SCB_MODE_UNCONFIG_CONST_CFG) */
 419:.\Generated_Source\PSoC4/UART_1.c **** }
  81              		.loc 1 419 0
  82              		@ sp needed
  83 0018 08BD     		pop	{r3, pc}
  84              	.L9:
  85 001a C046     		.align	2
  86              	.L8:
  87 001c 00000000 		.word	.LANCHOR0
  88              		.cfi_endproc
  89              	.LFE8:
  90              		.size	UART_1_ScbModePostEnable, .-UART_1_ScbModePostEnable
  91              		.section	.text.UART_1_ScbModeStop,"ax",%progbits
  92              		.align	2
  93              		.code	16
  94              		.thumb_func
ARM GAS  C:\Users\Marcelo\AppData\Local\Temp\ccKEfGLG.s 			page 10


  95              		.type	UART_1_ScbModeStop, %function
  96              	UART_1_ScbModeStop:
  97              	.LFB9:
 420:.\Generated_Source\PSoC4/UART_1.c **** 
 421:.\Generated_Source\PSoC4/UART_1.c **** 
 422:.\Generated_Source\PSoC4/UART_1.c **** /*******************************************************************************
 423:.\Generated_Source\PSoC4/UART_1.c **** * Function Name: UART_1_ScbModeStop
 424:.\Generated_Source\PSoC4/UART_1.c **** ********************************************************************************
 425:.\Generated_Source\PSoC4/UART_1.c **** *
 426:.\Generated_Source\PSoC4/UART_1.c **** * Summary:
 427:.\Generated_Source\PSoC4/UART_1.c **** *  Calls the Stop function for a specific operation mode.
 428:.\Generated_Source\PSoC4/UART_1.c **** *
 429:.\Generated_Source\PSoC4/UART_1.c **** * Parameters:
 430:.\Generated_Source\PSoC4/UART_1.c **** *  None
 431:.\Generated_Source\PSoC4/UART_1.c **** *
 432:.\Generated_Source\PSoC4/UART_1.c **** * Return:
 433:.\Generated_Source\PSoC4/UART_1.c **** *  None
 434:.\Generated_Source\PSoC4/UART_1.c **** *
 435:.\Generated_Source\PSoC4/UART_1.c **** *******************************************************************************/
 436:.\Generated_Source\PSoC4/UART_1.c **** static void UART_1_ScbModeStop(void)
 437:.\Generated_Source\PSoC4/UART_1.c **** {
  98              		.loc 1 437 0
  99              		.cfi_startproc
 100 0000 08B5     		push	{r3, lr}
 101              		.cfi_def_cfa_offset 8
 102              		.cfi_offset 3, -8
 103              		.cfi_offset 14, -4
 438:.\Generated_Source\PSoC4/UART_1.c **** #if (UART_1_SCB_MODE_UNCONFIG_CONST_CFG)
 439:.\Generated_Source\PSoC4/UART_1.c ****     if (UART_1_SCB_MODE_I2C_RUNTM_CFG)
 104              		.loc 1 439 0
 105 0002 0B4B     		ldr	r3, .L15
 106 0004 1B78     		ldrb	r3, [r3]
 107 0006 012B     		cmp	r3, #1
 108 0008 02D1     		bne	.L11
 440:.\Generated_Source\PSoC4/UART_1.c ****     {
 441:.\Generated_Source\PSoC4/UART_1.c ****         UART_1_I2CStop();
 109              		.loc 1 441 0
 110 000a FFF7FEFF 		bl	UART_1_I2CStop
 111              	.LVL3:
 112 000e 0DE0     		b	.L10
 113              	.L11:
 442:.\Generated_Source\PSoC4/UART_1.c ****     }
 443:.\Generated_Source\PSoC4/UART_1.c ****     else if (UART_1_SCB_MODE_EZI2C_RUNTM_CFG)
 114              		.loc 1 443 0
 115 0010 082B     		cmp	r3, #8
 116 0012 02D1     		bne	.L13
 444:.\Generated_Source\PSoC4/UART_1.c ****     {
 445:.\Generated_Source\PSoC4/UART_1.c ****         UART_1_EzI2CStop();
 117              		.loc 1 445 0
 118 0014 FFF7FEFF 		bl	UART_1_EzI2CStop
 119              	.LVL4:
 120 0018 08E0     		b	.L10
 121              	.L13:
 446:.\Generated_Source\PSoC4/UART_1.c ****     }
 447:.\Generated_Source\PSoC4/UART_1.c **** #if (!UART_1_CY_SCBIP_V1)
 448:.\Generated_Source\PSoC4/UART_1.c ****     else if (UART_1_SCB_MODE_SPI_RUNTM_CFG)
 122              		.loc 1 448 0
ARM GAS  C:\Users\Marcelo\AppData\Local\Temp\ccKEfGLG.s 			page 11


 123 001a 022B     		cmp	r3, #2
 124 001c 02D1     		bne	.L14
 449:.\Generated_Source\PSoC4/UART_1.c ****     {
 450:.\Generated_Source\PSoC4/UART_1.c ****         UART_1_SpiStop();
 125              		.loc 1 450 0
 126 001e FFF7FEFF 		bl	UART_1_SpiStop
 127              	.LVL5:
 128 0022 03E0     		b	.L10
 129              	.L14:
 451:.\Generated_Source\PSoC4/UART_1.c ****     }
 452:.\Generated_Source\PSoC4/UART_1.c ****     else if (UART_1_SCB_MODE_UART_RUNTM_CFG)
 130              		.loc 1 452 0
 131 0024 042B     		cmp	r3, #4
 132 0026 01D1     		bne	.L10
 453:.\Generated_Source\PSoC4/UART_1.c ****     {
 454:.\Generated_Source\PSoC4/UART_1.c ****         UART_1_UartStop();
 133              		.loc 1 454 0
 134 0028 FFF7FEFF 		bl	UART_1_UartStop
 135              	.LVL6:
 136              	.L10:
 455:.\Generated_Source\PSoC4/UART_1.c ****     }
 456:.\Generated_Source\PSoC4/UART_1.c **** #endif /* (!UART_1_CY_SCBIP_V1) */
 457:.\Generated_Source\PSoC4/UART_1.c ****     else
 458:.\Generated_Source\PSoC4/UART_1.c ****     {
 459:.\Generated_Source\PSoC4/UART_1.c ****         /* Unknown mode: do nothing */
 460:.\Generated_Source\PSoC4/UART_1.c ****     }
 461:.\Generated_Source\PSoC4/UART_1.c **** #elif (UART_1_SCB_MODE_I2C_CONST_CFG)
 462:.\Generated_Source\PSoC4/UART_1.c ****     UART_1_I2CStop();
 463:.\Generated_Source\PSoC4/UART_1.c **** 
 464:.\Generated_Source\PSoC4/UART_1.c **** #elif (UART_1_SCB_MODE_EZI2C_CONST_CFG)
 465:.\Generated_Source\PSoC4/UART_1.c ****     UART_1_EzI2CStop();
 466:.\Generated_Source\PSoC4/UART_1.c **** 
 467:.\Generated_Source\PSoC4/UART_1.c **** #elif (UART_1_SCB_MODE_SPI_CONST_CFG)
 468:.\Generated_Source\PSoC4/UART_1.c ****     UART_1_SpiStop();
 469:.\Generated_Source\PSoC4/UART_1.c **** 
 470:.\Generated_Source\PSoC4/UART_1.c **** #elif (UART_1_SCB_MODE_UART_CONST_CFG)
 471:.\Generated_Source\PSoC4/UART_1.c ****     UART_1_UartStop();
 472:.\Generated_Source\PSoC4/UART_1.c **** 
 473:.\Generated_Source\PSoC4/UART_1.c **** #else
 474:.\Generated_Source\PSoC4/UART_1.c ****     /* Unknown mode: do nothing */
 475:.\Generated_Source\PSoC4/UART_1.c **** #endif /* (UART_1_SCB_MODE_UNCONFIG_CONST_CFG) */
 476:.\Generated_Source\PSoC4/UART_1.c **** }
 137              		.loc 1 476 0
 138              		@ sp needed
 139 002c 08BD     		pop	{r3, pc}
 140              	.L16:
 141 002e C046     		.align	2
 142              	.L15:
 143 0030 00000000 		.word	.LANCHOR0
 144              		.cfi_endproc
 145              	.LFE9:
 146              		.size	UART_1_ScbModeStop, .-UART_1_ScbModeStop
 147              		.section	.text.UART_1_Init,"ax",%progbits
 148              		.align	2
 149              		.global	UART_1_Init
 150              		.code	16
 151              		.thumb_func
ARM GAS  C:\Users\Marcelo\AppData\Local\Temp\ccKEfGLG.s 			page 12


 152              		.type	UART_1_Init, %function
 153              	UART_1_Init:
 154              	.LFB0:
 103:.\Generated_Source\PSoC4/UART_1.c **** {
 155              		.loc 1 103 0
 156              		.cfi_startproc
 105:.\Generated_Source\PSoC4/UART_1.c ****     if (UART_1_SCB_MODE_UNCONFIG_RUNTM_CFG)
 157              		.loc 1 105 0
 158 0000 034B     		ldr	r3, .L19
 159 0002 1B78     		ldrb	r3, [r3]
 160 0004 FF2B     		cmp	r3, #255
 161 0006 02D1     		bne	.L17
 107:.\Generated_Source\PSoC4/UART_1.c ****         UART_1_initVar = 0u;
 162              		.loc 1 107 0
 163 0008 0022     		mov	r2, #0
 164 000a 024B     		ldr	r3, .L19+4
 165 000c 1A70     		strb	r2, [r3]
 166              	.L17:
 127:.\Generated_Source\PSoC4/UART_1.c **** }
 167              		.loc 1 127 0
 168              		@ sp needed
 169 000e 7047     		bx	lr
 170              	.L20:
 171              		.align	2
 172              	.L19:
 173 0010 00000000 		.word	.LANCHOR0
 174 0014 00000000 		.word	.LANCHOR1
 175              		.cfi_endproc
 176              	.LFE0:
 177              		.size	UART_1_Init, .-UART_1_Init
 178              		.section	.text.UART_1_Enable,"ax",%progbits
 179              		.align	2
 180              		.global	UART_1_Enable
 181              		.code	16
 182              		.thumb_func
 183              		.type	UART_1_Enable, %function
 184              	UART_1_Enable:
 185              	.LFB1:
 147:.\Generated_Source\PSoC4/UART_1.c **** {
 186              		.loc 1 147 0
 187              		.cfi_startproc
 188 0000 08B5     		push	{r3, lr}
 189              		.cfi_def_cfa_offset 8
 190              		.cfi_offset 3, -8
 191              		.cfi_offset 14, -4
 150:.\Generated_Source\PSoC4/UART_1.c ****     if (!UART_1_SCB_MODE_UNCONFIG_RUNTM_CFG)
 192              		.loc 1 150 0
 193 0002 074B     		ldr	r3, .L23
 194 0004 1B78     		ldrb	r3, [r3]
 195 0006 FF2B     		cmp	r3, #255
 196 0008 09D0     		beq	.L21
 152:.\Generated_Source\PSoC4/UART_1.c ****         UART_1_CTRL_REG |= UART_1_CTRL_ENABLED;
 197              		.loc 1 152 0
 198 000a 064B     		ldr	r3, .L23+4
 199 000c 1968     		ldr	r1, [r3]
 200 000e 8022     		mov	r2, #128
 201 0010 1206     		lsl	r2, r2, #24
ARM GAS  C:\Users\Marcelo\AppData\Local\Temp\ccKEfGLG.s 			page 13


 202 0012 0A43     		orr	r2, r1
 203 0014 1A60     		str	r2, [r3]
 154:.\Generated_Source\PSoC4/UART_1.c ****         UART_1_ScbEnableIntr();
 204              		.loc 1 154 0
 205 0016 FFF7FEFF 		bl	UART_1_ScbEnableIntr
 206              	.LVL7:
 157:.\Generated_Source\PSoC4/UART_1.c ****         UART_1_ScbModePostEnable();
 207              		.loc 1 157 0
 208 001a FFF7FEFF 		bl	UART_1_ScbModePostEnable
 209              	.LVL8:
 210              	.L21:
 167:.\Generated_Source\PSoC4/UART_1.c **** }
 211              		.loc 1 167 0
 212              		@ sp needed
 213 001e 08BD     		pop	{r3, pc}
 214              	.L24:
 215              		.align	2
 216              	.L23:
 217 0020 00000000 		.word	.LANCHOR0
 218 0024 00000740 		.word	1074200576
 219              		.cfi_endproc
 220              	.LFE1:
 221              		.size	UART_1_Enable, .-UART_1_Enable
 222              		.section	.text.UART_1_Start,"ax",%progbits
 223              		.align	2
 224              		.global	UART_1_Start
 225              		.code	16
 226              		.thumb_func
 227              		.type	UART_1_Start, %function
 228              	UART_1_Start:
 229              	.LFB2:
 193:.\Generated_Source\PSoC4/UART_1.c **** {
 230              		.loc 1 193 0
 231              		.cfi_startproc
 232 0000 08B5     		push	{r3, lr}
 233              		.cfi_def_cfa_offset 8
 234              		.cfi_offset 3, -8
 235              		.cfi_offset 14, -4
 194:.\Generated_Source\PSoC4/UART_1.c ****     if (0u == UART_1_initVar)
 236              		.loc 1 194 0
 237 0002 064B     		ldr	r3, .L27
 238 0004 1B78     		ldrb	r3, [r3]
 239 0006 002B     		cmp	r3, #0
 240 0008 04D1     		bne	.L26
 196:.\Generated_Source\PSoC4/UART_1.c ****         UART_1_Init();
 241              		.loc 1 196 0
 242 000a FFF7FEFF 		bl	UART_1_Init
 243              	.LVL9:
 197:.\Generated_Source\PSoC4/UART_1.c ****         UART_1_initVar = 1u; /* Component was initialized */
 244              		.loc 1 197 0
 245 000e 0122     		mov	r2, #1
 246 0010 024B     		ldr	r3, .L27
 247 0012 1A70     		strb	r2, [r3]
 248              	.L26:
 200:.\Generated_Source\PSoC4/UART_1.c ****     UART_1_Enable();
 249              		.loc 1 200 0
 250 0014 FFF7FEFF 		bl	UART_1_Enable
ARM GAS  C:\Users\Marcelo\AppData\Local\Temp\ccKEfGLG.s 			page 14


 251              	.LVL10:
 201:.\Generated_Source\PSoC4/UART_1.c **** }
 252              		.loc 1 201 0
 253              		@ sp needed
 254 0018 08BD     		pop	{r3, pc}
 255              	.L28:
 256 001a C046     		.align	2
 257              	.L27:
 258 001c 00000000 		.word	.LANCHOR1
 259              		.cfi_endproc
 260              	.LFE2:
 261              		.size	UART_1_Start, .-UART_1_Start
 262              		.section	.text.UART_1_Stop,"ax",%progbits
 263              		.align	2
 264              		.global	UART_1_Stop
 265              		.code	16
 266              		.thumb_func
 267              		.type	UART_1_Stop, %function
 268              	UART_1_Stop:
 269              	.LFB3:
 222:.\Generated_Source\PSoC4/UART_1.c **** {
 270              		.loc 1 222 0
 271              		.cfi_startproc
 272 0000 08B5     		push	{r3, lr}
 273              		.cfi_def_cfa_offset 8
 274              		.cfi_offset 3, -8
 275              		.cfi_offset 14, -4
 224:.\Generated_Source\PSoC4/UART_1.c ****     UART_1_DisableInt();
 276              		.loc 1 224 0
 277 0002 0B20     		mov	r0, #11
 278 0004 FFF7FEFF 		bl	CyIntDisable
 279              	.LVL11:
 228:.\Generated_Source\PSoC4/UART_1.c ****     UART_1_ScbModeStop();
 280              		.loc 1 228 0
 281 0008 FFF7FEFF 		bl	UART_1_ScbModeStop
 282              	.LVL12:
 231:.\Generated_Source\PSoC4/UART_1.c ****     UART_1_CTRL_REG &= (uint32) ~UART_1_CTRL_ENABLED;
 283              		.loc 1 231 0
 284 000c 054B     		ldr	r3, .L30
 285 000e 1A68     		ldr	r2, [r3]
 286 0010 5200     		lsl	r2, r2, #1
 287 0012 5208     		lsr	r2, r2, #1
 288 0014 1A60     		str	r2, [r3]
 241:.\Generated_Source\PSoC4/UART_1.c ****     UART_1_SetTxInterruptMode(UART_1_NO_INTR_SOURCES);
 289              		.loc 1 241 0
 290 0016 0022     		mov	r2, #0
 291 0018 034B     		ldr	r3, .L30+4
 292 001a 1A60     		str	r2, [r3]
 244:.\Generated_Source\PSoC4/UART_1.c ****     UART_1_ClearPendingInt();
 293              		.loc 1 244 0
 294 001c 0B20     		mov	r0, #11
 295 001e FFF7FEFF 		bl	CyIntClearPending
 296              	.LVL13:
 246:.\Generated_Source\PSoC4/UART_1.c **** }
 297              		.loc 1 246 0
 298              		@ sp needed
 299 0022 08BD     		pop	{r3, pc}
ARM GAS  C:\Users\Marcelo\AppData\Local\Temp\ccKEfGLG.s 			page 15


 300              	.L31:
 301              		.align	2
 302              	.L30:
 303 0024 00000740 		.word	1074200576
 304 0028 880F0740 		.word	1074204552
 305              		.cfi_endproc
 306              	.LFE3:
 307              		.size	UART_1_Stop, .-UART_1_Stop
 308              		.section	.text.UART_1_SetRxFifoLevel,"ax",%progbits
 309              		.align	2
 310              		.global	UART_1_SetRxFifoLevel
 311              		.code	16
 312              		.thumb_func
 313              		.type	UART_1_SetRxFifoLevel, %function
 314              	UART_1_SetRxFifoLevel:
 315              	.LFB4:
 267:.\Generated_Source\PSoC4/UART_1.c **** {
 316              		.loc 1 267 0
 317              		.cfi_startproc
 318              	.LVL14:
 270:.\Generated_Source\PSoC4/UART_1.c ****     rxFifoCtrl = UART_1_RX_FIFO_CTRL_REG;
 319              		.loc 1 270 0
 320 0000 034B     		ldr	r3, .L33
 321 0002 1968     		ldr	r1, [r3]
 322              	.LVL15:
 272:.\Generated_Source\PSoC4/UART_1.c ****     rxFifoCtrl &= ((uint32) ~UART_1_RX_FIFO_CTRL_TRIGGER_LEVEL_MASK); /* Clear level mask bits */
 323              		.loc 1 272 0
 324 0004 0722     		mov	r2, #7
 325 0006 9143     		bic	r1, r2
 326              	.LVL16:
 273:.\Generated_Source\PSoC4/UART_1.c ****     rxFifoCtrl |= ((uint32) (UART_1_RX_FIFO_CTRL_TRIGGER_LEVEL_MASK & level));
 327              		.loc 1 273 0
 328 0008 0240     		and	r2, r0
 329 000a 0A43     		orr	r2, r1
 330              	.LVL17:
 275:.\Generated_Source\PSoC4/UART_1.c ****     UART_1_RX_FIFO_CTRL_REG = rxFifoCtrl;
 331              		.loc 1 275 0
 332 000c 1A60     		str	r2, [r3]
 276:.\Generated_Source\PSoC4/UART_1.c **** }
 333              		.loc 1 276 0
 334              		@ sp needed
 335 000e 7047     		bx	lr
 336              	.L34:
 337              		.align	2
 338              	.L33:
 339 0010 04030740 		.word	1074201348
 340              		.cfi_endproc
 341              	.LFE4:
 342              		.size	UART_1_SetRxFifoLevel, .-UART_1_SetRxFifoLevel
 343              		.section	.text.UART_1_SetTxFifoLevel,"ax",%progbits
 344              		.align	2
 345              		.global	UART_1_SetTxFifoLevel
 346              		.code	16
 347              		.thumb_func
 348              		.type	UART_1_SetTxFifoLevel, %function
 349              	UART_1_SetTxFifoLevel:
 350              	.LFB5:
ARM GAS  C:\Users\Marcelo\AppData\Local\Temp\ccKEfGLG.s 			page 16


 297:.\Generated_Source\PSoC4/UART_1.c **** {
 351              		.loc 1 297 0
 352              		.cfi_startproc
 353              	.LVL18:
 300:.\Generated_Source\PSoC4/UART_1.c ****     txFifoCtrl = UART_1_TX_FIFO_CTRL_REG;
 354              		.loc 1 300 0
 355 0000 034B     		ldr	r3, .L36
 356 0002 1968     		ldr	r1, [r3]
 357              	.LVL19:
 302:.\Generated_Source\PSoC4/UART_1.c ****     txFifoCtrl &= ((uint32) ~UART_1_TX_FIFO_CTRL_TRIGGER_LEVEL_MASK); /* Clear level mask bits */
 358              		.loc 1 302 0
 359 0004 0722     		mov	r2, #7
 360 0006 9143     		bic	r1, r2
 361              	.LVL20:
 303:.\Generated_Source\PSoC4/UART_1.c ****     txFifoCtrl |= ((uint32) (UART_1_TX_FIFO_CTRL_TRIGGER_LEVEL_MASK & level));
 362              		.loc 1 303 0
 363 0008 0240     		and	r2, r0
 364 000a 0A43     		orr	r2, r1
 365              	.LVL21:
 305:.\Generated_Source\PSoC4/UART_1.c ****     UART_1_TX_FIFO_CTRL_REG = txFifoCtrl;
 366              		.loc 1 305 0
 367 000c 1A60     		str	r2, [r3]
 306:.\Generated_Source\PSoC4/UART_1.c **** }
 368              		.loc 1 306 0
 369              		@ sp needed
 370 000e 7047     		bx	lr
 371              	.L37:
 372              		.align	2
 373              	.L36:
 374 0010 04020740 		.word	1074201092
 375              		.cfi_endproc
 376              	.LFE5:
 377              		.size	UART_1_SetTxFifoLevel, .-UART_1_SetTxFifoLevel
 378              		.section	.text.UART_1_SetCustomInterruptHandler,"ax",%progbits
 379              		.align	2
 380              		.global	UART_1_SetCustomInterruptHandler
 381              		.code	16
 382              		.thumb_func
 383              		.type	UART_1_SetCustomInterruptHandler, %function
 384              	UART_1_SetCustomInterruptHandler:
 385              	.LFB6:
 333:.\Generated_Source\PSoC4/UART_1.c ****     {
 386              		.loc 1 333 0
 387              		.cfi_startproc
 388              	.LVL22:
 335:.\Generated_Source\PSoC4/UART_1.c ****         UART_1_customIntrHandler = func; /* Register interrupt handler */
 389              		.loc 1 335 0
 390 0000 014B     		ldr	r3, .L39
 391 0002 5860     		str	r0, [r3, #4]
 342:.\Generated_Source\PSoC4/UART_1.c ****     }
 392              		.loc 1 342 0
 393              		@ sp needed
 394 0004 7047     		bx	lr
 395              	.L40:
 396 0006 C046     		.align	2
 397              	.L39:
 398 0008 00000000 		.word	.LANCHOR1
ARM GAS  C:\Users\Marcelo\AppData\Local\Temp\ccKEfGLG.s 			page 17


 399              		.cfi_endproc
 400              	.LFE6:
 401              		.size	UART_1_SetCustomInterruptHandler, .-UART_1_SetCustomInterruptHandler
 402              		.section	.text.UART_1_SetPins,"ax",%progbits
 403              		.align	2
 404              		.global	UART_1_SetPins
 405              		.code	16
 406              		.thumb_func
 407              		.type	UART_1_SetPins, %function
 408              	UART_1_SetPins:
 409              	.LFB10:
 477:.\Generated_Source\PSoC4/UART_1.c **** 
 478:.\Generated_Source\PSoC4/UART_1.c **** 
 479:.\Generated_Source\PSoC4/UART_1.c **** #if (UART_1_SCB_MODE_UNCONFIG_CONST_CFG)
 480:.\Generated_Source\PSoC4/UART_1.c ****     /*******************************************************************************
 481:.\Generated_Source\PSoC4/UART_1.c ****     * Function Name: UART_1_SetPins
 482:.\Generated_Source\PSoC4/UART_1.c ****     ********************************************************************************
 483:.\Generated_Source\PSoC4/UART_1.c ****     *
 484:.\Generated_Source\PSoC4/UART_1.c ****     * Summary:
 485:.\Generated_Source\PSoC4/UART_1.c ****     *  Sets the pins settings accordingly to the selected operation mode.
 486:.\Generated_Source\PSoC4/UART_1.c ****     *  Only available in the Unconfigured operation mode. The mode specific
 487:.\Generated_Source\PSoC4/UART_1.c ****     *  initialization function calls it.
 488:.\Generated_Source\PSoC4/UART_1.c ****     *  Pins configuration is set by PSoC Creator when a specific mode of operation
 489:.\Generated_Source\PSoC4/UART_1.c ****     *  is selected in design time.
 490:.\Generated_Source\PSoC4/UART_1.c ****     *
 491:.\Generated_Source\PSoC4/UART_1.c ****     * Parameters:
 492:.\Generated_Source\PSoC4/UART_1.c ****     *  mode:      Mode of SCB operation.
 493:.\Generated_Source\PSoC4/UART_1.c ****     *  subMode:   Sub-mode of SCB operation. It is only required for SPI and UART
 494:.\Generated_Source\PSoC4/UART_1.c ****     *             modes.
 495:.\Generated_Source\PSoC4/UART_1.c ****     *  uartEnableMask: enables TX or RX direction and RTS and CTS signals.
 496:.\Generated_Source\PSoC4/UART_1.c ****     *
 497:.\Generated_Source\PSoC4/UART_1.c ****     * Return:
 498:.\Generated_Source\PSoC4/UART_1.c ****     *  None
 499:.\Generated_Source\PSoC4/UART_1.c ****     *
 500:.\Generated_Source\PSoC4/UART_1.c ****     *******************************************************************************/
 501:.\Generated_Source\PSoC4/UART_1.c ****     void UART_1_SetPins(uint32 mode, uint32 subMode, uint32 uartEnableMask)
 502:.\Generated_Source\PSoC4/UART_1.c ****     {
 410              		.loc 1 502 0
 411              		.cfi_startproc
 412              	.LVL23:
 413 0000 70B5     		push	{r4, r5, r6, lr}
 414              		.cfi_def_cfa_offset 16
 415              		.cfi_offset 4, -16
 416              		.cfi_offset 5, -12
 417              		.cfi_offset 6, -8
 418              		.cfi_offset 14, -4
 419 0002 8EB0     		sub	sp, sp, #56
 420              		.cfi_def_cfa_offset 72
 421              	.LVL24:
 503:.\Generated_Source\PSoC4/UART_1.c ****         uint32 hsiomSel [UART_1_SCB_PINS_NUMBER];
 504:.\Generated_Source\PSoC4/UART_1.c ****         uint32 pinsDm   [UART_1_SCB_PINS_NUMBER];
 505:.\Generated_Source\PSoC4/UART_1.c **** 
 506:.\Generated_Source\PSoC4/UART_1.c ****     #if (!UART_1_CY_SCBIP_V1)
 507:.\Generated_Source\PSoC4/UART_1.c ****         uint32 pinsInBuf = 0u;
 508:.\Generated_Source\PSoC4/UART_1.c ****     #endif /* (!UART_1_CY_SCBIP_V1) */
 509:.\Generated_Source\PSoC4/UART_1.c **** 
 510:.\Generated_Source\PSoC4/UART_1.c ****         uint32 i;
ARM GAS  C:\Users\Marcelo\AppData\Local\Temp\ccKEfGLG.s 			page 18


 511:.\Generated_Source\PSoC4/UART_1.c **** 
 512:.\Generated_Source\PSoC4/UART_1.c ****         /* Set default HSIOM to GPIO and Drive Mode to Analog Hi-Z */
 513:.\Generated_Source\PSoC4/UART_1.c ****         for (i = 0u; i < UART_1_SCB_PINS_NUMBER; i++)
 422              		.loc 1 513 0
 423 0004 0023     		mov	r3, #0
 514:.\Generated_Source\PSoC4/UART_1.c ****         {
 515:.\Generated_Source\PSoC4/UART_1.c ****             hsiomSel[i]  = UART_1_HSIOM_DEF_SEL;
 424              		.loc 1 515 0
 425 0006 0025     		mov	r5, #0
 513:.\Generated_Source\PSoC4/UART_1.c ****         for (i = 0u; i < UART_1_SCB_PINS_NUMBER; i++)
 426              		.loc 1 513 0
 427 0008 05E0     		b	.L42
 428              	.LVL25:
 429              	.L43:
 430              		.loc 1 515 0 discriminator 2
 431 000a 9C00     		lsl	r4, r3, #2
 432 000c 07AE     		add	r6, sp, #28
 433 000e A551     		str	r5, [r4, r6]
 516:.\Generated_Source\PSoC4/UART_1.c ****             pinsDm[i]    = UART_1_PIN_DM_ALG_HIZ;
 434              		.loc 1 516 0 discriminator 2
 435 0010 6E46     		mov	r6, sp
 436 0012 A551     		str	r5, [r4, r6]
 513:.\Generated_Source\PSoC4/UART_1.c ****         for (i = 0u; i < UART_1_SCB_PINS_NUMBER; i++)
 437              		.loc 1 513 0 discriminator 2
 438 0014 0133     		add	r3, r3, #1
 439              	.LVL26:
 440              	.L42:
 513:.\Generated_Source\PSoC4/UART_1.c ****         for (i = 0u; i < UART_1_SCB_PINS_NUMBER; i++)
 441              		.loc 1 513 0 is_stmt 0 discriminator 1
 442 0016 062B     		cmp	r3, #6
 443 0018 F7D9     		bls	.L43
 517:.\Generated_Source\PSoC4/UART_1.c ****         }
 518:.\Generated_Source\PSoC4/UART_1.c **** 
 519:.\Generated_Source\PSoC4/UART_1.c ****         if ((UART_1_SCB_MODE_I2C   == mode) ||
 444              		.loc 1 519 0 is_stmt 1
 445 001a 0128     		cmp	r0, #1
 446 001c 01D0     		beq	.L44
 447              		.loc 1 519 0 is_stmt 0 discriminator 1
 448 001e 0828     		cmp	r0, #8
 449 0020 07D1     		bne	.L45
 450              	.L44:
 520:.\Generated_Source\PSoC4/UART_1.c ****            (UART_1_SCB_MODE_EZI2C == mode))
 521:.\Generated_Source\PSoC4/UART_1.c ****         {
 522:.\Generated_Source\PSoC4/UART_1.c ****             hsiomSel[UART_1_RX_SCL_MOSI_PIN_INDEX] = UART_1_HSIOM_I2C_SEL;
 451              		.loc 1 522 0 is_stmt 1
 452 0022 0E23     		mov	r3, #14
 453              	.LVL27:
 454 0024 0793     		str	r3, [sp, #28]
 523:.\Generated_Source\PSoC4/UART_1.c ****             hsiomSel[UART_1_TX_SDA_MISO_PIN_INDEX] = UART_1_HSIOM_I2C_SEL;
 455              		.loc 1 523 0
 456 0026 0893     		str	r3, [sp, #32]
 524:.\Generated_Source\PSoC4/UART_1.c **** 
 525:.\Generated_Source\PSoC4/UART_1.c ****             pinsDm[UART_1_RX_SCL_MOSI_PIN_INDEX] = UART_1_PIN_DM_OD_LO;
 457              		.loc 1 525 0
 458 0028 0423     		mov	r3, #4
 459 002a 0093     		str	r3, [sp]
 526:.\Generated_Source\PSoC4/UART_1.c ****             pinsDm[UART_1_TX_SDA_MISO_PIN_INDEX] = UART_1_PIN_DM_OD_LO;
ARM GAS  C:\Users\Marcelo\AppData\Local\Temp\ccKEfGLG.s 			page 19


 460              		.loc 1 526 0
 461 002c 0193     		str	r3, [sp, #4]
 507:.\Generated_Source\PSoC4/UART_1.c ****         uint32 pinsInBuf = 0u;
 462              		.loc 1 507 0
 463 002e 0024     		mov	r4, #0
 464              		.loc 1 526 0
 465 0030 29E0     		b	.L46
 466              	.LVL28:
 467              	.L45:
 527:.\Generated_Source\PSoC4/UART_1.c ****         }
 528:.\Generated_Source\PSoC4/UART_1.c ****     #if (!UART_1_CY_SCBIP_V1)
 529:.\Generated_Source\PSoC4/UART_1.c ****         else if (UART_1_SCB_MODE_SPI == mode)
 468              		.loc 1 529 0
 469 0032 0228     		cmp	r0, #2
 470 0034 10D1     		bne	.L47
 530:.\Generated_Source\PSoC4/UART_1.c ****         {
 531:.\Generated_Source\PSoC4/UART_1.c ****             hsiomSel[UART_1_RX_SCL_MOSI_PIN_INDEX] = UART_1_HSIOM_SPI_SEL;
 471              		.loc 1 531 0
 472 0036 0F23     		mov	r3, #15
 473              	.LVL29:
 474 0038 0793     		str	r3, [sp, #28]
 532:.\Generated_Source\PSoC4/UART_1.c ****             hsiomSel[UART_1_TX_SDA_MISO_PIN_INDEX] = UART_1_HSIOM_SPI_SEL;
 475              		.loc 1 532 0
 476 003a 0893     		str	r3, [sp, #32]
 533:.\Generated_Source\PSoC4/UART_1.c ****             hsiomSel[UART_1_SCLK_PIN_INDEX] = UART_1_HSIOM_SPI_SEL;
 534:.\Generated_Source\PSoC4/UART_1.c **** 
 535:.\Generated_Source\PSoC4/UART_1.c ****             if (UART_1_SPI_SLAVE == subMode)
 477              		.loc 1 535 0
 478 003c 0029     		cmp	r1, #0
 479 003e 05D1     		bne	.L48
 536:.\Generated_Source\PSoC4/UART_1.c ****             {
 537:.\Generated_Source\PSoC4/UART_1.c ****                 /* Slave */
 538:.\Generated_Source\PSoC4/UART_1.c ****                 pinsDm[UART_1_RX_SCL_MOSI_PIN_INDEX] = UART_1_PIN_DM_DIG_HIZ;
 480              		.loc 1 538 0
 481 0040 0123     		mov	r3, #1
 482 0042 0093     		str	r3, [sp]
 539:.\Generated_Source\PSoC4/UART_1.c ****                 pinsDm[UART_1_TX_SDA_MISO_PIN_INDEX] = UART_1_PIN_DM_STRONG;
 483              		.loc 1 539 0
 484 0044 0623     		mov	r3, #6
 485 0046 0193     		str	r3, [sp, #4]
 486              	.LVL30:
 540:.\Generated_Source\PSoC4/UART_1.c ****                 pinsDm[UART_1_SCLK_PIN_INDEX] = UART_1_PIN_DM_DIG_HIZ;
 541:.\Generated_Source\PSoC4/UART_1.c **** 
 542:.\Generated_Source\PSoC4/UART_1.c ****             #if (UART_1_SS0_PIN)
 543:.\Generated_Source\PSoC4/UART_1.c ****                 /* Only SS0 is valid choice for Slave */
 544:.\Generated_Source\PSoC4/UART_1.c ****                 hsiomSel[UART_1_SS0_PIN_INDEX] = UART_1_HSIOM_SPI_SEL;
 545:.\Generated_Source\PSoC4/UART_1.c ****                 pinsDm  [UART_1_SS0_PIN_INDEX] = UART_1_PIN_DM_DIG_HIZ;
 546:.\Generated_Source\PSoC4/UART_1.c ****             #endif /* (UART_1_SS0_PIN) */
 547:.\Generated_Source\PSoC4/UART_1.c **** 
 548:.\Generated_Source\PSoC4/UART_1.c ****             #if (UART_1_TX_SDA_MISO_PIN)
 549:.\Generated_Source\PSoC4/UART_1.c ****                 /* Disable input buffer */
 550:.\Generated_Source\PSoC4/UART_1.c ****                  pinsInBuf |= UART_1_TX_SDA_MISO_PIN_MASK;
 487              		.loc 1 550 0
 488 0048 0224     		mov	r4, #2
 489 004a 1CE0     		b	.L46
 490              	.LVL31:
 491              	.L48:
ARM GAS  C:\Users\Marcelo\AppData\Local\Temp\ccKEfGLG.s 			page 20


 551:.\Generated_Source\PSoC4/UART_1.c ****             #endif /* (UART_1_TX_SDA_MISO_PIN) */
 552:.\Generated_Source\PSoC4/UART_1.c ****             }
 553:.\Generated_Source\PSoC4/UART_1.c ****             else /* (Master) */
 554:.\Generated_Source\PSoC4/UART_1.c ****             {
 555:.\Generated_Source\PSoC4/UART_1.c ****                 pinsDm[UART_1_RX_SCL_MOSI_PIN_INDEX] = UART_1_PIN_DM_STRONG;
 492              		.loc 1 555 0
 493 004c 0623     		mov	r3, #6
 494 004e 0093     		str	r3, [sp]
 556:.\Generated_Source\PSoC4/UART_1.c ****                 pinsDm[UART_1_TX_SDA_MISO_PIN_INDEX] = UART_1_PIN_DM_DIG_HIZ;
 495              		.loc 1 556 0
 496 0050 0123     		mov	r3, #1
 497 0052 0193     		str	r3, [sp, #4]
 498              	.LVL32:
 557:.\Generated_Source\PSoC4/UART_1.c ****                 pinsDm[UART_1_SCLK_PIN_INDEX] = UART_1_PIN_DM_STRONG;
 558:.\Generated_Source\PSoC4/UART_1.c **** 
 559:.\Generated_Source\PSoC4/UART_1.c ****             #if (UART_1_SS0_PIN)
 560:.\Generated_Source\PSoC4/UART_1.c ****                 hsiomSel [UART_1_SS0_PIN_INDEX] = UART_1_HSIOM_SPI_SEL;
 561:.\Generated_Source\PSoC4/UART_1.c ****                 pinsDm   [UART_1_SS0_PIN_INDEX] = UART_1_PIN_DM_STRONG;
 562:.\Generated_Source\PSoC4/UART_1.c ****                 pinsInBuf |= UART_1_SS0_PIN_MASK;
 563:.\Generated_Source\PSoC4/UART_1.c ****             #endif /* (UART_1_SS0_PIN) */
 564:.\Generated_Source\PSoC4/UART_1.c **** 
 565:.\Generated_Source\PSoC4/UART_1.c ****             #if (UART_1_SS1_PIN)
 566:.\Generated_Source\PSoC4/UART_1.c ****                 hsiomSel [UART_1_SS1_PIN_INDEX] = UART_1_HSIOM_SPI_SEL;
 567:.\Generated_Source\PSoC4/UART_1.c ****                 pinsDm   [UART_1_SS1_PIN_INDEX] = UART_1_PIN_DM_STRONG;
 568:.\Generated_Source\PSoC4/UART_1.c ****                 pinsInBuf |= UART_1_SS1_PIN_MASK;
 569:.\Generated_Source\PSoC4/UART_1.c ****             #endif /* (UART_1_SS1_PIN) */
 570:.\Generated_Source\PSoC4/UART_1.c **** 
 571:.\Generated_Source\PSoC4/UART_1.c ****             #if (UART_1_SS2_PIN)
 572:.\Generated_Source\PSoC4/UART_1.c ****                 hsiomSel [UART_1_SS2_PIN_INDEX] = UART_1_HSIOM_SPI_SEL;
 573:.\Generated_Source\PSoC4/UART_1.c ****                 pinsDm   [UART_1_SS2_PIN_INDEX] = UART_1_PIN_DM_STRONG;
 574:.\Generated_Source\PSoC4/UART_1.c ****                 pinsInBuf |= UART_1_SS2_PIN_MASK;
 575:.\Generated_Source\PSoC4/UART_1.c ****             #endif /* (UART_1_SS2_PIN) */
 576:.\Generated_Source\PSoC4/UART_1.c **** 
 577:.\Generated_Source\PSoC4/UART_1.c ****             #if (UART_1_SS3_PIN)
 578:.\Generated_Source\PSoC4/UART_1.c ****                 hsiomSel [UART_1_SS3_PIN_INDEX] = UART_1_HSIOM_SPI_SEL;
 579:.\Generated_Source\PSoC4/UART_1.c ****                 pinsDm   [UART_1_SS3_PIN_INDEX] = UART_1_PIN_DM_STRONG;
 580:.\Generated_Source\PSoC4/UART_1.c ****                 pinsInBuf |= UART_1_SS3_PIN_MASK;
 581:.\Generated_Source\PSoC4/UART_1.c ****             #endif /* (UART_1_SS3_PIN) */
 582:.\Generated_Source\PSoC4/UART_1.c **** 
 583:.\Generated_Source\PSoC4/UART_1.c ****                 /* Disable input buffers */
 584:.\Generated_Source\PSoC4/UART_1.c ****             #if (UART_1_RX_SCL_MOSI_PIN)
 585:.\Generated_Source\PSoC4/UART_1.c ****                 pinsInBuf |= UART_1_RX_SCL_MOSI_PIN_MASK;
 499              		.loc 1 585 0
 500 0054 0124     		mov	r4, #1
 501 0056 16E0     		b	.L46
 502              	.LVL33:
 503              	.L47:
 586:.\Generated_Source\PSoC4/UART_1.c ****             #endif /* (UART_1_RX_SCL_MOSI_PIN) */
 587:.\Generated_Source\PSoC4/UART_1.c **** 
 588:.\Generated_Source\PSoC4/UART_1.c ****              #if (UART_1_RX_WAKE_SCL_MOSI_PIN)
 589:.\Generated_Source\PSoC4/UART_1.c ****                 pinsInBuf |= UART_1_RX_WAKE_SCL_MOSI_PIN_MASK;
 590:.\Generated_Source\PSoC4/UART_1.c ****             #endif /* (UART_1_RX_WAKE_SCL_MOSI_PIN) */
 591:.\Generated_Source\PSoC4/UART_1.c **** 
 592:.\Generated_Source\PSoC4/UART_1.c ****             #if (UART_1_SCLK_PIN)
 593:.\Generated_Source\PSoC4/UART_1.c ****                 pinsInBuf |= UART_1_SCLK_PIN_MASK;
 594:.\Generated_Source\PSoC4/UART_1.c ****             #endif /* (UART_1_SCLK_PIN) */
 595:.\Generated_Source\PSoC4/UART_1.c ****             }
ARM GAS  C:\Users\Marcelo\AppData\Local\Temp\ccKEfGLG.s 			page 21


 596:.\Generated_Source\PSoC4/UART_1.c ****         }
 597:.\Generated_Source\PSoC4/UART_1.c ****         else /* UART */
 598:.\Generated_Source\PSoC4/UART_1.c ****         {
 599:.\Generated_Source\PSoC4/UART_1.c ****             if (UART_1_UART_MODE_SMARTCARD == subMode)
 504              		.loc 1 599 0
 505 0058 0129     		cmp	r1, #1
 506 005a 05D1     		bne	.L49
 600:.\Generated_Source\PSoC4/UART_1.c ****             {
 601:.\Generated_Source\PSoC4/UART_1.c ****                 /* SmartCard */
 602:.\Generated_Source\PSoC4/UART_1.c ****                 hsiomSel[UART_1_TX_SDA_MISO_PIN_INDEX] = UART_1_HSIOM_UART_SEL;
 507              		.loc 1 602 0
 508 005c 0923     		mov	r3, #9
 509              	.LVL34:
 510 005e 0893     		str	r3, [sp, #32]
 603:.\Generated_Source\PSoC4/UART_1.c ****                 pinsDm  [UART_1_TX_SDA_MISO_PIN_INDEX] = UART_1_PIN_DM_OD_LO;
 511              		.loc 1 603 0
 512 0060 0423     		mov	r3, #4
 513 0062 0193     		str	r3, [sp, #4]
 507:.\Generated_Source\PSoC4/UART_1.c ****         uint32 pinsInBuf = 0u;
 514              		.loc 1 507 0
 515 0064 0024     		mov	r4, #0
 516 0066 0EE0     		b	.L46
 517              	.LVL35:
 518              	.L49:
 604:.\Generated_Source\PSoC4/UART_1.c ****             }
 605:.\Generated_Source\PSoC4/UART_1.c ****             else /* Standard or IrDA */
 606:.\Generated_Source\PSoC4/UART_1.c ****             {
 607:.\Generated_Source\PSoC4/UART_1.c ****                 if (0u != (UART_1_UART_RX_PIN_ENABLE & uartEnableMask))
 519              		.loc 1 607 0
 520 0068 D007     		lsl	r0, r2, #31
 521 006a 03D5     		bpl	.L50
 522              	.LVL36:
 608:.\Generated_Source\PSoC4/UART_1.c ****                 {
 609:.\Generated_Source\PSoC4/UART_1.c ****                     hsiomSel[UART_1_RX_SCL_MOSI_PIN_INDEX] = UART_1_HSIOM_UART_SEL;
 523              		.loc 1 609 0
 524 006c 0923     		mov	r3, #9
 525              	.LVL37:
 526 006e 0793     		str	r3, [sp, #28]
 610:.\Generated_Source\PSoC4/UART_1.c ****                     pinsDm  [UART_1_RX_SCL_MOSI_PIN_INDEX] = UART_1_PIN_DM_DIG_HIZ;
 527              		.loc 1 610 0
 528 0070 0123     		mov	r3, #1
 529 0072 0093     		str	r3, [sp]
 530              	.L50:
 611:.\Generated_Source\PSoC4/UART_1.c ****                 }
 612:.\Generated_Source\PSoC4/UART_1.c **** 
 613:.\Generated_Source\PSoC4/UART_1.c ****                 if (0u != (UART_1_UART_TX_PIN_ENABLE & uartEnableMask))
 531              		.loc 1 613 0
 532 0074 9107     		lsl	r1, r2, #30
 533 0076 05D5     		bpl	.L55
 534              	.LVL38:
 614:.\Generated_Source\PSoC4/UART_1.c ****                 {
 615:.\Generated_Source\PSoC4/UART_1.c ****                     hsiomSel[UART_1_TX_SDA_MISO_PIN_INDEX] = UART_1_HSIOM_UART_SEL;
 535              		.loc 1 615 0
 536 0078 0923     		mov	r3, #9
 537 007a 0893     		str	r3, [sp, #32]
 616:.\Generated_Source\PSoC4/UART_1.c ****                     pinsDm  [UART_1_TX_SDA_MISO_PIN_INDEX] = UART_1_PIN_DM_STRONG;
 538              		.loc 1 616 0
ARM GAS  C:\Users\Marcelo\AppData\Local\Temp\ccKEfGLG.s 			page 22


 539 007c 0623     		mov	r3, #6
 540 007e 0193     		str	r3, [sp, #4]
 541              	.LVL39:
 617:.\Generated_Source\PSoC4/UART_1.c **** 
 618:.\Generated_Source\PSoC4/UART_1.c ****                 #if (UART_1_TX_SDA_MISO_PIN)
 619:.\Generated_Source\PSoC4/UART_1.c ****                      pinsInBuf |= UART_1_TX_SDA_MISO_PIN_MASK;
 542              		.loc 1 619 0
 543 0080 0224     		mov	r4, #2
 544 0082 00E0     		b	.L46
 545              	.LVL40:
 546              	.L55:
 507:.\Generated_Source\PSoC4/UART_1.c ****         uint32 pinsInBuf = 0u;
 547              		.loc 1 507 0
 548 0084 0024     		mov	r4, #0
 549              	.LVL41:
 550              	.L46:
 620:.\Generated_Source\PSoC4/UART_1.c ****                 #endif /* (UART_1_TX_SDA_MISO_PIN) */
 621:.\Generated_Source\PSoC4/UART_1.c ****                 }
 622:.\Generated_Source\PSoC4/UART_1.c **** 
 623:.\Generated_Source\PSoC4/UART_1.c ****             #if !(UART_1_CY_SCBIP_V0 || UART_1_CY_SCBIP_V1)
 624:.\Generated_Source\PSoC4/UART_1.c ****                 if (UART_1_UART_MODE_STD == subMode)
 625:.\Generated_Source\PSoC4/UART_1.c ****                 {
 626:.\Generated_Source\PSoC4/UART_1.c ****                     if (0u != (UART_1_UART_CTS_PIN_ENABLE & uartEnableMask))
 627:.\Generated_Source\PSoC4/UART_1.c ****                     {
 628:.\Generated_Source\PSoC4/UART_1.c ****                         /* CTS input is multiplexed with SCLK */
 629:.\Generated_Source\PSoC4/UART_1.c ****                         hsiomSel[UART_1_SCLK_PIN_INDEX] = UART_1_HSIOM_UART_SEL;
 630:.\Generated_Source\PSoC4/UART_1.c ****                         pinsDm  [UART_1_SCLK_PIN_INDEX] = UART_1_PIN_DM_DIG_HIZ;
 631:.\Generated_Source\PSoC4/UART_1.c ****                     }
 632:.\Generated_Source\PSoC4/UART_1.c **** 
 633:.\Generated_Source\PSoC4/UART_1.c ****                     if (0u != (UART_1_UART_RTS_PIN_ENABLE & uartEnableMask))
 634:.\Generated_Source\PSoC4/UART_1.c ****                     {
 635:.\Generated_Source\PSoC4/UART_1.c ****                         /* RTS output is multiplexed with SS0 */
 636:.\Generated_Source\PSoC4/UART_1.c ****                         hsiomSel[UART_1_SS0_PIN_INDEX] = UART_1_HSIOM_UART_SEL;
 637:.\Generated_Source\PSoC4/UART_1.c ****                         pinsDm  [UART_1_SS0_PIN_INDEX] = UART_1_PIN_DM_STRONG;
 638:.\Generated_Source\PSoC4/UART_1.c **** 
 639:.\Generated_Source\PSoC4/UART_1.c ****                     #if (UART_1_SS0_PIN)
 640:.\Generated_Source\PSoC4/UART_1.c ****                         /* Disable input buffer */
 641:.\Generated_Source\PSoC4/UART_1.c ****                         pinsInBuf |= UART_1_SS0_PIN_MASK;
 642:.\Generated_Source\PSoC4/UART_1.c ****                     #endif /* (UART_1_SS0_PIN) */
 643:.\Generated_Source\PSoC4/UART_1.c ****                     }
 644:.\Generated_Source\PSoC4/UART_1.c ****                 }
 645:.\Generated_Source\PSoC4/UART_1.c ****             #endif /* !(UART_1_CY_SCBIP_V0 || UART_1_CY_SCBIP_V1) */
 646:.\Generated_Source\PSoC4/UART_1.c ****             }
 647:.\Generated_Source\PSoC4/UART_1.c ****         }
 648:.\Generated_Source\PSoC4/UART_1.c ****     #endif /* (!UART_1_CY_SCBIP_V1) */
 649:.\Generated_Source\PSoC4/UART_1.c **** 
 650:.\Generated_Source\PSoC4/UART_1.c ****     /* Configure pins: set HSIOM, DM and InputBufEnable */
 651:.\Generated_Source\PSoC4/UART_1.c ****     /* Note: the DR register settings do not effect the pin output if HSIOM is other than GPIO */
 652:.\Generated_Source\PSoC4/UART_1.c **** 
 653:.\Generated_Source\PSoC4/UART_1.c ****     #if (UART_1_RX_WAKE_SCL_MOSI_PIN)
 654:.\Generated_Source\PSoC4/UART_1.c ****         UART_1_SET_HSIOM_SEL(UART_1_RX_WAKE_SCL_MOSI_HSIOM_REG,
 655:.\Generated_Source\PSoC4/UART_1.c ****                                        UART_1_RX_WAKE_SCL_MOSI_HSIOM_MASK,
 656:.\Generated_Source\PSoC4/UART_1.c ****                                        UART_1_RX_WAKE_SCL_MOSI_HSIOM_POS,
 657:.\Generated_Source\PSoC4/UART_1.c ****                                        hsiomSel[UART_1_RX_WAKE_SCL_MOSI_PIN_INDEX]);
 658:.\Generated_Source\PSoC4/UART_1.c **** 
 659:.\Generated_Source\PSoC4/UART_1.c ****         UART_1_uart_rx_wake_i2c_scl_spi_mosi_SetDriveMode((uint8)
 660:.\Generated_Source\PSoC4/UART_1.c ****                                                                pinsDm[UART_1_RX_WAKE_SCL_MOSI_PIN_I
ARM GAS  C:\Users\Marcelo\AppData\Local\Temp\ccKEfGLG.s 			page 23


 661:.\Generated_Source\PSoC4/UART_1.c **** 
 662:.\Generated_Source\PSoC4/UART_1.c ****         UART_1_SET_INP_DIS(UART_1_uart_rx_wake_i2c_scl_spi_mosi_INP_DIS,
 663:.\Generated_Source\PSoC4/UART_1.c ****                                      UART_1_uart_rx_wake_i2c_scl_spi_mosi_MASK,
 664:.\Generated_Source\PSoC4/UART_1.c ****                                      (0u != (pinsInBuf & UART_1_RX_WAKE_SCL_MOSI_PIN_MASK)));
 665:.\Generated_Source\PSoC4/UART_1.c **** 
 666:.\Generated_Source\PSoC4/UART_1.c ****          /* Set interrupt on falling edge */
 667:.\Generated_Source\PSoC4/UART_1.c ****         UART_1_SET_INCFG_TYPE(UART_1_RX_WAKE_SCL_MOSI_INTCFG_REG,
 668:.\Generated_Source\PSoC4/UART_1.c ****                                         UART_1_RX_WAKE_SCL_MOSI_INTCFG_TYPE_MASK,
 669:.\Generated_Source\PSoC4/UART_1.c ****                                         UART_1_RX_WAKE_SCL_MOSI_INTCFG_TYPE_POS,
 670:.\Generated_Source\PSoC4/UART_1.c ****                                         UART_1_INTCFG_TYPE_FALLING_EDGE);
 671:.\Generated_Source\PSoC4/UART_1.c ****     #endif /* (UART_1_RX_WAKE_SCL_MOSI_PIN) */
 672:.\Generated_Source\PSoC4/UART_1.c **** 
 673:.\Generated_Source\PSoC4/UART_1.c ****     #if (UART_1_RX_SCL_MOSI_PIN)
 674:.\Generated_Source\PSoC4/UART_1.c ****         UART_1_SET_HSIOM_SEL(UART_1_RX_SCL_MOSI_HSIOM_REG,
 551              		.loc 1 674 0
 552 0086 1A4B     		ldr	r3, .L56
 553 0088 1968     		ldr	r1, [r3]
 554 008a 1A4A     		ldr	r2, .L56+4
 555              	.LVL42:
 556 008c 0A40     		and	r2, r1
 557 008e 079E     		ldr	r6, [sp, #28]
 558 0090 3104     		lsl	r1, r6, #16
 559 0092 0A43     		orr	r2, r1
 560 0094 1A60     		str	r2, [r3]
 675:.\Generated_Source\PSoC4/UART_1.c ****                                        UART_1_RX_SCL_MOSI_HSIOM_MASK,
 676:.\Generated_Source\PSoC4/UART_1.c ****                                        UART_1_RX_SCL_MOSI_HSIOM_POS,
 677:.\Generated_Source\PSoC4/UART_1.c ****                                         hsiomSel[UART_1_RX_SCL_MOSI_PIN_INDEX]);
 678:.\Generated_Source\PSoC4/UART_1.c **** 
 679:.\Generated_Source\PSoC4/UART_1.c ****         UART_1_uart_rx_i2c_scl_spi_mosi_SetDriveMode((uint8) pinsDm[UART_1_RX_SCL_MOSI_PIN_INDEX]);
 561              		.loc 1 679 0
 562 0096 0099     		ldr	r1, [sp]
 563 0098 C8B2     		uxtb	r0, r1
 564 009a FFF7FEFF 		bl	UART_1_uart_rx_i2c_scl_spi_mosi_SetDriveMode
 565              	.LVL43:
 680:.\Generated_Source\PSoC4/UART_1.c **** 
 681:.\Generated_Source\PSoC4/UART_1.c ****     #if (!UART_1_CY_SCBIP_V1)
 682:.\Generated_Source\PSoC4/UART_1.c ****         UART_1_SET_INP_DIS(UART_1_uart_rx_i2c_scl_spi_mosi_INP_DIS,
 566              		.loc 1 682 0
 567 009e E307     		lsl	r3, r4, #31
 568 00a0 05D5     		bpl	.L51
 569              		.loc 1 682 0 is_stmt 0 discriminator 1
 570 00a2 154B     		ldr	r3, .L56+8
 571 00a4 1968     		ldr	r1, [r3]
 572 00a6 1022     		mov	r2, #16
 573 00a8 0A43     		orr	r2, r1
 574 00aa 1A60     		str	r2, [r3]
 575 00ac 04E0     		b	.L52
 576              	.L51:
 577              		.loc 1 682 0 discriminator 2
 578 00ae 124B     		ldr	r3, .L56+8
 579 00b0 1A68     		ldr	r2, [r3]
 580 00b2 1021     		mov	r1, #16
 581 00b4 8A43     		bic	r2, r1
 582 00b6 1A60     		str	r2, [r3]
 583              	.L52:
 683:.\Generated_Source\PSoC4/UART_1.c ****                                      UART_1_uart_rx_i2c_scl_spi_mosi_MASK,
 684:.\Generated_Source\PSoC4/UART_1.c ****                                      (0u != (pinsInBuf & UART_1_RX_SCL_MOSI_PIN_MASK)));
ARM GAS  C:\Users\Marcelo\AppData\Local\Temp\ccKEfGLG.s 			page 24


 685:.\Generated_Source\PSoC4/UART_1.c ****     #endif /* (!UART_1_CY_SCBIP_V1) */
 686:.\Generated_Source\PSoC4/UART_1.c ****     #endif /* (UART_1_RX_SCL_MOSI_PIN) */
 687:.\Generated_Source\PSoC4/UART_1.c **** 
 688:.\Generated_Source\PSoC4/UART_1.c ****     #if (UART_1_TX_SDA_MISO_PIN)
 689:.\Generated_Source\PSoC4/UART_1.c ****         UART_1_SET_HSIOM_SEL(UART_1_TX_SDA_MISO_HSIOM_REG,
 584              		.loc 1 689 0 is_stmt 1
 585 00b8 0D4B     		ldr	r3, .L56
 586 00ba 1968     		ldr	r1, [r3]
 587 00bc 0F4A     		ldr	r2, .L56+12
 588 00be 0A40     		and	r2, r1
 589 00c0 089E     		ldr	r6, [sp, #32]
 590 00c2 3105     		lsl	r1, r6, #20
 591 00c4 0A43     		orr	r2, r1
 592 00c6 1A60     		str	r2, [r3]
 690:.\Generated_Source\PSoC4/UART_1.c ****                                        UART_1_TX_SDA_MISO_HSIOM_MASK,
 691:.\Generated_Source\PSoC4/UART_1.c ****                                        UART_1_TX_SDA_MISO_HSIOM_POS,
 692:.\Generated_Source\PSoC4/UART_1.c ****                                         hsiomSel[UART_1_TX_SDA_MISO_PIN_INDEX]);
 693:.\Generated_Source\PSoC4/UART_1.c **** 
 694:.\Generated_Source\PSoC4/UART_1.c ****         UART_1_uart_tx_i2c_sda_spi_miso_SetDriveMode((uint8) pinsDm[UART_1_TX_SDA_MISO_PIN_INDEX]);
 593              		.loc 1 694 0
 594 00c8 0199     		ldr	r1, [sp, #4]
 595 00ca C8B2     		uxtb	r0, r1
 596 00cc FFF7FEFF 		bl	UART_1_uart_tx_i2c_sda_spi_miso_SetDriveMode
 597              	.LVL44:
 695:.\Generated_Source\PSoC4/UART_1.c **** 
 696:.\Generated_Source\PSoC4/UART_1.c ****     #if (!UART_1_CY_SCBIP_V1)
 697:.\Generated_Source\PSoC4/UART_1.c ****         UART_1_SET_INP_DIS(UART_1_uart_tx_i2c_sda_spi_miso_INP_DIS,
 598              		.loc 1 697 0
 599 00d0 0223     		mov	r3, #2
 600 00d2 2342     		tst	r3, r4
 601 00d4 05D0     		beq	.L53
 602              		.loc 1 697 0 is_stmt 0 discriminator 1
 603 00d6 084B     		ldr	r3, .L56+8
 604 00d8 1968     		ldr	r1, [r3]
 605 00da 2022     		mov	r2, #32
 606 00dc 0A43     		orr	r2, r1
 607 00de 1A60     		str	r2, [r3]
 608 00e0 04E0     		b	.L41
 609              	.L53:
 610              		.loc 1 697 0 discriminator 2
 611 00e2 054B     		ldr	r3, .L56+8
 612 00e4 1A68     		ldr	r2, [r3]
 613 00e6 2021     		mov	r1, #32
 614 00e8 8A43     		bic	r2, r1
 615 00ea 1A60     		str	r2, [r3]
 616              	.L41:
 698:.\Generated_Source\PSoC4/UART_1.c ****                                      UART_1_uart_tx_i2c_sda_spi_miso_MASK,
 699:.\Generated_Source\PSoC4/UART_1.c ****                                     (0u != (pinsInBuf & UART_1_TX_SDA_MISO_PIN_MASK)));
 700:.\Generated_Source\PSoC4/UART_1.c ****     #endif /* (!UART_1_CY_SCBIP_V1) */
 701:.\Generated_Source\PSoC4/UART_1.c ****     #endif /* (UART_1_RX_SCL_MOSI_PIN) */
 702:.\Generated_Source\PSoC4/UART_1.c **** 
 703:.\Generated_Source\PSoC4/UART_1.c ****     #if (UART_1_SCLK_PIN)
 704:.\Generated_Source\PSoC4/UART_1.c ****         UART_1_SET_HSIOM_SEL(UART_1_SCLK_HSIOM_REG,
 705:.\Generated_Source\PSoC4/UART_1.c ****                                        UART_1_SCLK_HSIOM_MASK,
 706:.\Generated_Source\PSoC4/UART_1.c ****                                        UART_1_SCLK_HSIOM_POS,
 707:.\Generated_Source\PSoC4/UART_1.c ****                                        hsiomSel[UART_1_SCLK_PIN_INDEX]);
 708:.\Generated_Source\PSoC4/UART_1.c **** 
ARM GAS  C:\Users\Marcelo\AppData\Local\Temp\ccKEfGLG.s 			page 25


 709:.\Generated_Source\PSoC4/UART_1.c ****         UART_1_spi_sclk_SetDriveMode((uint8) pinsDm[UART_1_SCLK_PIN_INDEX]);
 710:.\Generated_Source\PSoC4/UART_1.c **** 
 711:.\Generated_Source\PSoC4/UART_1.c ****         UART_1_SET_INP_DIS(UART_1_spi_sclk_INP_DIS,
 712:.\Generated_Source\PSoC4/UART_1.c ****                                      UART_1_spi_sclk_MASK,
 713:.\Generated_Source\PSoC4/UART_1.c ****                                      (0u != (pinsInBuf & UART_1_SCLK_PIN_MASK)));
 714:.\Generated_Source\PSoC4/UART_1.c ****     #endif /* (UART_1_SCLK_PIN) */
 715:.\Generated_Source\PSoC4/UART_1.c **** 
 716:.\Generated_Source\PSoC4/UART_1.c ****     #if (UART_1_SS0_PIN)
 717:.\Generated_Source\PSoC4/UART_1.c ****         UART_1_SET_HSIOM_SEL(UART_1_SS0_HSIOM_REG,
 718:.\Generated_Source\PSoC4/UART_1.c ****                                        UART_1_SS0_HSIOM_MASK,
 719:.\Generated_Source\PSoC4/UART_1.c ****                                        UART_1_SS0_HSIOM_POS,
 720:.\Generated_Source\PSoC4/UART_1.c ****                                        hsiomSel[UART_1_SS0_PIN_INDEX]);
 721:.\Generated_Source\PSoC4/UART_1.c **** 
 722:.\Generated_Source\PSoC4/UART_1.c ****         UART_1_spi_ss0_SetDriveMode((uint8) pinsDm[UART_1_SS0_PIN_INDEX]);
 723:.\Generated_Source\PSoC4/UART_1.c **** 
 724:.\Generated_Source\PSoC4/UART_1.c ****         UART_1_SET_INP_DIS(UART_1_spi_ss0_INP_DIS,
 725:.\Generated_Source\PSoC4/UART_1.c ****                                      UART_1_spi_ss0_MASK,
 726:.\Generated_Source\PSoC4/UART_1.c ****                                      (0u != (pinsInBuf & UART_1_SS0_PIN_MASK)));
 727:.\Generated_Source\PSoC4/UART_1.c ****     #endif /* (UART_1_SS0_PIN) */
 728:.\Generated_Source\PSoC4/UART_1.c **** 
 729:.\Generated_Source\PSoC4/UART_1.c ****     #if (UART_1_SS1_PIN)
 730:.\Generated_Source\PSoC4/UART_1.c ****         UART_1_SET_HSIOM_SEL(UART_1_SS1_HSIOM_REG,
 731:.\Generated_Source\PSoC4/UART_1.c ****                                        UART_1_SS1_HSIOM_MASK,
 732:.\Generated_Source\PSoC4/UART_1.c ****                                        UART_1_SS1_HSIOM_POS,
 733:.\Generated_Source\PSoC4/UART_1.c ****                                        hsiomSel[UART_1_SS1_PIN_INDEX]);
 734:.\Generated_Source\PSoC4/UART_1.c **** 
 735:.\Generated_Source\PSoC4/UART_1.c ****         UART_1_spi_ss1_SetDriveMode((uint8) pinsDm[UART_1_SS1_PIN_INDEX]);
 736:.\Generated_Source\PSoC4/UART_1.c **** 
 737:.\Generated_Source\PSoC4/UART_1.c ****         UART_1_SET_INP_DIS(UART_1_spi_ss1_INP_DIS,
 738:.\Generated_Source\PSoC4/UART_1.c ****                                      UART_1_spi_ss1_MASK,
 739:.\Generated_Source\PSoC4/UART_1.c ****                                      (0u != (pinsInBuf & UART_1_SS1_PIN_MASK)));
 740:.\Generated_Source\PSoC4/UART_1.c ****     #endif /* (UART_1_SS1_PIN) */
 741:.\Generated_Source\PSoC4/UART_1.c **** 
 742:.\Generated_Source\PSoC4/UART_1.c ****     #if (UART_1_SS2_PIN)
 743:.\Generated_Source\PSoC4/UART_1.c ****         UART_1_SET_HSIOM_SEL(UART_1_SS2_HSIOM_REG,
 744:.\Generated_Source\PSoC4/UART_1.c ****                                        UART_1_SS2_HSIOM_MASK,
 745:.\Generated_Source\PSoC4/UART_1.c ****                                        UART_1_SS2_HSIOM_POS,
 746:.\Generated_Source\PSoC4/UART_1.c ****                                        hsiomSel[UART_1_SS2_PIN_INDEX]);
 747:.\Generated_Source\PSoC4/UART_1.c **** 
 748:.\Generated_Source\PSoC4/UART_1.c ****         UART_1_spi_ss2_SetDriveMode((uint8) pinsDm[UART_1_SS2_PIN_INDEX]);
 749:.\Generated_Source\PSoC4/UART_1.c **** 
 750:.\Generated_Source\PSoC4/UART_1.c ****         UART_1_SET_INP_DIS(UART_1_spi_ss2_INP_DIS,
 751:.\Generated_Source\PSoC4/UART_1.c ****                                      UART_1_spi_ss2_MASK,
 752:.\Generated_Source\PSoC4/UART_1.c ****                                      (0u != (pinsInBuf & UART_1_SS2_PIN_MASK)));
 753:.\Generated_Source\PSoC4/UART_1.c ****     #endif /* (UART_1_SS2_PIN) */
 754:.\Generated_Source\PSoC4/UART_1.c **** 
 755:.\Generated_Source\PSoC4/UART_1.c ****     #if (UART_1_SS3_PIN)
 756:.\Generated_Source\PSoC4/UART_1.c ****         UART_1_SET_HSIOM_SEL(UART_1_SS3_HSIOM_REG,
 757:.\Generated_Source\PSoC4/UART_1.c ****                                        UART_1_SS3_HSIOM_MASK,
 758:.\Generated_Source\PSoC4/UART_1.c ****                                        UART_1_SS3_HSIOM_POS,
 759:.\Generated_Source\PSoC4/UART_1.c ****                                        hsiomSel[UART_1_SS3_PIN_INDEX]);
 760:.\Generated_Source\PSoC4/UART_1.c **** 
 761:.\Generated_Source\PSoC4/UART_1.c ****         UART_1_spi_ss3_SetDriveMode((uint8) pinsDm[UART_1_SS3_PIN_INDEX]);
 762:.\Generated_Source\PSoC4/UART_1.c **** 
 763:.\Generated_Source\PSoC4/UART_1.c ****         UART_1_SET_INP_DIS(UART_1_spi_ss3_INP_DIS,
 764:.\Generated_Source\PSoC4/UART_1.c ****                                      UART_1_spi_ss3_MASK,
 765:.\Generated_Source\PSoC4/UART_1.c ****                                      (0u != (pinsInBuf & UART_1_SS3_PIN_MASK)));
ARM GAS  C:\Users\Marcelo\AppData\Local\Temp\ccKEfGLG.s 			page 26


 766:.\Generated_Source\PSoC4/UART_1.c ****     #endif /* (UART_1_SS3_PIN) */
 767:.\Generated_Source\PSoC4/UART_1.c ****     }
 617              		.loc 1 767 0 is_stmt 1
 618 00ec 0EB0     		add	sp, sp, #56
 619              		@ sp needed
 620              	.LVL45:
 621 00ee 70BD     		pop	{r4, r5, r6, pc}
 622              	.L57:
 623              		.align	2
 624              	.L56:
 625 00f0 00000140 		.word	1073807360
 626 00f4 FFFFF0FF 		.word	-983041
 627 00f8 18000440 		.word	1074003992
 628 00fc FFFF0FFF 		.word	-15728641
 629              		.cfi_endproc
 630              	.LFE10:
 631              		.size	UART_1_SetPins, .-UART_1_SetPins
 632              		.section	.text.UART_1_I2CSlaveNackGeneration,"ax",%progbits
 633              		.align	2
 634              		.global	UART_1_I2CSlaveNackGeneration
 635              		.code	16
 636              		.thumb_func
 637              		.type	UART_1_I2CSlaveNackGeneration, %function
 638              	UART_1_I2CSlaveNackGeneration:
 639              	.LFB11:
 768:.\Generated_Source\PSoC4/UART_1.c **** 
 769:.\Generated_Source\PSoC4/UART_1.c **** #endif /* (UART_1_SCB_MODE_UNCONFIG_CONST_CFG) */
 770:.\Generated_Source\PSoC4/UART_1.c **** 
 771:.\Generated_Source\PSoC4/UART_1.c **** 
 772:.\Generated_Source\PSoC4/UART_1.c **** #if (UART_1_CY_SCBIP_V0 || UART_1_CY_SCBIP_V1)
 773:.\Generated_Source\PSoC4/UART_1.c ****     /*******************************************************************************
 774:.\Generated_Source\PSoC4/UART_1.c ****     * Function Name: UART_1_I2CSlaveNackGeneration
 775:.\Generated_Source\PSoC4/UART_1.c ****     ********************************************************************************
 776:.\Generated_Source\PSoC4/UART_1.c ****     *
 777:.\Generated_Source\PSoC4/UART_1.c ****     * Summary:
 778:.\Generated_Source\PSoC4/UART_1.c ****     *  Sets command to generate NACK to the address or data.
 779:.\Generated_Source\PSoC4/UART_1.c ****     *
 780:.\Generated_Source\PSoC4/UART_1.c ****     * Parameters:
 781:.\Generated_Source\PSoC4/UART_1.c ****     *  None
 782:.\Generated_Source\PSoC4/UART_1.c ****     *
 783:.\Generated_Source\PSoC4/UART_1.c ****     * Return:
 784:.\Generated_Source\PSoC4/UART_1.c ****     *  None
 785:.\Generated_Source\PSoC4/UART_1.c ****     *
 786:.\Generated_Source\PSoC4/UART_1.c ****     *******************************************************************************/
 787:.\Generated_Source\PSoC4/UART_1.c ****     void UART_1_I2CSlaveNackGeneration(void)
 788:.\Generated_Source\PSoC4/UART_1.c ****     {
 640              		.loc 1 788 0
 641              		.cfi_startproc
 789:.\Generated_Source\PSoC4/UART_1.c ****         /* Check for EC_AM toggle condition: EC_AM and clock stretching for address are enabled */
 790:.\Generated_Source\PSoC4/UART_1.c ****         if ((0u != (UART_1_CTRL_REG & UART_1_CTRL_EC_AM_MODE)) &&
 642              		.loc 1 790 0
 643 0000 0A4B     		ldr	r3, .L60
 644 0002 1B68     		ldr	r3, [r3]
 645 0004 DA05     		lsl	r2, r3, #23
 646 0006 0DD5     		bpl	.L59
 791:.\Generated_Source\PSoC4/UART_1.c ****             (0u == (UART_1_I2C_CTRL_REG & UART_1_I2C_CTRL_S_NOT_READY_ADDR_NACK)))
 647              		.loc 1 791 0 discriminator 1
ARM GAS  C:\Users\Marcelo\AppData\Local\Temp\ccKEfGLG.s 			page 27


 648 0008 094B     		ldr	r3, .L60+4
 649 000a 1B68     		ldr	r3, [r3]
 790:.\Generated_Source\PSoC4/UART_1.c ****         if ((0u != (UART_1_CTRL_REG & UART_1_CTRL_EC_AM_MODE)) &&
 650              		.loc 1 790 0 discriminator 1
 651 000c 5A04     		lsl	r2, r3, #17
 652 000e 09D4     		bmi	.L59
 792:.\Generated_Source\PSoC4/UART_1.c ****         {
 793:.\Generated_Source\PSoC4/UART_1.c ****             /* Toggle EC_AM before NACK generation */
 794:.\Generated_Source\PSoC4/UART_1.c ****             UART_1_CTRL_REG &= ~UART_1_CTRL_EC_AM_MODE;
 653              		.loc 1 794 0
 654 0010 064B     		ldr	r3, .L60
 655 0012 1968     		ldr	r1, [r3]
 656 0014 074A     		ldr	r2, .L60+8
 657 0016 0A40     		and	r2, r1
 658 0018 1A60     		str	r2, [r3]
 795:.\Generated_Source\PSoC4/UART_1.c ****             UART_1_CTRL_REG |=  UART_1_CTRL_EC_AM_MODE;
 659              		.loc 1 795 0
 660 001a 1968     		ldr	r1, [r3]
 661 001c 8022     		mov	r2, #128
 662 001e 5200     		lsl	r2, r2, #1
 663 0020 0A43     		orr	r2, r1
 664 0022 1A60     		str	r2, [r3]
 665              	.L59:
 796:.\Generated_Source\PSoC4/UART_1.c ****         }
 797:.\Generated_Source\PSoC4/UART_1.c **** 
 798:.\Generated_Source\PSoC4/UART_1.c ****         UART_1_I2C_SLAVE_CMD_REG = UART_1_I2C_SLAVE_CMD_S_NACK;
 666              		.loc 1 798 0
 667 0024 0222     		mov	r2, #2
 668 0026 044B     		ldr	r3, .L60+12
 669 0028 1A60     		str	r2, [r3]
 799:.\Generated_Source\PSoC4/UART_1.c ****     }
 670              		.loc 1 799 0
 671              		@ sp needed
 672 002a 7047     		bx	lr
 673              	.L61:
 674              		.align	2
 675              	.L60:
 676 002c 00000740 		.word	1074200576
 677 0030 60000740 		.word	1074200672
 678 0034 FFFEFFFF 		.word	-257
 679 0038 6C000740 		.word	1074200684
 680              		.cfi_endproc
 681              	.LFE11:
 682              		.size	UART_1_I2CSlaveNackGeneration, .-UART_1_I2CSlaveNackGeneration
 683              		.global	UART_1_customIntrHandler
 684              		.global	UART_1_initVar
 685              		.comm	UART_1_subAddrSize,1,1
 686              		.comm	UART_1_numberOfAddr,1,1
 687              		.comm	UART_1_txBufferSize,4,4
 688              		.comm	UART_1_txDataBits,1,1
 689              		.comm	UART_1_txBuffer,4,4
 690              		.comm	UART_1_rxBufferSize,4,4
 691              		.comm	UART_1_rxDataBits,1,1
 692              		.comm	UART_1_rxBuffer,4,4
 693              		.comm	UART_1_acceptAddr,1,1
 694              		.comm	UART_1_mode,1,1
 695              		.comm	UART_1_scbEnableIntr,1,1
ARM GAS  C:\Users\Marcelo\AppData\Local\Temp\ccKEfGLG.s 			page 28


 696              		.comm	UART_1_scbEnableWake,1,1
 697              		.global	UART_1_scbMode
 698              		.data
 699              		.set	.LANCHOR0,. + 0
 700              		.type	UART_1_scbMode, %object
 701              		.size	UART_1_scbMode, 1
 702              	UART_1_scbMode:
 703 0000 FF       		.byte	-1
 704              		.bss
 705              		.align	2
 706              		.set	.LANCHOR1,. + 0
 707              		.type	UART_1_initVar, %object
 708              		.size	UART_1_initVar, 1
 709              	UART_1_initVar:
 710 0000 00       		.space	1
 711 0001 000000   		.space	3
 712              		.type	UART_1_customIntrHandler, %object
 713              		.size	UART_1_customIntrHandler, 4
 714              	UART_1_customIntrHandler:
 715 0004 00000000 		.space	4
 716              		.text
 717              	.Letext0:
 718              		.file 2 "Generated_Source\\PSoC4/cytypes.h"
 719              		.file 3 ".\\Generated_Source\\PSoC4\\UART_1_SPI_UART_PVT.h"
 720              		.file 4 ".\\Generated_Source\\PSoC4\\UART_1_I2C_PVT.h"
 721              		.file 5 ".\\Generated_Source\\PSoC4\\UART_1_EZI2C_PVT.h"
 722              		.file 6 "Generated_Source\\PSoC4/CyLib.h"
 723              		.file 7 ".\\Generated_Source\\PSoC4\\UART_1_uart_rx_i2c_scl_spi_mosi.h"
 724              		.file 8 ".\\Generated_Source\\PSoC4\\UART_1_uart_tx_i2c_sda_spi_miso.h"