ARM GAS  C:\Users\Marcelo\AppData\Local\Temp\ccDtxF2N.s 			page 1


   1              		.cpu cortex-m0
   2              		.fpu softvfp
   3              		.eabi_attribute 20, 1
   4              		.eabi_attribute 21, 1
   5              		.eabi_attribute 23, 3
   6              		.eabi_attribute 24, 1
   7              		.eabi_attribute 25, 1
   8              		.eabi_attribute 26, 1
   9              		.eabi_attribute 30, 1
  10              		.eabi_attribute 34, 0
  11              		.eabi_attribute 18, 4
  12              		.code	16
  13              		.file	"UART_1_SPI_UART.c"
  14              		.text
  15              	.Ltext0:
  16              		.cfi_sections	.debug_frame
  17              		.section	.text.UART_1_SpiUartGetRxBufferSize,"ax",%progbits
  18              		.align	2
  19              		.global	UART_1_SpiUartGetRxBufferSize
  20              		.code	16
  21              		.thumb_func
  22              		.type	UART_1_SpiUartGetRxBufferSize, %function
  23              	UART_1_SpiUartGetRxBufferSize:
  24              	.LFB1:
  25              		.file 1 ".\\Generated_Source\\PSoC4\\UART_1_SPI_UART.c"
   1:.\Generated_Source\PSoC4/UART_1_SPI_UART.c **** /*******************************************************************************
   2:.\Generated_Source\PSoC4/UART_1_SPI_UART.c **** * File Name: UART_1_SPI_UART.c
   3:.\Generated_Source\PSoC4/UART_1_SPI_UART.c **** * Version 3.0
   4:.\Generated_Source\PSoC4/UART_1_SPI_UART.c **** *
   5:.\Generated_Source\PSoC4/UART_1_SPI_UART.c **** * Description:
   6:.\Generated_Source\PSoC4/UART_1_SPI_UART.c **** *  This file provides the source code to the API for the SCB Component in
   7:.\Generated_Source\PSoC4/UART_1_SPI_UART.c **** *  SPI and UART modes.
   8:.\Generated_Source\PSoC4/UART_1_SPI_UART.c **** *
   9:.\Generated_Source\PSoC4/UART_1_SPI_UART.c **** * Note:
  10:.\Generated_Source\PSoC4/UART_1_SPI_UART.c **** *
  11:.\Generated_Source\PSoC4/UART_1_SPI_UART.c **** *******************************************************************************
  12:.\Generated_Source\PSoC4/UART_1_SPI_UART.c **** * Copyright 2013-2015, Cypress Semiconductor Corporation.  All rights reserved.
  13:.\Generated_Source\PSoC4/UART_1_SPI_UART.c **** * You may use this file only in accordance with the license, terms, conditions,
  14:.\Generated_Source\PSoC4/UART_1_SPI_UART.c **** * disclaimers, and limitations in the end user license agreement accompanying
  15:.\Generated_Source\PSoC4/UART_1_SPI_UART.c **** * the software package with which this file was provided.
  16:.\Generated_Source\PSoC4/UART_1_SPI_UART.c **** *******************************************************************************/
  17:.\Generated_Source\PSoC4/UART_1_SPI_UART.c **** 
  18:.\Generated_Source\PSoC4/UART_1_SPI_UART.c **** #include "UART_1_PVT.h"
  19:.\Generated_Source\PSoC4/UART_1_SPI_UART.c **** #include "UART_1_SPI_UART_PVT.h"
  20:.\Generated_Source\PSoC4/UART_1_SPI_UART.c **** 
  21:.\Generated_Source\PSoC4/UART_1_SPI_UART.c **** /***************************************
  22:.\Generated_Source\PSoC4/UART_1_SPI_UART.c **** *        SPI/UART Private Vars
  23:.\Generated_Source\PSoC4/UART_1_SPI_UART.c **** ***************************************/
  24:.\Generated_Source\PSoC4/UART_1_SPI_UART.c **** 
  25:.\Generated_Source\PSoC4/UART_1_SPI_UART.c **** #if(UART_1_INTERNAL_RX_SW_BUFFER_CONST)
  26:.\Generated_Source\PSoC4/UART_1_SPI_UART.c ****     volatile uint32 UART_1_rxBufferHead;
  27:.\Generated_Source\PSoC4/UART_1_SPI_UART.c ****     volatile uint32 UART_1_rxBufferTail;
  28:.\Generated_Source\PSoC4/UART_1_SPI_UART.c ****     volatile uint8  UART_1_rxBufferOverflow;
  29:.\Generated_Source\PSoC4/UART_1_SPI_UART.c **** #endif /* (UART_1_INTERNAL_RX_SW_BUFFER_CONST) */
  30:.\Generated_Source\PSoC4/UART_1_SPI_UART.c **** 
  31:.\Generated_Source\PSoC4/UART_1_SPI_UART.c **** #if(UART_1_INTERNAL_TX_SW_BUFFER_CONST)
  32:.\Generated_Source\PSoC4/UART_1_SPI_UART.c ****     volatile uint32 UART_1_txBufferHead;
ARM GAS  C:\Users\Marcelo\AppData\Local\Temp\ccDtxF2N.s 			page 2


  33:.\Generated_Source\PSoC4/UART_1_SPI_UART.c ****     volatile uint32 UART_1_txBufferTail;
  34:.\Generated_Source\PSoC4/UART_1_SPI_UART.c **** #endif /* (UART_1_INTERNAL_TX_SW_BUFFER_CONST) */
  35:.\Generated_Source\PSoC4/UART_1_SPI_UART.c **** 
  36:.\Generated_Source\PSoC4/UART_1_SPI_UART.c **** #if(UART_1_INTERNAL_RX_SW_BUFFER)
  37:.\Generated_Source\PSoC4/UART_1_SPI_UART.c ****     /* Add one element to the buffer to receive full packet. One byte in receive buffer is always e
  38:.\Generated_Source\PSoC4/UART_1_SPI_UART.c ****     volatile uint8 UART_1_rxBufferInternal[UART_1_INTERNAL_RX_BUFFER_SIZE];
  39:.\Generated_Source\PSoC4/UART_1_SPI_UART.c **** #endif /* (UART_1_INTERNAL_RX_SW_BUFFER) */
  40:.\Generated_Source\PSoC4/UART_1_SPI_UART.c **** 
  41:.\Generated_Source\PSoC4/UART_1_SPI_UART.c **** #if(UART_1_INTERNAL_TX_SW_BUFFER)
  42:.\Generated_Source\PSoC4/UART_1_SPI_UART.c ****     volatile uint8 UART_1_txBufferInternal[UART_1_TX_BUFFER_SIZE];
  43:.\Generated_Source\PSoC4/UART_1_SPI_UART.c **** #endif /* (UART_1_INTERNAL_TX_SW_BUFFER) */
  44:.\Generated_Source\PSoC4/UART_1_SPI_UART.c **** 
  45:.\Generated_Source\PSoC4/UART_1_SPI_UART.c **** 
  46:.\Generated_Source\PSoC4/UART_1_SPI_UART.c **** #if(UART_1_RX_DIRECTION)
  47:.\Generated_Source\PSoC4/UART_1_SPI_UART.c ****     /*******************************************************************************
  48:.\Generated_Source\PSoC4/UART_1_SPI_UART.c ****     * Function Name: UART_1_SpiUartReadRxData
  49:.\Generated_Source\PSoC4/UART_1_SPI_UART.c ****     ********************************************************************************
  50:.\Generated_Source\PSoC4/UART_1_SPI_UART.c ****     *
  51:.\Generated_Source\PSoC4/UART_1_SPI_UART.c ****     * Summary:
  52:.\Generated_Source\PSoC4/UART_1_SPI_UART.c ****     *  Retrieves the next data element from the receive buffer.
  53:.\Generated_Source\PSoC4/UART_1_SPI_UART.c ****     *   - RX software buffer is disabled: Returns data element retrieved from
  54:.\Generated_Source\PSoC4/UART_1_SPI_UART.c ****     *     RX FIFO. Undefined data will be returned if the RX FIFO is empty.
  55:.\Generated_Source\PSoC4/UART_1_SPI_UART.c ****     *   - RX software buffer is enabled: Returns data element from the software
  56:.\Generated_Source\PSoC4/UART_1_SPI_UART.c ****     *     receive buffer. Zero value is returned if the software receive buffer
  57:.\Generated_Source\PSoC4/UART_1_SPI_UART.c ****     *     is empty.
  58:.\Generated_Source\PSoC4/UART_1_SPI_UART.c ****     *
  59:.\Generated_Source\PSoC4/UART_1_SPI_UART.c ****     * Parameters:
  60:.\Generated_Source\PSoC4/UART_1_SPI_UART.c ****     *  None
  61:.\Generated_Source\PSoC4/UART_1_SPI_UART.c ****     *
  62:.\Generated_Source\PSoC4/UART_1_SPI_UART.c ****     * Return:
  63:.\Generated_Source\PSoC4/UART_1_SPI_UART.c ****     *  Next data element from the receive buffer.
  64:.\Generated_Source\PSoC4/UART_1_SPI_UART.c ****     *
  65:.\Generated_Source\PSoC4/UART_1_SPI_UART.c ****     * Global Variables:
  66:.\Generated_Source\PSoC4/UART_1_SPI_UART.c ****     *  Look into UART_1_SpiInit for description.
  67:.\Generated_Source\PSoC4/UART_1_SPI_UART.c ****     *
  68:.\Generated_Source\PSoC4/UART_1_SPI_UART.c ****     *******************************************************************************/
  69:.\Generated_Source\PSoC4/UART_1_SPI_UART.c ****     uint32 UART_1_SpiUartReadRxData(void)
  70:.\Generated_Source\PSoC4/UART_1_SPI_UART.c ****     {
  71:.\Generated_Source\PSoC4/UART_1_SPI_UART.c ****         uint32 rxData = 0u;
  72:.\Generated_Source\PSoC4/UART_1_SPI_UART.c **** 
  73:.\Generated_Source\PSoC4/UART_1_SPI_UART.c ****     #if (UART_1_INTERNAL_RX_SW_BUFFER_CONST)
  74:.\Generated_Source\PSoC4/UART_1_SPI_UART.c ****         uint32 locTail;
  75:.\Generated_Source\PSoC4/UART_1_SPI_UART.c ****     #endif /* (UART_1_INTERNAL_RX_SW_BUFFER_CONST) */
  76:.\Generated_Source\PSoC4/UART_1_SPI_UART.c **** 
  77:.\Generated_Source\PSoC4/UART_1_SPI_UART.c ****         if (UART_1_CHECK_RX_SW_BUFFER)
  78:.\Generated_Source\PSoC4/UART_1_SPI_UART.c ****         {
  79:.\Generated_Source\PSoC4/UART_1_SPI_UART.c ****             if (UART_1_rxBufferHead != UART_1_rxBufferTail)
  80:.\Generated_Source\PSoC4/UART_1_SPI_UART.c ****             {
  81:.\Generated_Source\PSoC4/UART_1_SPI_UART.c ****                 /* There is data in RX software buffer */
  82:.\Generated_Source\PSoC4/UART_1_SPI_UART.c **** 
  83:.\Generated_Source\PSoC4/UART_1_SPI_UART.c ****                 /* Calculate index to read from */
  84:.\Generated_Source\PSoC4/UART_1_SPI_UART.c ****                 locTail = (UART_1_rxBufferTail + 1u);
  85:.\Generated_Source\PSoC4/UART_1_SPI_UART.c **** 
  86:.\Generated_Source\PSoC4/UART_1_SPI_UART.c ****                 if (UART_1_INTERNAL_RX_BUFFER_SIZE == locTail)
  87:.\Generated_Source\PSoC4/UART_1_SPI_UART.c ****                 {
  88:.\Generated_Source\PSoC4/UART_1_SPI_UART.c ****                     locTail = 0u;
  89:.\Generated_Source\PSoC4/UART_1_SPI_UART.c ****                 }
ARM GAS  C:\Users\Marcelo\AppData\Local\Temp\ccDtxF2N.s 			page 3


  90:.\Generated_Source\PSoC4/UART_1_SPI_UART.c **** 
  91:.\Generated_Source\PSoC4/UART_1_SPI_UART.c ****                 /* Get data from RX software buffer */
  92:.\Generated_Source\PSoC4/UART_1_SPI_UART.c ****                 rxData = UART_1_GetWordFromRxBuffer(locTail);
  93:.\Generated_Source\PSoC4/UART_1_SPI_UART.c **** 
  94:.\Generated_Source\PSoC4/UART_1_SPI_UART.c ****                 /* Change index in the buffer */
  95:.\Generated_Source\PSoC4/UART_1_SPI_UART.c ****                 UART_1_rxBufferTail = locTail;
  96:.\Generated_Source\PSoC4/UART_1_SPI_UART.c **** 
  97:.\Generated_Source\PSoC4/UART_1_SPI_UART.c ****                 if (UART_1_CHECK_UART_RTS_CONTROL_FLOW)
  98:.\Generated_Source\PSoC4/UART_1_SPI_UART.c ****                 {
  99:.\Generated_Source\PSoC4/UART_1_SPI_UART.c ****                     /* Check if RX Not Empty is disabled in the interrupt */
 100:.\Generated_Source\PSoC4/UART_1_SPI_UART.c ****                     if (0u == (UART_1_INTR_RX_MASK_REG & UART_1_INTR_RX_NOT_EMPTY))
 101:.\Generated_Source\PSoC4/UART_1_SPI_UART.c ****                     {
 102:.\Generated_Source\PSoC4/UART_1_SPI_UART.c ****                         /* Enable RX Not Empty interrupt source to continue
 103:.\Generated_Source\PSoC4/UART_1_SPI_UART.c ****                         * receiving data into software buffer.
 104:.\Generated_Source\PSoC4/UART_1_SPI_UART.c ****                         */
 105:.\Generated_Source\PSoC4/UART_1_SPI_UART.c ****                         UART_1_INTR_RX_MASK_REG |= UART_1_INTR_RX_NOT_EMPTY;
 106:.\Generated_Source\PSoC4/UART_1_SPI_UART.c ****                     }
 107:.\Generated_Source\PSoC4/UART_1_SPI_UART.c ****                 }
 108:.\Generated_Source\PSoC4/UART_1_SPI_UART.c ****                 
 109:.\Generated_Source\PSoC4/UART_1_SPI_UART.c **** 
 110:.\Generated_Source\PSoC4/UART_1_SPI_UART.c ****             }
 111:.\Generated_Source\PSoC4/UART_1_SPI_UART.c ****         }
 112:.\Generated_Source\PSoC4/UART_1_SPI_UART.c ****         else
 113:.\Generated_Source\PSoC4/UART_1_SPI_UART.c ****         {
 114:.\Generated_Source\PSoC4/UART_1_SPI_UART.c ****             /* Read data from RX FIFO */
 115:.\Generated_Source\PSoC4/UART_1_SPI_UART.c ****             rxData = UART_1_RX_FIFO_RD_REG;
 116:.\Generated_Source\PSoC4/UART_1_SPI_UART.c ****         }
 117:.\Generated_Source\PSoC4/UART_1_SPI_UART.c ****         
 118:.\Generated_Source\PSoC4/UART_1_SPI_UART.c **** 
 119:.\Generated_Source\PSoC4/UART_1_SPI_UART.c ****         return (rxData);
 120:.\Generated_Source\PSoC4/UART_1_SPI_UART.c ****     }
 121:.\Generated_Source\PSoC4/UART_1_SPI_UART.c **** 
 122:.\Generated_Source\PSoC4/UART_1_SPI_UART.c **** 
 123:.\Generated_Source\PSoC4/UART_1_SPI_UART.c ****     /*******************************************************************************
 124:.\Generated_Source\PSoC4/UART_1_SPI_UART.c ****     * Function Name: UART_1_SpiUartGetRxBufferSize
 125:.\Generated_Source\PSoC4/UART_1_SPI_UART.c ****     ********************************************************************************
 126:.\Generated_Source\PSoC4/UART_1_SPI_UART.c ****     *
 127:.\Generated_Source\PSoC4/UART_1_SPI_UART.c ****     * Summary:
 128:.\Generated_Source\PSoC4/UART_1_SPI_UART.c ****     *  Returns the number of received data elements in the receive buffer.
 129:.\Generated_Source\PSoC4/UART_1_SPI_UART.c ****     *   - RX software buffer disabled: returns the number of used entries in
 130:.\Generated_Source\PSoC4/UART_1_SPI_UART.c ****     *     RX FIFO.
 131:.\Generated_Source\PSoC4/UART_1_SPI_UART.c ****     *   - RX software buffer enabled: returns the number of elements which were
 132:.\Generated_Source\PSoC4/UART_1_SPI_UART.c ****     *     placed in the receive buffer. This does not include the hardware RX FIFO.
 133:.\Generated_Source\PSoC4/UART_1_SPI_UART.c ****     *
 134:.\Generated_Source\PSoC4/UART_1_SPI_UART.c ****     * Parameters:
 135:.\Generated_Source\PSoC4/UART_1_SPI_UART.c ****     *  None
 136:.\Generated_Source\PSoC4/UART_1_SPI_UART.c ****     *
 137:.\Generated_Source\PSoC4/UART_1_SPI_UART.c ****     * Return:
 138:.\Generated_Source\PSoC4/UART_1_SPI_UART.c ****     *  Number of received data elements
 139:.\Generated_Source\PSoC4/UART_1_SPI_UART.c ****     *
 140:.\Generated_Source\PSoC4/UART_1_SPI_UART.c ****     *******************************************************************************/
 141:.\Generated_Source\PSoC4/UART_1_SPI_UART.c ****     uint32 UART_1_SpiUartGetRxBufferSize(void)
 142:.\Generated_Source\PSoC4/UART_1_SPI_UART.c ****     {
  26              		.loc 1 142 0
  27              		.cfi_startproc
 143:.\Generated_Source\PSoC4/UART_1_SPI_UART.c ****         uint32 size;
 144:.\Generated_Source\PSoC4/UART_1_SPI_UART.c ****     #if (UART_1_INTERNAL_RX_SW_BUFFER_CONST)
ARM GAS  C:\Users\Marcelo\AppData\Local\Temp\ccDtxF2N.s 			page 4


 145:.\Generated_Source\PSoC4/UART_1_SPI_UART.c ****         uint32 locHead;
 146:.\Generated_Source\PSoC4/UART_1_SPI_UART.c ****     #endif /* (UART_1_INTERNAL_RX_SW_BUFFER_CONST) */
 147:.\Generated_Source\PSoC4/UART_1_SPI_UART.c **** 
 148:.\Generated_Source\PSoC4/UART_1_SPI_UART.c ****         if (UART_1_CHECK_RX_SW_BUFFER)
  28              		.loc 1 148 0
  29 0000 0D4B     		ldr	r3, .L5
  30 0002 1B68     		ldr	r3, [r3]
  31 0004 002B     		cmp	r3, #0
  32 0006 11D0     		beq	.L2
 149:.\Generated_Source\PSoC4/UART_1_SPI_UART.c ****         {
 150:.\Generated_Source\PSoC4/UART_1_SPI_UART.c ****             locHead = UART_1_rxBufferHead;
  33              		.loc 1 150 0
  34 0008 0C4B     		ldr	r3, .L5+4
  35 000a 1B68     		ldr	r3, [r3]
  36              	.LVL0:
 151:.\Generated_Source\PSoC4/UART_1_SPI_UART.c **** 
 152:.\Generated_Source\PSoC4/UART_1_SPI_UART.c ****             if(locHead >= UART_1_rxBufferTail)
  37              		.loc 1 152 0
  38 000c 0C4A     		ldr	r2, .L5+8
  39 000e 1268     		ldr	r2, [r2]
  40 0010 9342     		cmp	r3, r2
  41 0012 03D3     		bcc	.L3
 153:.\Generated_Source\PSoC4/UART_1_SPI_UART.c ****             {
 154:.\Generated_Source\PSoC4/UART_1_SPI_UART.c ****                 size = (locHead - UART_1_rxBufferTail);
  42              		.loc 1 154 0
  43 0014 0A4A     		ldr	r2, .L5+8
  44 0016 1068     		ldr	r0, [r2]
  45 0018 181A     		sub	r0, r3, r0
  46              	.LVL1:
  47 001a 0BE0     		b	.L4
  48              	.LVL2:
  49              	.L3:
 155:.\Generated_Source\PSoC4/UART_1_SPI_UART.c ****             }
 156:.\Generated_Source\PSoC4/UART_1_SPI_UART.c ****             else
 157:.\Generated_Source\PSoC4/UART_1_SPI_UART.c ****             {
 158:.\Generated_Source\PSoC4/UART_1_SPI_UART.c ****                 size = (locHead + (UART_1_INTERNAL_RX_BUFFER_SIZE - UART_1_rxBufferTail));
  50              		.loc 1 158 0
  51 001c 084A     		ldr	r2, .L5+8
  52 001e 1268     		ldr	r2, [r2]
  53 0020 0849     		ldr	r1, .L5+12
  54 0022 0868     		ldr	r0, [r1]
  55 0024 801A     		sub	r0, r0, r2
  56 0026 C318     		add	r3, r0, r3
  57              	.LVL3:
  58 0028 581C     		add	r0, r3, #1
  59              	.LVL4:
  60 002a 03E0     		b	.L4
  61              	.LVL5:
  62              	.L2:
 159:.\Generated_Source\PSoC4/UART_1_SPI_UART.c ****             }
 160:.\Generated_Source\PSoC4/UART_1_SPI_UART.c ****         }
 161:.\Generated_Source\PSoC4/UART_1_SPI_UART.c ****         else
 162:.\Generated_Source\PSoC4/UART_1_SPI_UART.c ****         {
 163:.\Generated_Source\PSoC4/UART_1_SPI_UART.c ****             size = UART_1_GET_RX_FIFO_ENTRIES;
  63              		.loc 1 163 0
  64 002c 064B     		ldr	r3, .L5+16
  65 002e 1B68     		ldr	r3, [r3]
ARM GAS  C:\Users\Marcelo\AppData\Local\Temp\ccDtxF2N.s 			page 5


  66 0030 0F20     		mov	r0, #15
  67 0032 1840     		and	r0, r3
  68              	.LVL6:
  69              	.L4:
 164:.\Generated_Source\PSoC4/UART_1_SPI_UART.c ****         }
 165:.\Generated_Source\PSoC4/UART_1_SPI_UART.c ****         
 166:.\Generated_Source\PSoC4/UART_1_SPI_UART.c **** 
 167:.\Generated_Source\PSoC4/UART_1_SPI_UART.c ****         return (size);
 168:.\Generated_Source\PSoC4/UART_1_SPI_UART.c ****     }
  70              		.loc 1 168 0
  71              		@ sp needed
  72 0034 7047     		bx	lr
  73              	.L6:
  74 0036 C046     		.align	2
  75              	.L5:
  76 0038 00000000 		.word	UART_1_rxBuffer
  77 003c 00000000 		.word	UART_1_rxBufferHead
  78 0040 00000000 		.word	UART_1_rxBufferTail
  79 0044 00000000 		.word	UART_1_rxBufferSize
  80 0048 08030740 		.word	1074201352
  81              		.cfi_endproc
  82              	.LFE1:
  83              		.size	UART_1_SpiUartGetRxBufferSize, .-UART_1_SpiUartGetRxBufferSize
  84              		.section	.text.UART_1_SpiUartClearRxBuffer,"ax",%progbits
  85              		.align	2
  86              		.global	UART_1_SpiUartClearRxBuffer
  87              		.code	16
  88              		.thumb_func
  89              		.type	UART_1_SpiUartClearRxBuffer, %function
  90              	UART_1_SpiUartClearRxBuffer:
  91              	.LFB2:
 169:.\Generated_Source\PSoC4/UART_1_SPI_UART.c **** 
 170:.\Generated_Source\PSoC4/UART_1_SPI_UART.c **** 
 171:.\Generated_Source\PSoC4/UART_1_SPI_UART.c ****     /*******************************************************************************
 172:.\Generated_Source\PSoC4/UART_1_SPI_UART.c ****     * Function Name: UART_1_SpiUartClearRxBuffer
 173:.\Generated_Source\PSoC4/UART_1_SPI_UART.c ****     ********************************************************************************
 174:.\Generated_Source\PSoC4/UART_1_SPI_UART.c ****     *
 175:.\Generated_Source\PSoC4/UART_1_SPI_UART.c ****     * Summary:
 176:.\Generated_Source\PSoC4/UART_1_SPI_UART.c ****     *  Clears the receive buffer and RX FIFO.
 177:.\Generated_Source\PSoC4/UART_1_SPI_UART.c ****     *
 178:.\Generated_Source\PSoC4/UART_1_SPI_UART.c ****     * Parameters:
 179:.\Generated_Source\PSoC4/UART_1_SPI_UART.c ****     *  None
 180:.\Generated_Source\PSoC4/UART_1_SPI_UART.c ****     *
 181:.\Generated_Source\PSoC4/UART_1_SPI_UART.c ****     * Return:
 182:.\Generated_Source\PSoC4/UART_1_SPI_UART.c ****     *  None
 183:.\Generated_Source\PSoC4/UART_1_SPI_UART.c ****     *
 184:.\Generated_Source\PSoC4/UART_1_SPI_UART.c ****     *******************************************************************************/
 185:.\Generated_Source\PSoC4/UART_1_SPI_UART.c ****     void UART_1_SpiUartClearRxBuffer(void)
 186:.\Generated_Source\PSoC4/UART_1_SPI_UART.c ****     {
  92              		.loc 1 186 0
  93              		.cfi_startproc
  94 0000 08B5     		push	{r3, lr}
  95              		.cfi_def_cfa_offset 8
  96              		.cfi_offset 3, -8
  97              		.cfi_offset 14, -4
 187:.\Generated_Source\PSoC4/UART_1_SPI_UART.c ****         if (UART_1_CHECK_RX_SW_BUFFER)
  98              		.loc 1 187 0
ARM GAS  C:\Users\Marcelo\AppData\Local\Temp\ccDtxF2N.s 			page 6


  99 0002 154B     		ldr	r3, .L10
 100 0004 1B68     		ldr	r3, [r3]
 101 0006 002B     		cmp	r3, #0
 102 0008 1AD0     		beq	.L8
 188:.\Generated_Source\PSoC4/UART_1_SPI_UART.c ****         {
 189:.\Generated_Source\PSoC4/UART_1_SPI_UART.c ****             /* Lock from component interruption */
 190:.\Generated_Source\PSoC4/UART_1_SPI_UART.c ****             UART_1_DisableInt();
 103              		.loc 1 190 0
 104 000a 0B20     		mov	r0, #11
 105 000c FFF7FEFF 		bl	CyIntDisable
 106              	.LVL7:
 191:.\Generated_Source\PSoC4/UART_1_SPI_UART.c **** 
 192:.\Generated_Source\PSoC4/UART_1_SPI_UART.c ****             /* Flush RX software buffer */
 193:.\Generated_Source\PSoC4/UART_1_SPI_UART.c ****             UART_1_rxBufferHead = UART_1_rxBufferTail;
 107              		.loc 1 193 0
 108 0010 124B     		ldr	r3, .L10+4
 109 0012 1A68     		ldr	r2, [r3]
 110 0014 124B     		ldr	r3, .L10+8
 111 0016 1A60     		str	r2, [r3]
 194:.\Generated_Source\PSoC4/UART_1_SPI_UART.c ****             UART_1_rxBufferOverflow = 0u;
 112              		.loc 1 194 0
 113 0018 0022     		mov	r2, #0
 114 001a 124B     		ldr	r3, .L10+12
 115 001c 1A70     		strb	r2, [r3]
 195:.\Generated_Source\PSoC4/UART_1_SPI_UART.c **** 
 196:.\Generated_Source\PSoC4/UART_1_SPI_UART.c ****             UART_1_CLEAR_RX_FIFO;
 116              		.loc 1 196 0
 117 001e 124B     		ldr	r3, .L10+16
 118 0020 1968     		ldr	r1, [r3]
 119 0022 8022     		mov	r2, #128
 120 0024 5202     		lsl	r2, r2, #9
 121 0026 0A43     		orr	r2, r1
 122 0028 1A60     		str	r2, [r3]
 123 002a 1968     		ldr	r1, [r3]
 124 002c 0F4A     		ldr	r2, .L10+20
 125 002e 0A40     		and	r2, r1
 126 0030 1A60     		str	r2, [r3]
 197:.\Generated_Source\PSoC4/UART_1_SPI_UART.c ****             UART_1_ClearRxInterruptSource(UART_1_INTR_RX_ALL);
 127              		.loc 1 197 0
 128 0032 0F4A     		ldr	r2, .L10+24
 129 0034 0F4B     		ldr	r3, .L10+28
 130 0036 1A60     		str	r2, [r3]
 198:.\Generated_Source\PSoC4/UART_1_SPI_UART.c **** 
 199:.\Generated_Source\PSoC4/UART_1_SPI_UART.c ****             if (UART_1_CHECK_UART_RTS_CONTROL_FLOW)
 200:.\Generated_Source\PSoC4/UART_1_SPI_UART.c ****             {
 201:.\Generated_Source\PSoC4/UART_1_SPI_UART.c ****                 /* Enable RX Not Empty interrupt source to continue receiving
 202:.\Generated_Source\PSoC4/UART_1_SPI_UART.c ****                 * data into software buffer.
 203:.\Generated_Source\PSoC4/UART_1_SPI_UART.c ****                 */
 204:.\Generated_Source\PSoC4/UART_1_SPI_UART.c ****                 UART_1_INTR_RX_MASK_REG |= UART_1_INTR_RX_NOT_EMPTY;
 205:.\Generated_Source\PSoC4/UART_1_SPI_UART.c ****             }
 206:.\Generated_Source\PSoC4/UART_1_SPI_UART.c ****             
 207:.\Generated_Source\PSoC4/UART_1_SPI_UART.c **** 
 208:.\Generated_Source\PSoC4/UART_1_SPI_UART.c ****             /* Release lock */
 209:.\Generated_Source\PSoC4/UART_1_SPI_UART.c ****             UART_1_EnableInt();
 131              		.loc 1 209 0
 132 0038 0B20     		mov	r0, #11
 133 003a FFF7FEFF 		bl	CyIntEnable
ARM GAS  C:\Users\Marcelo\AppData\Local\Temp\ccDtxF2N.s 			page 7


 134              	.LVL8:
 135 003e 09E0     		b	.L7
 136              	.L8:
 210:.\Generated_Source\PSoC4/UART_1_SPI_UART.c ****         }
 211:.\Generated_Source\PSoC4/UART_1_SPI_UART.c ****         else
 212:.\Generated_Source\PSoC4/UART_1_SPI_UART.c ****         {
 213:.\Generated_Source\PSoC4/UART_1_SPI_UART.c ****             UART_1_CLEAR_RX_FIFO;
 137              		.loc 1 213 0
 138 0040 094B     		ldr	r3, .L10+16
 139 0042 1968     		ldr	r1, [r3]
 140 0044 8022     		mov	r2, #128
 141 0046 5202     		lsl	r2, r2, #9
 142 0048 0A43     		orr	r2, r1
 143 004a 1A60     		str	r2, [r3]
 144 004c 1968     		ldr	r1, [r3]
 145 004e 074A     		ldr	r2, .L10+20
 146 0050 0A40     		and	r2, r1
 147 0052 1A60     		str	r2, [r3]
 148              	.L7:
 214:.\Generated_Source\PSoC4/UART_1_SPI_UART.c ****         }
 215:.\Generated_Source\PSoC4/UART_1_SPI_UART.c ****         
 216:.\Generated_Source\PSoC4/UART_1_SPI_UART.c ****     }
 149              		.loc 1 216 0
 150              		@ sp needed
 151 0054 08BD     		pop	{r3, pc}
 152              	.L11:
 153 0056 C046     		.align	2
 154              	.L10:
 155 0058 00000000 		.word	UART_1_rxBuffer
 156 005c 00000000 		.word	UART_1_rxBufferTail
 157 0060 00000000 		.word	UART_1_rxBufferHead
 158 0064 00000000 		.word	UART_1_rxBufferOverflow
 159 0068 04030740 		.word	1074201348
 160 006c FFFFFEFF 		.word	-65537
 161 0070 ED0F0000 		.word	4077
 162 0074 C00F0740 		.word	1074204608
 163              		.cfi_endproc
 164              	.LFE2:
 165              		.size	UART_1_SpiUartClearRxBuffer, .-UART_1_SpiUartClearRxBuffer
 166              		.section	.text.UART_1_SpiUartGetTxBufferSize,"ax",%progbits
 167              		.align	2
 168              		.global	UART_1_SpiUartGetTxBufferSize
 169              		.code	16
 170              		.thumb_func
 171              		.type	UART_1_SpiUartGetTxBufferSize, %function
 172              	UART_1_SpiUartGetTxBufferSize:
 173              	.LFB5:
 217:.\Generated_Source\PSoC4/UART_1_SPI_UART.c **** 
 218:.\Generated_Source\PSoC4/UART_1_SPI_UART.c **** #endif /* (UART_1_RX_DIRECTION) */
 219:.\Generated_Source\PSoC4/UART_1_SPI_UART.c **** 
 220:.\Generated_Source\PSoC4/UART_1_SPI_UART.c **** 
 221:.\Generated_Source\PSoC4/UART_1_SPI_UART.c **** #if(UART_1_TX_DIRECTION)
 222:.\Generated_Source\PSoC4/UART_1_SPI_UART.c ****     /*******************************************************************************
 223:.\Generated_Source\PSoC4/UART_1_SPI_UART.c ****     * Function Name: UART_1_SpiUartWriteTxData
 224:.\Generated_Source\PSoC4/UART_1_SPI_UART.c ****     ********************************************************************************
 225:.\Generated_Source\PSoC4/UART_1_SPI_UART.c ****     *
 226:.\Generated_Source\PSoC4/UART_1_SPI_UART.c ****     * Summary:
ARM GAS  C:\Users\Marcelo\AppData\Local\Temp\ccDtxF2N.s 			page 8


 227:.\Generated_Source\PSoC4/UART_1_SPI_UART.c ****     *  Places a data entry into the transmit buffer to be sent at the next available
 228:.\Generated_Source\PSoC4/UART_1_SPI_UART.c ****     *  bus time.
 229:.\Generated_Source\PSoC4/UART_1_SPI_UART.c ****     *  This function is blocking and waits until there is space available to put the
 230:.\Generated_Source\PSoC4/UART_1_SPI_UART.c ****     *  requested data in the transmit buffer.
 231:.\Generated_Source\PSoC4/UART_1_SPI_UART.c ****     *
 232:.\Generated_Source\PSoC4/UART_1_SPI_UART.c ****     * Parameters:
 233:.\Generated_Source\PSoC4/UART_1_SPI_UART.c ****     *  txDataByte: the data to be transmitted.
 234:.\Generated_Source\PSoC4/UART_1_SPI_UART.c ****     *
 235:.\Generated_Source\PSoC4/UART_1_SPI_UART.c ****     * Return:
 236:.\Generated_Source\PSoC4/UART_1_SPI_UART.c ****     *  None
 237:.\Generated_Source\PSoC4/UART_1_SPI_UART.c ****     *
 238:.\Generated_Source\PSoC4/UART_1_SPI_UART.c ****     *******************************************************************************/
 239:.\Generated_Source\PSoC4/UART_1_SPI_UART.c ****     void UART_1_SpiUartWriteTxData(uint32 txData)
 240:.\Generated_Source\PSoC4/UART_1_SPI_UART.c ****     {
 241:.\Generated_Source\PSoC4/UART_1_SPI_UART.c ****     #if (UART_1_INTERNAL_TX_SW_BUFFER_CONST)
 242:.\Generated_Source\PSoC4/UART_1_SPI_UART.c ****         uint32 locHead;
 243:.\Generated_Source\PSoC4/UART_1_SPI_UART.c ****     #endif /* (UART_1_INTERNAL_TX_SW_BUFFER_CONST) */
 244:.\Generated_Source\PSoC4/UART_1_SPI_UART.c **** 
 245:.\Generated_Source\PSoC4/UART_1_SPI_UART.c ****         if (UART_1_CHECK_TX_SW_BUFFER)
 246:.\Generated_Source\PSoC4/UART_1_SPI_UART.c ****         {
 247:.\Generated_Source\PSoC4/UART_1_SPI_UART.c ****             /* Put data directly into the TX FIFO */
 248:.\Generated_Source\PSoC4/UART_1_SPI_UART.c ****             if ((UART_1_txBufferHead == UART_1_txBufferTail) &&
 249:.\Generated_Source\PSoC4/UART_1_SPI_UART.c ****                 (UART_1_SPI_UART_FIFO_SIZE != UART_1_GET_TX_FIFO_ENTRIES))
 250:.\Generated_Source\PSoC4/UART_1_SPI_UART.c ****             {
 251:.\Generated_Source\PSoC4/UART_1_SPI_UART.c ****                 /* TX software buffer is empty: put data directly in TX FIFO */
 252:.\Generated_Source\PSoC4/UART_1_SPI_UART.c ****                 UART_1_TX_FIFO_WR_REG = txData;
 253:.\Generated_Source\PSoC4/UART_1_SPI_UART.c ****             }
 254:.\Generated_Source\PSoC4/UART_1_SPI_UART.c ****             /* Put data into TX software buffer */
 255:.\Generated_Source\PSoC4/UART_1_SPI_UART.c ****             else
 256:.\Generated_Source\PSoC4/UART_1_SPI_UART.c ****             {
 257:.\Generated_Source\PSoC4/UART_1_SPI_UART.c ****                 /* Head index to put data */
 258:.\Generated_Source\PSoC4/UART_1_SPI_UART.c ****                 locHead = (UART_1_txBufferHead + 1u);
 259:.\Generated_Source\PSoC4/UART_1_SPI_UART.c **** 
 260:.\Generated_Source\PSoC4/UART_1_SPI_UART.c ****                 /* Adjust TX software buffer index */
 261:.\Generated_Source\PSoC4/UART_1_SPI_UART.c ****                 if (UART_1_TX_BUFFER_SIZE == locHead)
 262:.\Generated_Source\PSoC4/UART_1_SPI_UART.c ****                 {
 263:.\Generated_Source\PSoC4/UART_1_SPI_UART.c ****                     locHead = 0u;
 264:.\Generated_Source\PSoC4/UART_1_SPI_UART.c ****                 }
 265:.\Generated_Source\PSoC4/UART_1_SPI_UART.c **** 
 266:.\Generated_Source\PSoC4/UART_1_SPI_UART.c ****                 /* Wait for space in TX software buffer */
 267:.\Generated_Source\PSoC4/UART_1_SPI_UART.c ****                 while (locHead == UART_1_txBufferTail)
 268:.\Generated_Source\PSoC4/UART_1_SPI_UART.c ****                 {
 269:.\Generated_Source\PSoC4/UART_1_SPI_UART.c ****                 }
 270:.\Generated_Source\PSoC4/UART_1_SPI_UART.c **** 
 271:.\Generated_Source\PSoC4/UART_1_SPI_UART.c ****                 /* TX software buffer has at least one room */
 272:.\Generated_Source\PSoC4/UART_1_SPI_UART.c **** 
 273:.\Generated_Source\PSoC4/UART_1_SPI_UART.c ****                 /* Clear old status of INTR_TX_NOT_FULL. It sets at the end of transfer when TX FIF
 274:.\Generated_Source\PSoC4/UART_1_SPI_UART.c ****                 UART_1_ClearTxInterruptSource(UART_1_INTR_TX_NOT_FULL);
 275:.\Generated_Source\PSoC4/UART_1_SPI_UART.c **** 
 276:.\Generated_Source\PSoC4/UART_1_SPI_UART.c ****                 UART_1_PutWordInTxBuffer(locHead, txData);
 277:.\Generated_Source\PSoC4/UART_1_SPI_UART.c **** 
 278:.\Generated_Source\PSoC4/UART_1_SPI_UART.c ****                 UART_1_txBufferHead = locHead;
 279:.\Generated_Source\PSoC4/UART_1_SPI_UART.c **** 
 280:.\Generated_Source\PSoC4/UART_1_SPI_UART.c ****                 /* Check if TX Not Full is disabled in interrupt */
 281:.\Generated_Source\PSoC4/UART_1_SPI_UART.c ****                 if (0u == (UART_1_INTR_TX_MASK_REG & UART_1_INTR_TX_NOT_FULL))
 282:.\Generated_Source\PSoC4/UART_1_SPI_UART.c ****                 {
 283:.\Generated_Source\PSoC4/UART_1_SPI_UART.c ****                     /* Enable TX Not Full interrupt source to transmit from software buffer */
ARM GAS  C:\Users\Marcelo\AppData\Local\Temp\ccDtxF2N.s 			page 9


 284:.\Generated_Source\PSoC4/UART_1_SPI_UART.c ****                     UART_1_INTR_TX_MASK_REG |= (uint32) UART_1_INTR_TX_NOT_FULL;
 285:.\Generated_Source\PSoC4/UART_1_SPI_UART.c ****                 }
 286:.\Generated_Source\PSoC4/UART_1_SPI_UART.c ****             }
 287:.\Generated_Source\PSoC4/UART_1_SPI_UART.c ****         }
 288:.\Generated_Source\PSoC4/UART_1_SPI_UART.c ****         else
 289:.\Generated_Source\PSoC4/UART_1_SPI_UART.c ****         {
 290:.\Generated_Source\PSoC4/UART_1_SPI_UART.c ****             /* Wait until TX FIFO has space to put data element */
 291:.\Generated_Source\PSoC4/UART_1_SPI_UART.c ****             while (UART_1_SPI_UART_FIFO_SIZE == UART_1_GET_TX_FIFO_ENTRIES)
 292:.\Generated_Source\PSoC4/UART_1_SPI_UART.c ****             {
 293:.\Generated_Source\PSoC4/UART_1_SPI_UART.c ****             }
 294:.\Generated_Source\PSoC4/UART_1_SPI_UART.c **** 
 295:.\Generated_Source\PSoC4/UART_1_SPI_UART.c ****             UART_1_TX_FIFO_WR_REG = txData;
 296:.\Generated_Source\PSoC4/UART_1_SPI_UART.c ****         }
 297:.\Generated_Source\PSoC4/UART_1_SPI_UART.c ****         
 298:.\Generated_Source\PSoC4/UART_1_SPI_UART.c ****     }
 299:.\Generated_Source\PSoC4/UART_1_SPI_UART.c **** 
 300:.\Generated_Source\PSoC4/UART_1_SPI_UART.c **** 
 301:.\Generated_Source\PSoC4/UART_1_SPI_UART.c ****     /*******************************************************************************
 302:.\Generated_Source\PSoC4/UART_1_SPI_UART.c ****     * Function Name: UART_1_SpiUartPutArray
 303:.\Generated_Source\PSoC4/UART_1_SPI_UART.c ****     ********************************************************************************
 304:.\Generated_Source\PSoC4/UART_1_SPI_UART.c ****     *
 305:.\Generated_Source\PSoC4/UART_1_SPI_UART.c ****     * Summary:
 306:.\Generated_Source\PSoC4/UART_1_SPI_UART.c ****     *  Places an array of data into the transmit buffer to be sent.
 307:.\Generated_Source\PSoC4/UART_1_SPI_UART.c ****     *  This function is blocking and waits until there is a space available to put
 308:.\Generated_Source\PSoC4/UART_1_SPI_UART.c ****     *  all the requested data in the transmit buffer. The array size can be greater
 309:.\Generated_Source\PSoC4/UART_1_SPI_UART.c ****     *  than transmit buffer size.
 310:.\Generated_Source\PSoC4/UART_1_SPI_UART.c ****     *
 311:.\Generated_Source\PSoC4/UART_1_SPI_UART.c ****     * Parameters:
 312:.\Generated_Source\PSoC4/UART_1_SPI_UART.c ****     *  wrBuf:  pointer to an array with data to be placed in transmit buffer.
 313:.\Generated_Source\PSoC4/UART_1_SPI_UART.c ****     *  count:  number of data elements to be placed in the transmit buffer.
 314:.\Generated_Source\PSoC4/UART_1_SPI_UART.c ****     *
 315:.\Generated_Source\PSoC4/UART_1_SPI_UART.c ****     * Return:
 316:.\Generated_Source\PSoC4/UART_1_SPI_UART.c ****     *  None
 317:.\Generated_Source\PSoC4/UART_1_SPI_UART.c ****     *
 318:.\Generated_Source\PSoC4/UART_1_SPI_UART.c ****     *******************************************************************************/
 319:.\Generated_Source\PSoC4/UART_1_SPI_UART.c ****     void UART_1_SpiUartPutArray(const uint8 wrBuf[], uint32 count)
 320:.\Generated_Source\PSoC4/UART_1_SPI_UART.c ****     {
 321:.\Generated_Source\PSoC4/UART_1_SPI_UART.c ****         uint32 i;
 322:.\Generated_Source\PSoC4/UART_1_SPI_UART.c **** 
 323:.\Generated_Source\PSoC4/UART_1_SPI_UART.c ****         for (i=0u; i < count; i++)
 324:.\Generated_Source\PSoC4/UART_1_SPI_UART.c ****         {
 325:.\Generated_Source\PSoC4/UART_1_SPI_UART.c ****             UART_1_SpiUartWriteTxData((uint32) wrBuf[i]);
 326:.\Generated_Source\PSoC4/UART_1_SPI_UART.c ****         }
 327:.\Generated_Source\PSoC4/UART_1_SPI_UART.c ****     }
 328:.\Generated_Source\PSoC4/UART_1_SPI_UART.c **** 
 329:.\Generated_Source\PSoC4/UART_1_SPI_UART.c **** 
 330:.\Generated_Source\PSoC4/UART_1_SPI_UART.c ****     /*******************************************************************************
 331:.\Generated_Source\PSoC4/UART_1_SPI_UART.c ****     * Function Name: UART_1_SpiUartGetTxBufferSize
 332:.\Generated_Source\PSoC4/UART_1_SPI_UART.c ****     ********************************************************************************
 333:.\Generated_Source\PSoC4/UART_1_SPI_UART.c ****     *
 334:.\Generated_Source\PSoC4/UART_1_SPI_UART.c ****     * Summary:
 335:.\Generated_Source\PSoC4/UART_1_SPI_UART.c ****     * Returns the number of elements currently in the transmit buffer.
 336:.\Generated_Source\PSoC4/UART_1_SPI_UART.c ****     *  - TX software buffer is disabled: returns the number of used entries in
 337:.\Generated_Source\PSoC4/UART_1_SPI_UART.c ****     *    TX FIFO.
 338:.\Generated_Source\PSoC4/UART_1_SPI_UART.c ****     *  - TX software buffer is enabled: returns the number of elements currently
 339:.\Generated_Source\PSoC4/UART_1_SPI_UART.c ****     *    used in the transmit buffer. This number does not include used entries in
 340:.\Generated_Source\PSoC4/UART_1_SPI_UART.c ****     *    the TX FIFO. The transmit buffer size is zero until the TX FIFO is
ARM GAS  C:\Users\Marcelo\AppData\Local\Temp\ccDtxF2N.s 			page 10


 341:.\Generated_Source\PSoC4/UART_1_SPI_UART.c ****     *    not full.
 342:.\Generated_Source\PSoC4/UART_1_SPI_UART.c ****     *
 343:.\Generated_Source\PSoC4/UART_1_SPI_UART.c ****     * Parameters:
 344:.\Generated_Source\PSoC4/UART_1_SPI_UART.c ****     *  None
 345:.\Generated_Source\PSoC4/UART_1_SPI_UART.c ****     *
 346:.\Generated_Source\PSoC4/UART_1_SPI_UART.c ****     * Return:
 347:.\Generated_Source\PSoC4/UART_1_SPI_UART.c ****     *  Number of data elements ready to transmit.
 348:.\Generated_Source\PSoC4/UART_1_SPI_UART.c ****     *
 349:.\Generated_Source\PSoC4/UART_1_SPI_UART.c ****     *******************************************************************************/
 350:.\Generated_Source\PSoC4/UART_1_SPI_UART.c ****     uint32 UART_1_SpiUartGetTxBufferSize(void)
 351:.\Generated_Source\PSoC4/UART_1_SPI_UART.c ****     {
 174              		.loc 1 351 0
 175              		.cfi_startproc
 352:.\Generated_Source\PSoC4/UART_1_SPI_UART.c ****         uint32 size;
 353:.\Generated_Source\PSoC4/UART_1_SPI_UART.c ****     #if (UART_1_INTERNAL_TX_SW_BUFFER_CONST)
 354:.\Generated_Source\PSoC4/UART_1_SPI_UART.c ****         uint32 locTail;
 355:.\Generated_Source\PSoC4/UART_1_SPI_UART.c ****     #endif /* (UART_1_INTERNAL_TX_SW_BUFFER_CONST) */
 356:.\Generated_Source\PSoC4/UART_1_SPI_UART.c **** 
 357:.\Generated_Source\PSoC4/UART_1_SPI_UART.c ****         if (UART_1_CHECK_TX_SW_BUFFER)
 176              		.loc 1 357 0
 177 0000 0C4B     		ldr	r3, .L16
 178 0002 1B68     		ldr	r3, [r3]
 179 0004 002B     		cmp	r3, #0
 180 0006 10D0     		beq	.L13
 358:.\Generated_Source\PSoC4/UART_1_SPI_UART.c ****         {
 359:.\Generated_Source\PSoC4/UART_1_SPI_UART.c ****             /* Get current Tail index */
 360:.\Generated_Source\PSoC4/UART_1_SPI_UART.c ****             locTail = UART_1_txBufferTail;
 181              		.loc 1 360 0
 182 0008 0B4B     		ldr	r3, .L16+4
 183 000a 1B68     		ldr	r3, [r3]
 184              	.LVL9:
 361:.\Generated_Source\PSoC4/UART_1_SPI_UART.c **** 
 362:.\Generated_Source\PSoC4/UART_1_SPI_UART.c ****             if (UART_1_txBufferHead >= locTail)
 185              		.loc 1 362 0
 186 000c 0B4A     		ldr	r2, .L16+8
 187 000e 1268     		ldr	r2, [r2]
 188 0010 9A42     		cmp	r2, r3
 189 0012 03D3     		bcc	.L14
 363:.\Generated_Source\PSoC4/UART_1_SPI_UART.c ****             {
 364:.\Generated_Source\PSoC4/UART_1_SPI_UART.c ****                 size = (UART_1_txBufferHead - locTail);
 190              		.loc 1 364 0
 191 0014 094A     		ldr	r2, .L16+8
 192 0016 1068     		ldr	r0, [r2]
 193 0018 C01A     		sub	r0, r0, r3
 194              	.LVL10:
 195 001a 0AE0     		b	.L15
 196              	.LVL11:
 197              	.L14:
 365:.\Generated_Source\PSoC4/UART_1_SPI_UART.c ****             }
 366:.\Generated_Source\PSoC4/UART_1_SPI_UART.c ****             else
 367:.\Generated_Source\PSoC4/UART_1_SPI_UART.c ****             {
 368:.\Generated_Source\PSoC4/UART_1_SPI_UART.c ****                 size = (UART_1_txBufferHead + (UART_1_TX_BUFFER_SIZE - locTail));
 198              		.loc 1 368 0
 199 001c 084A     		ldr	r2, .L16+12
 200 001e 1068     		ldr	r0, [r2]
 201 0020 C31A     		sub	r3, r0, r3
 202              	.LVL12:
ARM GAS  C:\Users\Marcelo\AppData\Local\Temp\ccDtxF2N.s 			page 11


 203 0022 064A     		ldr	r2, .L16+8
 204 0024 1268     		ldr	r2, [r2]
 205 0026 9818     		add	r0, r3, r2
 206              	.LVL13:
 207 0028 03E0     		b	.L15
 208              	.LVL14:
 209              	.L13:
 369:.\Generated_Source\PSoC4/UART_1_SPI_UART.c ****             }
 370:.\Generated_Source\PSoC4/UART_1_SPI_UART.c ****         }
 371:.\Generated_Source\PSoC4/UART_1_SPI_UART.c ****         else
 372:.\Generated_Source\PSoC4/UART_1_SPI_UART.c ****         {
 373:.\Generated_Source\PSoC4/UART_1_SPI_UART.c ****             size = UART_1_GET_TX_FIFO_ENTRIES;
 210              		.loc 1 373 0
 211 002a 064B     		ldr	r3, .L16+16
 212 002c 1B68     		ldr	r3, [r3]
 213 002e 0F20     		mov	r0, #15
 214 0030 1840     		and	r0, r3
 215              	.LVL15:
 216              	.L15:
 374:.\Generated_Source\PSoC4/UART_1_SPI_UART.c ****         }
 375:.\Generated_Source\PSoC4/UART_1_SPI_UART.c ****         
 376:.\Generated_Source\PSoC4/UART_1_SPI_UART.c **** 
 377:.\Generated_Source\PSoC4/UART_1_SPI_UART.c ****         return (size);
 378:.\Generated_Source\PSoC4/UART_1_SPI_UART.c ****     }
 217              		.loc 1 378 0
 218              		@ sp needed
 219 0032 7047     		bx	lr
 220              	.L17:
 221              		.align	2
 222              	.L16:
 223 0034 00000000 		.word	UART_1_txBuffer
 224 0038 00000000 		.word	UART_1_txBufferTail
 225 003c 00000000 		.word	UART_1_txBufferHead
 226 0040 00000000 		.word	UART_1_txBufferSize
 227 0044 08020740 		.word	1074201096
 228              		.cfi_endproc
 229              	.LFE5:
 230              		.size	UART_1_SpiUartGetTxBufferSize, .-UART_1_SpiUartGetTxBufferSize
 231              		.section	.text.UART_1_SpiUartClearTxBuffer,"ax",%progbits
 232              		.align	2
 233              		.global	UART_1_SpiUartClearTxBuffer
 234              		.code	16
 235              		.thumb_func
 236              		.type	UART_1_SpiUartClearTxBuffer, %function
 237              	UART_1_SpiUartClearTxBuffer:
 238              	.LFB6:
 379:.\Generated_Source\PSoC4/UART_1_SPI_UART.c **** 
 380:.\Generated_Source\PSoC4/UART_1_SPI_UART.c **** 
 381:.\Generated_Source\PSoC4/UART_1_SPI_UART.c ****     /*******************************************************************************
 382:.\Generated_Source\PSoC4/UART_1_SPI_UART.c ****     * Function Name: UART_1_SpiUartClearTxBuffer
 383:.\Generated_Source\PSoC4/UART_1_SPI_UART.c ****     ********************************************************************************
 384:.\Generated_Source\PSoC4/UART_1_SPI_UART.c ****     *
 385:.\Generated_Source\PSoC4/UART_1_SPI_UART.c ****     * Summary:
 386:.\Generated_Source\PSoC4/UART_1_SPI_UART.c ****     *  Clears the transmit buffer and TX FIFO.
 387:.\Generated_Source\PSoC4/UART_1_SPI_UART.c ****     *
 388:.\Generated_Source\PSoC4/UART_1_SPI_UART.c ****     * Parameters:
 389:.\Generated_Source\PSoC4/UART_1_SPI_UART.c ****     *  None
ARM GAS  C:\Users\Marcelo\AppData\Local\Temp\ccDtxF2N.s 			page 12


 390:.\Generated_Source\PSoC4/UART_1_SPI_UART.c ****     *
 391:.\Generated_Source\PSoC4/UART_1_SPI_UART.c ****     * Return:
 392:.\Generated_Source\PSoC4/UART_1_SPI_UART.c ****     *  None
 393:.\Generated_Source\PSoC4/UART_1_SPI_UART.c ****     *
 394:.\Generated_Source\PSoC4/UART_1_SPI_UART.c ****     *******************************************************************************/
 395:.\Generated_Source\PSoC4/UART_1_SPI_UART.c ****     void UART_1_SpiUartClearTxBuffer(void)
 396:.\Generated_Source\PSoC4/UART_1_SPI_UART.c ****     {
 239              		.loc 1 396 0
 240              		.cfi_startproc
 241 0000 08B5     		push	{r3, lr}
 242              		.cfi_def_cfa_offset 8
 243              		.cfi_offset 3, -8
 244              		.cfi_offset 14, -4
 397:.\Generated_Source\PSoC4/UART_1_SPI_UART.c ****         if (UART_1_CHECK_TX_SW_BUFFER)
 245              		.loc 1 397 0
 246 0002 164B     		ldr	r3, .L21
 247 0004 1B68     		ldr	r3, [r3]
 248 0006 002B     		cmp	r3, #0
 249 0008 1CD0     		beq	.L19
 398:.\Generated_Source\PSoC4/UART_1_SPI_UART.c ****         {
 399:.\Generated_Source\PSoC4/UART_1_SPI_UART.c ****             /* Lock from component interruption */
 400:.\Generated_Source\PSoC4/UART_1_SPI_UART.c ****             UART_1_DisableInt();
 250              		.loc 1 400 0
 251 000a 0B20     		mov	r0, #11
 252 000c FFF7FEFF 		bl	CyIntDisable
 253              	.LVL16:
 401:.\Generated_Source\PSoC4/UART_1_SPI_UART.c **** 
 402:.\Generated_Source\PSoC4/UART_1_SPI_UART.c ****             /* Flush TX software buffer */
 403:.\Generated_Source\PSoC4/UART_1_SPI_UART.c ****             UART_1_txBufferHead = UART_1_txBufferTail;
 254              		.loc 1 403 0
 255 0010 134B     		ldr	r3, .L21+4
 256 0012 1A68     		ldr	r2, [r3]
 257 0014 134B     		ldr	r3, .L21+8
 258 0016 1A60     		str	r2, [r3]
 404:.\Generated_Source\PSoC4/UART_1_SPI_UART.c **** 
 405:.\Generated_Source\PSoC4/UART_1_SPI_UART.c ****             UART_1_INTR_TX_MASK_REG &= (uint32) ~UART_1_INTR_TX_NOT_FULL;
 259              		.loc 1 405 0
 260 0018 134B     		ldr	r3, .L21+12
 261 001a 1A68     		ldr	r2, [r3]
 262 001c 0221     		mov	r1, #2
 263 001e 8A43     		bic	r2, r1
 264 0020 1A60     		str	r2, [r3]
 406:.\Generated_Source\PSoC4/UART_1_SPI_UART.c ****             UART_1_CLEAR_TX_FIFO;
 265              		.loc 1 406 0
 266 0022 124B     		ldr	r3, .L21+16
 267 0024 1968     		ldr	r1, [r3]
 268 0026 8022     		mov	r2, #128
 269 0028 5202     		lsl	r2, r2, #9
 270 002a 0A43     		orr	r2, r1
 271 002c 1A60     		str	r2, [r3]
 272 002e 1968     		ldr	r1, [r3]
 273 0030 0F4A     		ldr	r2, .L21+20
 274 0032 0A40     		and	r2, r1
 275 0034 1A60     		str	r2, [r3]
 407:.\Generated_Source\PSoC4/UART_1_SPI_UART.c ****             UART_1_ClearTxInterruptSource(UART_1_INTR_TX_ALL);
 276              		.loc 1 407 0
 277 0036 0F4A     		ldr	r2, .L21+24
ARM GAS  C:\Users\Marcelo\AppData\Local\Temp\ccDtxF2N.s 			page 13


 278 0038 0F4B     		ldr	r3, .L21+28
 279 003a 1A60     		str	r2, [r3]
 408:.\Generated_Source\PSoC4/UART_1_SPI_UART.c **** 
 409:.\Generated_Source\PSoC4/UART_1_SPI_UART.c ****             /* Release lock */
 410:.\Generated_Source\PSoC4/UART_1_SPI_UART.c ****             UART_1_EnableInt();
 280              		.loc 1 410 0
 281 003c 0B20     		mov	r0, #11
 282 003e FFF7FEFF 		bl	CyIntEnable
 283              	.LVL17:
 284 0042 09E0     		b	.L18
 285              	.L19:
 411:.\Generated_Source\PSoC4/UART_1_SPI_UART.c ****         }
 412:.\Generated_Source\PSoC4/UART_1_SPI_UART.c ****         else
 413:.\Generated_Source\PSoC4/UART_1_SPI_UART.c ****         {
 414:.\Generated_Source\PSoC4/UART_1_SPI_UART.c ****             UART_1_CLEAR_TX_FIFO;
 286              		.loc 1 414 0
 287 0044 094B     		ldr	r3, .L21+16
 288 0046 1968     		ldr	r1, [r3]
 289 0048 8022     		mov	r2, #128
 290 004a 5202     		lsl	r2, r2, #9
 291 004c 0A43     		orr	r2, r1
 292 004e 1A60     		str	r2, [r3]
 293 0050 1968     		ldr	r1, [r3]
 294 0052 074A     		ldr	r2, .L21+20
 295 0054 0A40     		and	r2, r1
 296 0056 1A60     		str	r2, [r3]
 297              	.L18:
 415:.\Generated_Source\PSoC4/UART_1_SPI_UART.c ****         }
 416:.\Generated_Source\PSoC4/UART_1_SPI_UART.c ****         
 417:.\Generated_Source\PSoC4/UART_1_SPI_UART.c ****     }
 298              		.loc 1 417 0
 299              		@ sp needed
 300 0058 08BD     		pop	{r3, pc}
 301              	.L22:
 302 005a C046     		.align	2
 303              	.L21:
 304 005c 00000000 		.word	UART_1_txBuffer
 305 0060 00000000 		.word	UART_1_txBufferTail
 306 0064 00000000 		.word	UART_1_txBufferHead
 307 0068 880F0740 		.word	1074204552
 308 006c 04020740 		.word	1074201092
 309 0070 FFFFFEFF 		.word	-65537
 310 0074 F3070000 		.word	2035
 311 0078 800F0740 		.word	1074204544
 312              		.cfi_endproc
 313              	.LFE6:
 314              		.size	UART_1_SpiUartClearTxBuffer, .-UART_1_SpiUartClearTxBuffer
 315              		.section	.text.UART_1_SpiUartDisableIntRx,"ax",%progbits
 316              		.align	2
 317              		.global	UART_1_SpiUartDisableIntRx
 318              		.code	16
 319              		.thumb_func
 320              		.type	UART_1_SpiUartDisableIntRx, %function
 321              	UART_1_SpiUartDisableIntRx:
 322              	.LFB7:
 418:.\Generated_Source\PSoC4/UART_1_SPI_UART.c **** 
 419:.\Generated_Source\PSoC4/UART_1_SPI_UART.c **** #endif /* (UART_1_TX_DIRECTION) */
ARM GAS  C:\Users\Marcelo\AppData\Local\Temp\ccDtxF2N.s 			page 14


 420:.\Generated_Source\PSoC4/UART_1_SPI_UART.c **** 
 421:.\Generated_Source\PSoC4/UART_1_SPI_UART.c **** 
 422:.\Generated_Source\PSoC4/UART_1_SPI_UART.c **** /*******************************************************************************
 423:.\Generated_Source\PSoC4/UART_1_SPI_UART.c **** * Function Name: UART_1_SpiUartDisableIntRx
 424:.\Generated_Source\PSoC4/UART_1_SPI_UART.c **** ********************************************************************************
 425:.\Generated_Source\PSoC4/UART_1_SPI_UART.c **** *
 426:.\Generated_Source\PSoC4/UART_1_SPI_UART.c **** * Summary:
 427:.\Generated_Source\PSoC4/UART_1_SPI_UART.c **** *  Disables the RX interrupt sources.
 428:.\Generated_Source\PSoC4/UART_1_SPI_UART.c **** *
 429:.\Generated_Source\PSoC4/UART_1_SPI_UART.c **** * Parameters:
 430:.\Generated_Source\PSoC4/UART_1_SPI_UART.c **** *  None
 431:.\Generated_Source\PSoC4/UART_1_SPI_UART.c **** *
 432:.\Generated_Source\PSoC4/UART_1_SPI_UART.c **** * Return:
 433:.\Generated_Source\PSoC4/UART_1_SPI_UART.c **** *  Returns the RX interrupt sources enabled before the function call.
 434:.\Generated_Source\PSoC4/UART_1_SPI_UART.c **** *
 435:.\Generated_Source\PSoC4/UART_1_SPI_UART.c **** *******************************************************************************/
 436:.\Generated_Source\PSoC4/UART_1_SPI_UART.c **** uint32 UART_1_SpiUartDisableIntRx(void)
 437:.\Generated_Source\PSoC4/UART_1_SPI_UART.c **** {
 323              		.loc 1 437 0
 324              		.cfi_startproc
 438:.\Generated_Source\PSoC4/UART_1_SPI_UART.c ****     uint32 intSource;
 439:.\Generated_Source\PSoC4/UART_1_SPI_UART.c **** 
 440:.\Generated_Source\PSoC4/UART_1_SPI_UART.c ****     intSource = UART_1_GetRxInterruptMode();
 325              		.loc 1 440 0
 326 0000 024B     		ldr	r3, .L24
 327 0002 1868     		ldr	r0, [r3]
 328              	.LVL18:
 441:.\Generated_Source\PSoC4/UART_1_SPI_UART.c **** 
 442:.\Generated_Source\PSoC4/UART_1_SPI_UART.c ****     UART_1_SetRxInterruptMode(UART_1_NO_INTR_SOURCES);
 329              		.loc 1 442 0
 330 0004 0022     		mov	r2, #0
 331 0006 1A60     		str	r2, [r3]
 443:.\Generated_Source\PSoC4/UART_1_SPI_UART.c **** 
 444:.\Generated_Source\PSoC4/UART_1_SPI_UART.c ****     return (intSource);
 445:.\Generated_Source\PSoC4/UART_1_SPI_UART.c **** }
 332              		.loc 1 445 0
 333              		@ sp needed
 334 0008 7047     		bx	lr
 335              	.L25:
 336 000a C046     		.align	2
 337              	.L24:
 338 000c C80F0740 		.word	1074204616
 339              		.cfi_endproc
 340              	.LFE7:
 341              		.size	UART_1_SpiUartDisableIntRx, .-UART_1_SpiUartDisableIntRx
 342              		.section	.text.UART_1_SpiUartDisableIntTx,"ax",%progbits
 343              		.align	2
 344              		.global	UART_1_SpiUartDisableIntTx
 345              		.code	16
 346              		.thumb_func
 347              		.type	UART_1_SpiUartDisableIntTx, %function
 348              	UART_1_SpiUartDisableIntTx:
 349              	.LFB8:
 446:.\Generated_Source\PSoC4/UART_1_SPI_UART.c **** 
 447:.\Generated_Source\PSoC4/UART_1_SPI_UART.c **** 
 448:.\Generated_Source\PSoC4/UART_1_SPI_UART.c **** /*******************************************************************************
 449:.\Generated_Source\PSoC4/UART_1_SPI_UART.c **** * Function Name: UART_1_SpiUartDisableIntTx
ARM GAS  C:\Users\Marcelo\AppData\Local\Temp\ccDtxF2N.s 			page 15


 450:.\Generated_Source\PSoC4/UART_1_SPI_UART.c **** ********************************************************************************
 451:.\Generated_Source\PSoC4/UART_1_SPI_UART.c **** *
 452:.\Generated_Source\PSoC4/UART_1_SPI_UART.c **** * Summary:
 453:.\Generated_Source\PSoC4/UART_1_SPI_UART.c **** *  Disables TX interrupt sources.
 454:.\Generated_Source\PSoC4/UART_1_SPI_UART.c **** *
 455:.\Generated_Source\PSoC4/UART_1_SPI_UART.c **** * Parameters:
 456:.\Generated_Source\PSoC4/UART_1_SPI_UART.c **** *  None
 457:.\Generated_Source\PSoC4/UART_1_SPI_UART.c **** *
 458:.\Generated_Source\PSoC4/UART_1_SPI_UART.c **** * Return:
 459:.\Generated_Source\PSoC4/UART_1_SPI_UART.c **** *  Returns TX interrupt sources enabled before function call.
 460:.\Generated_Source\PSoC4/UART_1_SPI_UART.c **** *
 461:.\Generated_Source\PSoC4/UART_1_SPI_UART.c **** *******************************************************************************/
 462:.\Generated_Source\PSoC4/UART_1_SPI_UART.c **** uint32 UART_1_SpiUartDisableIntTx(void)
 463:.\Generated_Source\PSoC4/UART_1_SPI_UART.c **** {
 350              		.loc 1 463 0
 351              		.cfi_startproc
 464:.\Generated_Source\PSoC4/UART_1_SPI_UART.c ****     uint32 intSourceMask;
 465:.\Generated_Source\PSoC4/UART_1_SPI_UART.c **** 
 466:.\Generated_Source\PSoC4/UART_1_SPI_UART.c ****     intSourceMask = UART_1_GetTxInterruptMode();
 352              		.loc 1 466 0
 353 0000 024B     		ldr	r3, .L27
 354 0002 1868     		ldr	r0, [r3]
 355              	.LVL19:
 467:.\Generated_Source\PSoC4/UART_1_SPI_UART.c **** 
 468:.\Generated_Source\PSoC4/UART_1_SPI_UART.c ****     UART_1_SetTxInterruptMode(UART_1_NO_INTR_SOURCES);
 356              		.loc 1 468 0
 357 0004 0022     		mov	r2, #0
 358 0006 1A60     		str	r2, [r3]
 469:.\Generated_Source\PSoC4/UART_1_SPI_UART.c **** 
 470:.\Generated_Source\PSoC4/UART_1_SPI_UART.c ****     return (intSourceMask);
 471:.\Generated_Source\PSoC4/UART_1_SPI_UART.c **** }
 359              		.loc 1 471 0
 360              		@ sp needed
 361 0008 7047     		bx	lr
 362              	.L28:
 363 000a C046     		.align	2
 364              	.L27:
 365 000c 880F0740 		.word	1074204552
 366              		.cfi_endproc
 367              	.LFE8:
 368              		.size	UART_1_SpiUartDisableIntTx, .-UART_1_SpiUartDisableIntTx
 369              		.section	.text.UART_1_PutWordInRxBuffer,"ax",%progbits
 370              		.align	2
 371              		.global	UART_1_PutWordInRxBuffer
 372              		.code	16
 373              		.thumb_func
 374              		.type	UART_1_PutWordInRxBuffer, %function
 375              	UART_1_PutWordInRxBuffer:
 376              	.LFB9:
 472:.\Generated_Source\PSoC4/UART_1_SPI_UART.c **** 
 473:.\Generated_Source\PSoC4/UART_1_SPI_UART.c **** 
 474:.\Generated_Source\PSoC4/UART_1_SPI_UART.c **** #if(UART_1_SCB_MODE_UNCONFIG_CONST_CFG)
 475:.\Generated_Source\PSoC4/UART_1_SPI_UART.c ****     /*******************************************************************************
 476:.\Generated_Source\PSoC4/UART_1_SPI_UART.c ****     * Function Name: UART_1_PutWordInRxBuffer
 477:.\Generated_Source\PSoC4/UART_1_SPI_UART.c ****     ********************************************************************************
 478:.\Generated_Source\PSoC4/UART_1_SPI_UART.c ****     *
 479:.\Generated_Source\PSoC4/UART_1_SPI_UART.c ****     * Summary:
ARM GAS  C:\Users\Marcelo\AppData\Local\Temp\ccDtxF2N.s 			page 16


 480:.\Generated_Source\PSoC4/UART_1_SPI_UART.c ****     *  Stores a byte/word into the RX buffer.
 481:.\Generated_Source\PSoC4/UART_1_SPI_UART.c ****     *  Only available in the Unconfigured operation mode.
 482:.\Generated_Source\PSoC4/UART_1_SPI_UART.c ****     *
 483:.\Generated_Source\PSoC4/UART_1_SPI_UART.c ****     * Parameters:
 484:.\Generated_Source\PSoC4/UART_1_SPI_UART.c ****     *  index:      index to store data byte/word in the RX buffer.
 485:.\Generated_Source\PSoC4/UART_1_SPI_UART.c ****     *  rxDataByte: byte/word to store.
 486:.\Generated_Source\PSoC4/UART_1_SPI_UART.c ****     *
 487:.\Generated_Source\PSoC4/UART_1_SPI_UART.c ****     * Return:
 488:.\Generated_Source\PSoC4/UART_1_SPI_UART.c ****     *  None
 489:.\Generated_Source\PSoC4/UART_1_SPI_UART.c ****     *
 490:.\Generated_Source\PSoC4/UART_1_SPI_UART.c ****     *******************************************************************************/
 491:.\Generated_Source\PSoC4/UART_1_SPI_UART.c ****     void UART_1_PutWordInRxBuffer(uint32 idx, uint32 rxDataByte)
 492:.\Generated_Source\PSoC4/UART_1_SPI_UART.c ****     {
 377              		.loc 1 492 0
 378              		.cfi_startproc
 379              	.LVL20:
 380 0000 10B5     		push	{r4, lr}
 381              		.cfi_def_cfa_offset 8
 382              		.cfi_offset 4, -8
 383              		.cfi_offset 14, -4
 493:.\Generated_Source\PSoC4/UART_1_SPI_UART.c ****         /* Put data in buffer */
 494:.\Generated_Source\PSoC4/UART_1_SPI_UART.c ****         if (UART_1_ONE_BYTE_WIDTH == UART_1_rxDataBits)
 384              		.loc 1 494 0
 385 0002 0B4B     		ldr	r3, .L32
 386 0004 1B78     		ldrb	r3, [r3]
 387 0006 082B     		cmp	r3, #8
 388 0008 05D1     		bne	.L30
 495:.\Generated_Source\PSoC4/UART_1_SPI_UART.c ****         {
 496:.\Generated_Source\PSoC4/UART_1_SPI_UART.c ****             UART_1_rxBuffer[idx] = ((uint8) rxDataByte);
 389              		.loc 1 496 0
 390 000a 0A4B     		ldr	r3, .L32+4
 391 000c 1B68     		ldr	r3, [r3]
 392 000e 1818     		add	r0, r3, r0
 393              	.LVL21:
 394 0010 C9B2     		uxtb	r1, r1
 395              	.LVL22:
 396 0012 0170     		strb	r1, [r0]
 397 0014 0BE0     		b	.L29
 398              	.LVL23:
 399              	.L30:
 497:.\Generated_Source\PSoC4/UART_1_SPI_UART.c ****         }
 498:.\Generated_Source\PSoC4/UART_1_SPI_UART.c ****         else
 499:.\Generated_Source\PSoC4/UART_1_SPI_UART.c ****         {
 500:.\Generated_Source\PSoC4/UART_1_SPI_UART.c ****             UART_1_rxBuffer[(uint32)(idx << 1u)]      = LO8(LO16(rxDataByte));
 400              		.loc 1 500 0
 401 0016 4000     		lsl	r0, r0, #1
 402              	.LVL24:
 403 0018 064B     		ldr	r3, .L32+4
 404 001a 1C68     		ldr	r4, [r3]
 405 001c 2218     		add	r2, r4, r0
 406 001e CCB2     		uxtb	r4, r1
 407 0020 1470     		strb	r4, [r2]
 501:.\Generated_Source\PSoC4/UART_1_SPI_UART.c ****             UART_1_rxBuffer[(uint32)(idx << 1u) + 1u] = HI8(LO16(rxDataByte));
 408              		.loc 1 501 0
 409 0022 0130     		add	r0, r0, #1
 410 0024 1B68     		ldr	r3, [r3]
 411 0026 1818     		add	r0, r3, r0
ARM GAS  C:\Users\Marcelo\AppData\Local\Temp\ccDtxF2N.s 			page 17


 412 0028 89B2     		uxth	r1, r1
 413              	.LVL25:
 414 002a 090A     		lsr	r1, r1, #8
 415 002c 0170     		strb	r1, [r0]
 416              	.L29:
 502:.\Generated_Source\PSoC4/UART_1_SPI_UART.c ****         }
 503:.\Generated_Source\PSoC4/UART_1_SPI_UART.c ****     }
 417              		.loc 1 503 0
 418              		@ sp needed
 419 002e 10BD     		pop	{r4, pc}
 420              	.L33:
 421              		.align	2
 422              	.L32:
 423 0030 00000000 		.word	UART_1_rxDataBits
 424 0034 00000000 		.word	UART_1_rxBuffer
 425              		.cfi_endproc
 426              	.LFE9:
 427              		.size	UART_1_PutWordInRxBuffer, .-UART_1_PutWordInRxBuffer
 428              		.section	.text.UART_1_GetWordFromRxBuffer,"ax",%progbits
 429              		.align	2
 430              		.global	UART_1_GetWordFromRxBuffer
 431              		.code	16
 432              		.thumb_func
 433              		.type	UART_1_GetWordFromRxBuffer, %function
 434              	UART_1_GetWordFromRxBuffer:
 435              	.LFB10:
 504:.\Generated_Source\PSoC4/UART_1_SPI_UART.c **** 
 505:.\Generated_Source\PSoC4/UART_1_SPI_UART.c **** 
 506:.\Generated_Source\PSoC4/UART_1_SPI_UART.c ****     /*******************************************************************************
 507:.\Generated_Source\PSoC4/UART_1_SPI_UART.c ****     * Function Name: UART_1_GetWordFromRxBuffer
 508:.\Generated_Source\PSoC4/UART_1_SPI_UART.c ****     ********************************************************************************
 509:.\Generated_Source\PSoC4/UART_1_SPI_UART.c ****     *
 510:.\Generated_Source\PSoC4/UART_1_SPI_UART.c ****     * Summary:
 511:.\Generated_Source\PSoC4/UART_1_SPI_UART.c ****     *  Reads byte/word from RX buffer.
 512:.\Generated_Source\PSoC4/UART_1_SPI_UART.c ****     *  Only available in the Unconfigured operation mode.
 513:.\Generated_Source\PSoC4/UART_1_SPI_UART.c ****     *
 514:.\Generated_Source\PSoC4/UART_1_SPI_UART.c ****     * Parameters:
 515:.\Generated_Source\PSoC4/UART_1_SPI_UART.c ****     *  None
 516:.\Generated_Source\PSoC4/UART_1_SPI_UART.c ****     *
 517:.\Generated_Source\PSoC4/UART_1_SPI_UART.c ****     * Return:
 518:.\Generated_Source\PSoC4/UART_1_SPI_UART.c ****     *  Returns byte/word read from RX buffer.
 519:.\Generated_Source\PSoC4/UART_1_SPI_UART.c ****     *
 520:.\Generated_Source\PSoC4/UART_1_SPI_UART.c ****     *******************************************************************************/
 521:.\Generated_Source\PSoC4/UART_1_SPI_UART.c ****     uint32 UART_1_GetWordFromRxBuffer(uint32 idx)
 522:.\Generated_Source\PSoC4/UART_1_SPI_UART.c ****     {
 436              		.loc 1 522 0
 437              		.cfi_startproc
 438              	.LVL26:
 523:.\Generated_Source\PSoC4/UART_1_SPI_UART.c ****         uint32 value;
 524:.\Generated_Source\PSoC4/UART_1_SPI_UART.c **** 
 525:.\Generated_Source\PSoC4/UART_1_SPI_UART.c ****         if (UART_1_ONE_BYTE_WIDTH == UART_1_rxDataBits)
 439              		.loc 1 525 0
 440 0000 0A49     		ldr	r1, .L37
 441 0002 0978     		ldrb	r1, [r1]
 442 0004 0829     		cmp	r1, #8
 443 0006 05D1     		bne	.L35
 526:.\Generated_Source\PSoC4/UART_1_SPI_UART.c ****         {
ARM GAS  C:\Users\Marcelo\AppData\Local\Temp\ccDtxF2N.s 			page 18


 527:.\Generated_Source\PSoC4/UART_1_SPI_UART.c ****             value = UART_1_rxBuffer[idx];
 444              		.loc 1 527 0
 445 0008 094B     		ldr	r3, .L37+4
 446 000a 1A68     		ldr	r2, [r3]
 447 000c 1018     		add	r0, r2, r0
 448              	.LVL27:
 449 000e 0078     		ldrb	r0, [r0]
 450 0010 C0B2     		uxtb	r0, r0
 451              	.LVL28:
 452 0012 09E0     		b	.L36
 453              	.LVL29:
 454              	.L35:
 528:.\Generated_Source\PSoC4/UART_1_SPI_UART.c ****         }
 529:.\Generated_Source\PSoC4/UART_1_SPI_UART.c ****         else
 530:.\Generated_Source\PSoC4/UART_1_SPI_UART.c ****         {
 531:.\Generated_Source\PSoC4/UART_1_SPI_UART.c ****             value  = (uint32) UART_1_rxBuffer[(uint32)(idx << 1u)];
 455              		.loc 1 531 0
 456 0014 064B     		ldr	r3, .L37+4
 457 0016 1B68     		ldr	r3, [r3]
 458 0018 4200     		lsl	r2, r0, #1
 459 001a 9918     		add	r1, r3, r2
 460 001c 0978     		ldrb	r1, [r1]
 461              	.LVL30:
 532:.\Generated_Source\PSoC4/UART_1_SPI_UART.c ****             value |= (uint32) ((uint32)UART_1_rxBuffer[(uint32)(idx << 1u) + 1u] << 8u);
 462              		.loc 1 532 0
 463 001e 0132     		add	r2, r2, #1
 464 0020 9B18     		add	r3, r3, r2
 465 0022 1878     		ldrb	r0, [r3]
 466              	.LVL31:
 467 0024 0002     		lsl	r0, r0, #8
 468 0026 0843     		orr	r0, r1
 469              	.LVL32:
 470              	.L36:
 533:.\Generated_Source\PSoC4/UART_1_SPI_UART.c ****         }
 534:.\Generated_Source\PSoC4/UART_1_SPI_UART.c **** 
 535:.\Generated_Source\PSoC4/UART_1_SPI_UART.c ****         return (value);
 536:.\Generated_Source\PSoC4/UART_1_SPI_UART.c ****     }
 471              		.loc 1 536 0
 472              		@ sp needed
 473 0028 7047     		bx	lr
 474              	.L38:
 475 002a C046     		.align	2
 476              	.L37:
 477 002c 00000000 		.word	UART_1_rxDataBits
 478 0030 00000000 		.word	UART_1_rxBuffer
 479              		.cfi_endproc
 480              	.LFE10:
 481              		.size	UART_1_GetWordFromRxBuffer, .-UART_1_GetWordFromRxBuffer
 482              		.section	.text.UART_1_SpiUartReadRxData,"ax",%progbits
 483              		.align	2
 484              		.global	UART_1_SpiUartReadRxData
 485              		.code	16
 486              		.thumb_func
 487              		.type	UART_1_SpiUartReadRxData, %function
 488              	UART_1_SpiUartReadRxData:
 489              	.LFB0:
  70:.\Generated_Source\PSoC4/UART_1_SPI_UART.c ****     {
ARM GAS  C:\Users\Marcelo\AppData\Local\Temp\ccDtxF2N.s 			page 19


 490              		.loc 1 70 0
 491              		.cfi_startproc
 492 0000 10B5     		push	{r4, lr}
 493              		.cfi_def_cfa_offset 8
 494              		.cfi_offset 4, -8
 495              		.cfi_offset 14, -4
 496              	.LVL33:
  77:.\Generated_Source\PSoC4/UART_1_SPI_UART.c ****         if (UART_1_CHECK_RX_SW_BUFFER)
 497              		.loc 1 77 0
 498 0002 0F4B     		ldr	r3, .L45
 499 0004 1B68     		ldr	r3, [r3]
 500 0006 002B     		cmp	r3, #0
 501 0008 14D0     		beq	.L40
  79:.\Generated_Source\PSoC4/UART_1_SPI_UART.c ****             if (UART_1_rxBufferHead != UART_1_rxBufferTail)
 502              		.loc 1 79 0
 503 000a 0E4B     		ldr	r3, .L45+4
 504 000c 1A68     		ldr	r2, [r3]
 505 000e 0E4B     		ldr	r3, .L45+8
 506 0010 1B68     		ldr	r3, [r3]
 507 0012 9A42     		cmp	r2, r3
 508 0014 11D0     		beq	.L43
  84:.\Generated_Source\PSoC4/UART_1_SPI_UART.c ****                 locTail = (UART_1_rxBufferTail + 1u);
 509              		.loc 1 84 0
 510 0016 0C4B     		ldr	r3, .L45+8
 511 0018 1C68     		ldr	r4, [r3]
 512 001a 0134     		add	r4, r4, #1
 513              	.LVL34:
  86:.\Generated_Source\PSoC4/UART_1_SPI_UART.c ****                 if (UART_1_INTERNAL_RX_BUFFER_SIZE == locTail)
 514              		.loc 1 86 0
 515 001c 0B4B     		ldr	r3, .L45+12
 516 001e 1B68     		ldr	r3, [r3]
 517 0020 0133     		add	r3, r3, #1
 518 0022 A342     		cmp	r3, r4
 519 0024 00D1     		bne	.L42
  88:.\Generated_Source\PSoC4/UART_1_SPI_UART.c ****                     locTail = 0u;
 520              		.loc 1 88 0
 521 0026 0024     		mov	r4, #0
 522              	.LVL35:
 523              	.L42:
  92:.\Generated_Source\PSoC4/UART_1_SPI_UART.c ****                 rxData = UART_1_GetWordFromRxBuffer(locTail);
 524              		.loc 1 92 0
 525 0028 201C     		mov	r0, r4
 526 002a FFF7FEFF 		bl	UART_1_GetWordFromRxBuffer
 527              	.LVL36:
  95:.\Generated_Source\PSoC4/UART_1_SPI_UART.c ****                 UART_1_rxBufferTail = locTail;
 528              		.loc 1 95 0
 529 002e 064B     		ldr	r3, .L45+8
 530 0030 1C60     		str	r4, [r3]
 531 0032 03E0     		b	.L41
 532              	.LVL37:
 533              	.L40:
 115:.\Generated_Source\PSoC4/UART_1_SPI_UART.c ****             rxData = UART_1_RX_FIFO_RD_REG;
 534              		.loc 1 115 0
 535 0034 064B     		ldr	r3, .L45+16
 536 0036 1868     		ldr	r0, [r3]
 537              	.LVL38:
 538 0038 00E0     		b	.L41
ARM GAS  C:\Users\Marcelo\AppData\Local\Temp\ccDtxF2N.s 			page 20


 539              	.LVL39:
 540              	.L43:
  71:.\Generated_Source\PSoC4/UART_1_SPI_UART.c ****         uint32 rxData = 0u;
 541              		.loc 1 71 0
 542 003a 0020     		mov	r0, #0
 543              	.LVL40:
 544              	.L41:
 120:.\Generated_Source\PSoC4/UART_1_SPI_UART.c ****     }
 545              		.loc 1 120 0
 546              		@ sp needed
 547 003c 10BD     		pop	{r4, pc}
 548              	.L46:
 549 003e C046     		.align	2
 550              	.L45:
 551 0040 00000000 		.word	UART_1_rxBuffer
 552 0044 00000000 		.word	UART_1_rxBufferHead
 553 0048 00000000 		.word	UART_1_rxBufferTail
 554 004c 00000000 		.word	UART_1_rxBufferSize
 555 0050 40030740 		.word	1074201408
 556              		.cfi_endproc
 557              	.LFE0:
 558              		.size	UART_1_SpiUartReadRxData, .-UART_1_SpiUartReadRxData
 559              		.section	.text.UART_1_PutWordInTxBuffer,"ax",%progbits
 560              		.align	2
 561              		.global	UART_1_PutWordInTxBuffer
 562              		.code	16
 563              		.thumb_func
 564              		.type	UART_1_PutWordInTxBuffer, %function
 565              	UART_1_PutWordInTxBuffer:
 566              	.LFB11:
 537:.\Generated_Source\PSoC4/UART_1_SPI_UART.c **** 
 538:.\Generated_Source\PSoC4/UART_1_SPI_UART.c **** 
 539:.\Generated_Source\PSoC4/UART_1_SPI_UART.c ****     /*******************************************************************************
 540:.\Generated_Source\PSoC4/UART_1_SPI_UART.c ****     * Function Name: UART_1_PutWordInTxBuffer
 541:.\Generated_Source\PSoC4/UART_1_SPI_UART.c ****     ********************************************************************************
 542:.\Generated_Source\PSoC4/UART_1_SPI_UART.c ****     *
 543:.\Generated_Source\PSoC4/UART_1_SPI_UART.c ****     * Summary:
 544:.\Generated_Source\PSoC4/UART_1_SPI_UART.c ****     *  Stores byte/word into the TX buffer.
 545:.\Generated_Source\PSoC4/UART_1_SPI_UART.c ****     *  Only available in the Unconfigured operation mode.
 546:.\Generated_Source\PSoC4/UART_1_SPI_UART.c ****     *
 547:.\Generated_Source\PSoC4/UART_1_SPI_UART.c ****     * Parameters:
 548:.\Generated_Source\PSoC4/UART_1_SPI_UART.c ****     *  idx:        index to store data byte/word in the TX buffer.
 549:.\Generated_Source\PSoC4/UART_1_SPI_UART.c ****     *  txDataByte: byte/word to store.
 550:.\Generated_Source\PSoC4/UART_1_SPI_UART.c ****     *
 551:.\Generated_Source\PSoC4/UART_1_SPI_UART.c ****     * Return:
 552:.\Generated_Source\PSoC4/UART_1_SPI_UART.c ****     *  None
 553:.\Generated_Source\PSoC4/UART_1_SPI_UART.c ****     *
 554:.\Generated_Source\PSoC4/UART_1_SPI_UART.c ****     *******************************************************************************/
 555:.\Generated_Source\PSoC4/UART_1_SPI_UART.c ****     void UART_1_PutWordInTxBuffer(uint32 idx, uint32 txDataByte)
 556:.\Generated_Source\PSoC4/UART_1_SPI_UART.c ****     {
 567              		.loc 1 556 0
 568              		.cfi_startproc
 569              	.LVL41:
 570 0000 10B5     		push	{r4, lr}
 571              		.cfi_def_cfa_offset 8
 572              		.cfi_offset 4, -8
 573              		.cfi_offset 14, -4
ARM GAS  C:\Users\Marcelo\AppData\Local\Temp\ccDtxF2N.s 			page 21


 557:.\Generated_Source\PSoC4/UART_1_SPI_UART.c ****         /* Put data in buffer */
 558:.\Generated_Source\PSoC4/UART_1_SPI_UART.c ****         if (UART_1_ONE_BYTE_WIDTH == UART_1_txDataBits)
 574              		.loc 1 558 0
 575 0002 0B4B     		ldr	r3, .L50
 576 0004 1B78     		ldrb	r3, [r3]
 577 0006 082B     		cmp	r3, #8
 578 0008 05D1     		bne	.L48
 559:.\Generated_Source\PSoC4/UART_1_SPI_UART.c ****         {
 560:.\Generated_Source\PSoC4/UART_1_SPI_UART.c ****             UART_1_txBuffer[idx] = ((uint8) txDataByte);
 579              		.loc 1 560 0
 580 000a 0A4B     		ldr	r3, .L50+4
 581 000c 1B68     		ldr	r3, [r3]
 582 000e 1818     		add	r0, r3, r0
 583              	.LVL42:
 584 0010 C9B2     		uxtb	r1, r1
 585              	.LVL43:
 586 0012 0170     		strb	r1, [r0]
 587 0014 0BE0     		b	.L47
 588              	.LVL44:
 589              	.L48:
 561:.\Generated_Source\PSoC4/UART_1_SPI_UART.c ****         }
 562:.\Generated_Source\PSoC4/UART_1_SPI_UART.c ****         else
 563:.\Generated_Source\PSoC4/UART_1_SPI_UART.c ****         {
 564:.\Generated_Source\PSoC4/UART_1_SPI_UART.c ****             UART_1_txBuffer[(uint32)(idx << 1u)]      = LO8(LO16(txDataByte));
 590              		.loc 1 564 0
 591 0016 4000     		lsl	r0, r0, #1
 592              	.LVL45:
 593 0018 064B     		ldr	r3, .L50+4
 594 001a 1C68     		ldr	r4, [r3]
 595 001c 2218     		add	r2, r4, r0
 596 001e CCB2     		uxtb	r4, r1
 597 0020 1470     		strb	r4, [r2]
 565:.\Generated_Source\PSoC4/UART_1_SPI_UART.c ****             UART_1_txBuffer[(uint32)(idx << 1u) + 1u] = HI8(LO16(txDataByte));
 598              		.loc 1 565 0
 599 0022 0130     		add	r0, r0, #1
 600 0024 1B68     		ldr	r3, [r3]
 601 0026 1818     		add	r0, r3, r0
 602 0028 89B2     		uxth	r1, r1
 603              	.LVL46:
 604 002a 090A     		lsr	r1, r1, #8
 605 002c 0170     		strb	r1, [r0]
 606              	.L47:
 566:.\Generated_Source\PSoC4/UART_1_SPI_UART.c ****         }
 567:.\Generated_Source\PSoC4/UART_1_SPI_UART.c ****     }
 607              		.loc 1 567 0
 608              		@ sp needed
 609 002e 10BD     		pop	{r4, pc}
 610              	.L51:
 611              		.align	2
 612              	.L50:
 613 0030 00000000 		.word	UART_1_txDataBits
 614 0034 00000000 		.word	UART_1_txBuffer
 615              		.cfi_endproc
 616              	.LFE11:
 617              		.size	UART_1_PutWordInTxBuffer, .-UART_1_PutWordInTxBuffer
 618              		.section	.text.UART_1_SpiUartWriteTxData,"ax",%progbits
 619              		.align	2
ARM GAS  C:\Users\Marcelo\AppData\Local\Temp\ccDtxF2N.s 			page 22


 620              		.global	UART_1_SpiUartWriteTxData
 621              		.code	16
 622              		.thumb_func
 623              		.type	UART_1_SpiUartWriteTxData, %function
 624              	UART_1_SpiUartWriteTxData:
 625              	.LFB3:
 240:.\Generated_Source\PSoC4/UART_1_SPI_UART.c ****     {
 626              		.loc 1 240 0
 627              		.cfi_startproc
 628              	.LVL47:
 629 0000 38B5     		push	{r3, r4, r5, lr}
 630              		.cfi_def_cfa_offset 16
 631              		.cfi_offset 3, -16
 632              		.cfi_offset 4, -12
 633              		.cfi_offset 5, -8
 634              		.cfi_offset 14, -4
 635 0002 011C     		mov	r1, r0
 245:.\Generated_Source\PSoC4/UART_1_SPI_UART.c ****         if (UART_1_CHECK_TX_SW_BUFFER)
 636              		.loc 1 245 0
 637 0004 1C4B     		ldr	r3, .L63
 638 0006 1B68     		ldr	r3, [r3]
 639 0008 002B     		cmp	r3, #0
 640 000a 2CD0     		beq	.L53
 248:.\Generated_Source\PSoC4/UART_1_SPI_UART.c ****             if ((UART_1_txBufferHead == UART_1_txBufferTail) &&
 641              		.loc 1 248 0
 642 000c 1B4B     		ldr	r3, .L63+4
 643 000e 1A68     		ldr	r2, [r3]
 644 0010 1B4B     		ldr	r3, .L63+8
 645 0012 1B68     		ldr	r3, [r3]
 646 0014 9A42     		cmp	r2, r3
 647 0016 08D1     		bne	.L54
 249:.\Generated_Source\PSoC4/UART_1_SPI_UART.c ****                 (UART_1_SPI_UART_FIFO_SIZE != UART_1_GET_TX_FIFO_ENTRIES))
 648              		.loc 1 249 0 discriminator 1
 649 0018 1A4B     		ldr	r3, .L63+12
 650 001a 1B68     		ldr	r3, [r3]
 651 001c 0F22     		mov	r2, #15
 652 001e 1340     		and	r3, r2
 248:.\Generated_Source\PSoC4/UART_1_SPI_UART.c ****             if ((UART_1_txBufferHead == UART_1_txBufferTail) &&
 653              		.loc 1 248 0 discriminator 1
 654 0020 082B     		cmp	r3, #8
 655 0022 02D0     		beq	.L54
 252:.\Generated_Source\PSoC4/UART_1_SPI_UART.c ****                 UART_1_TX_FIFO_WR_REG = txData;
 656              		.loc 1 252 0
 657 0024 184B     		ldr	r3, .L63+16
 658 0026 1860     		str	r0, [r3]
 659 0028 25E0     		b	.L52
 660              	.L54:
 258:.\Generated_Source\PSoC4/UART_1_SPI_UART.c ****                 locHead = (UART_1_txBufferHead + 1u);
 661              		.loc 1 258 0
 662 002a 144B     		ldr	r3, .L63+4
 663 002c 1C68     		ldr	r4, [r3]
 664 002e 0134     		add	r4, r4, #1
 665              	.LVL48:
 261:.\Generated_Source\PSoC4/UART_1_SPI_UART.c ****                 if (UART_1_TX_BUFFER_SIZE == locHead)
 666              		.loc 1 261 0
 667 0030 164B     		ldr	r3, .L63+20
 668 0032 1B68     		ldr	r3, [r3]
ARM GAS  C:\Users\Marcelo\AppData\Local\Temp\ccDtxF2N.s 			page 23


 669 0034 A342     		cmp	r3, r4
 670 0036 00D1     		bne	.L57
 263:.\Generated_Source\PSoC4/UART_1_SPI_UART.c ****                     locHead = 0u;
 671              		.loc 1 263 0
 672 0038 0024     		mov	r4, #0
 673              	.LVL49:
 674              	.L57:
 267:.\Generated_Source\PSoC4/UART_1_SPI_UART.c ****                 while (locHead == UART_1_txBufferTail)
 675              		.loc 1 267 0 discriminator 1
 676 003a 114A     		ldr	r2, .L63+8
 677              	.L59:
 678              	.LVL50:
 679 003c 1368     		ldr	r3, [r2]
 680 003e 9C42     		cmp	r4, r3
 681 0040 FCD0     		beq	.L59
 274:.\Generated_Source\PSoC4/UART_1_SPI_UART.c ****                 UART_1_ClearTxInterruptSource(UART_1_INTR_TX_NOT_FULL);
 682              		.loc 1 274 0
 683 0042 0225     		mov	r5, #2
 684 0044 124B     		ldr	r3, .L63+24
 685 0046 1D60     		str	r5, [r3]
 276:.\Generated_Source\PSoC4/UART_1_SPI_UART.c ****                 UART_1_PutWordInTxBuffer(locHead, txData);
 686              		.loc 1 276 0
 687 0048 201C     		mov	r0, r4
 688              	.LVL51:
 689 004a FFF7FEFF 		bl	UART_1_PutWordInTxBuffer
 690              	.LVL52:
 278:.\Generated_Source\PSoC4/UART_1_SPI_UART.c ****                 UART_1_txBufferHead = locHead;
 691              		.loc 1 278 0
 692 004e 0B4B     		ldr	r3, .L63+4
 693 0050 1C60     		str	r4, [r3]
 281:.\Generated_Source\PSoC4/UART_1_SPI_UART.c ****                 if (0u == (UART_1_INTR_TX_MASK_REG & UART_1_INTR_TX_NOT_FULL))
 694              		.loc 1 281 0
 695 0052 104B     		ldr	r3, .L63+28
 696 0054 1B68     		ldr	r3, [r3]
 697 0056 1D42     		tst	r5, r3
 698 0058 0DD1     		bne	.L52
 284:.\Generated_Source\PSoC4/UART_1_SPI_UART.c ****                     UART_1_INTR_TX_MASK_REG |= (uint32) UART_1_INTR_TX_NOT_FULL;
 699              		.loc 1 284 0
 700 005a 0E4B     		ldr	r3, .L63+28
 701 005c 1968     		ldr	r1, [r3]
 702 005e 0222     		mov	r2, #2
 703 0060 0A43     		orr	r2, r1
 704 0062 1A60     		str	r2, [r3]
 705 0064 07E0     		b	.L52
 706              	.LVL53:
 707              	.L53:
 291:.\Generated_Source\PSoC4/UART_1_SPI_UART.c ****             while (UART_1_SPI_UART_FIFO_SIZE == UART_1_GET_TX_FIFO_ENTRIES)
 708              		.loc 1 291 0 discriminator 1
 709 0066 0748     		ldr	r0, .L63+12
 710              	.LVL54:
 711 0068 0F22     		mov	r2, #15
 712              	.L60:
 713 006a 0368     		ldr	r3, [r0]
 714 006c 1340     		and	r3, r2
 715 006e 082B     		cmp	r3, #8
 716 0070 FBD0     		beq	.L60
 295:.\Generated_Source\PSoC4/UART_1_SPI_UART.c ****             UART_1_TX_FIFO_WR_REG = txData;
ARM GAS  C:\Users\Marcelo\AppData\Local\Temp\ccDtxF2N.s 			page 24


 717              		.loc 1 295 0
 718 0072 054B     		ldr	r3, .L63+16
 719 0074 1960     		str	r1, [r3]
 720              	.LVL55:
 721              	.L52:
 298:.\Generated_Source\PSoC4/UART_1_SPI_UART.c ****     }
 722              		.loc 1 298 0
 723              		@ sp needed
 724 0076 38BD     		pop	{r3, r4, r5, pc}
 725              	.L64:
 726              		.align	2
 727              	.L63:
 728 0078 00000000 		.word	UART_1_txBuffer
 729 007c 00000000 		.word	UART_1_txBufferHead
 730 0080 00000000 		.word	UART_1_txBufferTail
 731 0084 08020740 		.word	1074201096
 732 0088 40020740 		.word	1074201152
 733 008c 00000000 		.word	UART_1_txBufferSize
 734 0090 800F0740 		.word	1074204544
 735 0094 880F0740 		.word	1074204552
 736              		.cfi_endproc
 737              	.LFE3:
 738              		.size	UART_1_SpiUartWriteTxData, .-UART_1_SpiUartWriteTxData
 739              		.section	.text.UART_1_SpiUartPutArray,"ax",%progbits
 740              		.align	2
 741              		.global	UART_1_SpiUartPutArray
 742              		.code	16
 743              		.thumb_func
 744              		.type	UART_1_SpiUartPutArray, %function
 745              	UART_1_SpiUartPutArray:
 746              	.LFB4:
 320:.\Generated_Source\PSoC4/UART_1_SPI_UART.c ****     {
 747              		.loc 1 320 0
 748              		.cfi_startproc
 749              	.LVL56:
 750 0000 70B5     		push	{r4, r5, r6, lr}
 751              		.cfi_def_cfa_offset 16
 752              		.cfi_offset 4, -16
 753              		.cfi_offset 5, -12
 754              		.cfi_offset 6, -8
 755              		.cfi_offset 14, -4
 756 0002 061C     		mov	r6, r0
 757 0004 0D1C     		mov	r5, r1
 758              	.LVL57:
 323:.\Generated_Source\PSoC4/UART_1_SPI_UART.c ****         for (i=0u; i < count; i++)
 759              		.loc 1 323 0
 760 0006 0024     		mov	r4, #0
 761 0008 03E0     		b	.L66
 762              	.LVL58:
 763              	.L67:
 325:.\Generated_Source\PSoC4/UART_1_SPI_UART.c ****             UART_1_SpiUartWriteTxData((uint32) wrBuf[i]);
 764              		.loc 1 325 0 discriminator 2
 765 000a 305D     		ldrb	r0, [r6, r4]
 766 000c FFF7FEFF 		bl	UART_1_SpiUartWriteTxData
 767              	.LVL59:
 323:.\Generated_Source\PSoC4/UART_1_SPI_UART.c ****         for (i=0u; i < count; i++)
 768              		.loc 1 323 0 discriminator 2
ARM GAS  C:\Users\Marcelo\AppData\Local\Temp\ccDtxF2N.s 			page 25


 769 0010 0134     		add	r4, r4, #1
 770              	.LVL60:
 771              	.L66:
 323:.\Generated_Source\PSoC4/UART_1_SPI_UART.c ****         for (i=0u; i < count; i++)
 772              		.loc 1 323 0 is_stmt 0 discriminator 1
 773 0012 AC42     		cmp	r4, r5
 774 0014 F9D3     		bcc	.L67
 327:.\Generated_Source\PSoC4/UART_1_SPI_UART.c ****     }
 775              		.loc 1 327 0 is_stmt 1
 776              		@ sp needed
 777              	.LVL61:
 778              	.LVL62:
 779              	.LVL63:
 780 0016 70BD     		pop	{r4, r5, r6, pc}
 781              		.cfi_endproc
 782              	.LFE4:
 783              		.size	UART_1_SpiUartPutArray, .-UART_1_SpiUartPutArray
 784              		.section	.text.UART_1_GetWordFromTxBuffer,"ax",%progbits
 785              		.align	2
 786              		.global	UART_1_GetWordFromTxBuffer
 787              		.code	16
 788              		.thumb_func
 789              		.type	UART_1_GetWordFromTxBuffer, %function
 790              	UART_1_GetWordFromTxBuffer:
 791              	.LFB12:
 568:.\Generated_Source\PSoC4/UART_1_SPI_UART.c **** 
 569:.\Generated_Source\PSoC4/UART_1_SPI_UART.c **** 
 570:.\Generated_Source\PSoC4/UART_1_SPI_UART.c ****     /*******************************************************************************
 571:.\Generated_Source\PSoC4/UART_1_SPI_UART.c ****     * Function Name: UART_1_GetWordFromTxBuffer
 572:.\Generated_Source\PSoC4/UART_1_SPI_UART.c ****     ********************************************************************************
 573:.\Generated_Source\PSoC4/UART_1_SPI_UART.c ****     *
 574:.\Generated_Source\PSoC4/UART_1_SPI_UART.c ****     * Summary:
 575:.\Generated_Source\PSoC4/UART_1_SPI_UART.c ****     *  Reads byte/word from the TX buffer.
 576:.\Generated_Source\PSoC4/UART_1_SPI_UART.c ****     *  Only available in the Unconfigured operation mode.
 577:.\Generated_Source\PSoC4/UART_1_SPI_UART.c ****     *
 578:.\Generated_Source\PSoC4/UART_1_SPI_UART.c ****     * Parameters:
 579:.\Generated_Source\PSoC4/UART_1_SPI_UART.c ****     *  idx: index to get data byte/word from the TX buffer.
 580:.\Generated_Source\PSoC4/UART_1_SPI_UART.c ****     *
 581:.\Generated_Source\PSoC4/UART_1_SPI_UART.c ****     * Return:
 582:.\Generated_Source\PSoC4/UART_1_SPI_UART.c ****     *  Returns byte/word read from the TX buffer.
 583:.\Generated_Source\PSoC4/UART_1_SPI_UART.c ****     *
 584:.\Generated_Source\PSoC4/UART_1_SPI_UART.c ****     *******************************************************************************/
 585:.\Generated_Source\PSoC4/UART_1_SPI_UART.c ****     uint32 UART_1_GetWordFromTxBuffer(uint32 idx)
 586:.\Generated_Source\PSoC4/UART_1_SPI_UART.c ****     {
 792              		.loc 1 586 0
 793              		.cfi_startproc
 794              	.LVL64:
 587:.\Generated_Source\PSoC4/UART_1_SPI_UART.c ****         uint32 value;
 588:.\Generated_Source\PSoC4/UART_1_SPI_UART.c **** 
 589:.\Generated_Source\PSoC4/UART_1_SPI_UART.c ****         if (UART_1_ONE_BYTE_WIDTH == UART_1_txDataBits)
 795              		.loc 1 589 0
 796 0000 0A49     		ldr	r1, .L71
 797 0002 0978     		ldrb	r1, [r1]
 798 0004 0829     		cmp	r1, #8
 799 0006 05D1     		bne	.L69
 590:.\Generated_Source\PSoC4/UART_1_SPI_UART.c ****         {
 591:.\Generated_Source\PSoC4/UART_1_SPI_UART.c ****             value = (uint32) UART_1_txBuffer[idx];
ARM GAS  C:\Users\Marcelo\AppData\Local\Temp\ccDtxF2N.s 			page 26


 800              		.loc 1 591 0
 801 0008 094B     		ldr	r3, .L71+4
 802 000a 1A68     		ldr	r2, [r3]
 803 000c 1018     		add	r0, r2, r0
 804              	.LVL65:
 805 000e 0078     		ldrb	r0, [r0]
 806 0010 C0B2     		uxtb	r0, r0
 807              	.LVL66:
 808 0012 09E0     		b	.L70
 809              	.LVL67:
 810              	.L69:
 592:.\Generated_Source\PSoC4/UART_1_SPI_UART.c ****         }
 593:.\Generated_Source\PSoC4/UART_1_SPI_UART.c ****         else
 594:.\Generated_Source\PSoC4/UART_1_SPI_UART.c ****         {
 595:.\Generated_Source\PSoC4/UART_1_SPI_UART.c ****             value  = (uint32) UART_1_txBuffer[(uint32)(idx << 1u)];
 811              		.loc 1 595 0
 812 0014 064B     		ldr	r3, .L71+4
 813 0016 1B68     		ldr	r3, [r3]
 814 0018 4200     		lsl	r2, r0, #1
 815 001a 9918     		add	r1, r3, r2
 816 001c 0978     		ldrb	r1, [r1]
 817              	.LVL68:
 596:.\Generated_Source\PSoC4/UART_1_SPI_UART.c ****             value |= (uint32) ((uint32) UART_1_txBuffer[(uint32)(idx << 1u) + 1u] << 8u);
 818              		.loc 1 596 0
 819 001e 0132     		add	r2, r2, #1
 820 0020 9B18     		add	r3, r3, r2
 821 0022 1878     		ldrb	r0, [r3]
 822              	.LVL69:
 823 0024 0002     		lsl	r0, r0, #8
 824 0026 0843     		orr	r0, r1
 825              	.LVL70:
 826              	.L70:
 597:.\Generated_Source\PSoC4/UART_1_SPI_UART.c ****         }
 598:.\Generated_Source\PSoC4/UART_1_SPI_UART.c **** 
 599:.\Generated_Source\PSoC4/UART_1_SPI_UART.c ****         return (value);
 600:.\Generated_Source\PSoC4/UART_1_SPI_UART.c ****     }
 827              		.loc 1 600 0
 828              		@ sp needed
 829 0028 7047     		bx	lr
 830              	.L72:
 831 002a C046     		.align	2
 832              	.L71:
 833 002c 00000000 		.word	UART_1_txDataBits
 834 0030 00000000 		.word	UART_1_txBuffer
 835              		.cfi_endproc
 836              	.LFE12:
 837              		.size	UART_1_GetWordFromTxBuffer, .-UART_1_GetWordFromTxBuffer
 838              		.comm	UART_1_txBufferTail,4,4
 839              		.comm	UART_1_txBufferHead,4,4
 840              		.comm	UART_1_rxBufferOverflow,1,1
 841              		.comm	UART_1_rxBufferTail,4,4
 842              		.comm	UART_1_rxBufferHead,4,4
 843              		.text
 844              	.Letext0:
 845              		.file 2 "Generated_Source\\PSoC4/cytypes.h"
 846              		.file 3 ".\\Generated_Source\\PSoC4\\UART_1_PVT.h"
 847              		.file 4 "Generated_Source\\PSoC4/CyLib.h"
ARM GAS  C:\Users\Marcelo\AppData\Local\Temp\ccDtxF2N.s 			page 27

