ARM GAS  C:\Users\marce\AppData\Local\Temp\ccozxPEf.s 			page 1


   1              		.cpu cortex-m0
   2              		.fpu softvfp
   3              		.eabi_attribute 20, 1
   4              		.eabi_attribute 21, 1
   5              		.eabi_attribute 23, 3
   6              		.eabi_attribute 24, 1
   7              		.eabi_attribute 25, 1
   8              		.eabi_attribute 26, 1
   9              		.eabi_attribute 30, 1
  10              		.eabi_attribute 34, 0
  11              		.eabi_attribute 18, 4
  12              		.code	16
  13              		.file	"UART_1_EZI2C.c"
  14              		.text
  15              	.Ltext0:
  16              		.cfi_sections	.debug_frame
  17              		.section	.text.UART_1_EzI2CUpdateRxMatchReg,"ax",%progbits
  18              		.align	2
  19              		.code	16
  20              		.thumb_func
  21              		.type	UART_1_EzI2CUpdateRxMatchReg, %function
  22              	UART_1_EzI2CUpdateRxMatchReg:
  23              	.LFB7:
  24              		.file 1 ".\\Generated_Source\\PSoC4\\UART_1_EZI2C.c"
   1:.\Generated_Source\PSoC4/UART_1_EZI2C.c **** /*******************************************************************************
   2:.\Generated_Source\PSoC4/UART_1_EZI2C.c **** * File Name: UART_1_EZI2C.c
   3:.\Generated_Source\PSoC4/UART_1_EZI2C.c **** * Version 3.0
   4:.\Generated_Source\PSoC4/UART_1_EZI2C.c **** *
   5:.\Generated_Source\PSoC4/UART_1_EZI2C.c **** * Description:
   6:.\Generated_Source\PSoC4/UART_1_EZI2C.c **** *  This file provides the source code to the API for the SCB Component in
   7:.\Generated_Source\PSoC4/UART_1_EZI2C.c **** *  EZI2C mode.
   8:.\Generated_Source\PSoC4/UART_1_EZI2C.c **** *
   9:.\Generated_Source\PSoC4/UART_1_EZI2C.c **** * Note:
  10:.\Generated_Source\PSoC4/UART_1_EZI2C.c **** *
  11:.\Generated_Source\PSoC4/UART_1_EZI2C.c **** *******************************************************************************
  12:.\Generated_Source\PSoC4/UART_1_EZI2C.c **** * Copyright 2013-2015, Cypress Semiconductor Corporation.  All rights reserved.
  13:.\Generated_Source\PSoC4/UART_1_EZI2C.c **** * You may use this file only in accordance with the license, terms, conditions,
  14:.\Generated_Source\PSoC4/UART_1_EZI2C.c **** * disclaimers, and limitations in the end user license agreement accompanying
  15:.\Generated_Source\PSoC4/UART_1_EZI2C.c **** * the software package with which this file was provided.
  16:.\Generated_Source\PSoC4/UART_1_EZI2C.c **** *******************************************************************************/
  17:.\Generated_Source\PSoC4/UART_1_EZI2C.c **** 
  18:.\Generated_Source\PSoC4/UART_1_EZI2C.c **** #include "UART_1_PVT.h"
  19:.\Generated_Source\PSoC4/UART_1_EZI2C.c **** #include "UART_1_EZI2C_PVT.h"
  20:.\Generated_Source\PSoC4/UART_1_EZI2C.c **** 
  21:.\Generated_Source\PSoC4/UART_1_EZI2C.c **** 
  22:.\Generated_Source\PSoC4/UART_1_EZI2C.c **** /***************************************
  23:.\Generated_Source\PSoC4/UART_1_EZI2C.c **** *      EZI2C Private Vars
  24:.\Generated_Source\PSoC4/UART_1_EZI2C.c **** ***************************************/
  25:.\Generated_Source\PSoC4/UART_1_EZI2C.c **** 
  26:.\Generated_Source\PSoC4/UART_1_EZI2C.c **** volatile uint8 UART_1_curStatus; /* Status byte */
  27:.\Generated_Source\PSoC4/UART_1_EZI2C.c **** uint8 UART_1_fsmState;           /* FSM state   */
  28:.\Generated_Source\PSoC4/UART_1_EZI2C.c **** 
  29:.\Generated_Source\PSoC4/UART_1_EZI2C.c **** /* Variables intended to be used with Buffer 1: Primary slave address */
  30:.\Generated_Source\PSoC4/UART_1_EZI2C.c **** volatile uint8 * UART_1_dataBuffer1; /* Pointer to data buffer 1 */
  31:.\Generated_Source\PSoC4/UART_1_EZI2C.c **** uint16 UART_1_bufSizeBuf1; /* Size of buffer 1 in bytes      */
  32:.\Generated_Source\PSoC4/UART_1_EZI2C.c **** uint16 UART_1_protectBuf1; /* Start index of write protected area buffer 1 */
  33:.\Generated_Source\PSoC4/UART_1_EZI2C.c **** uint16 UART_1_offsetBuf1; /* Current offset within buffer 1 */
ARM GAS  C:\Users\marce\AppData\Local\Temp\ccozxPEf.s 			page 2


  34:.\Generated_Source\PSoC4/UART_1_EZI2C.c **** uint16 UART_1_indexBuf1;  /* Current index within buffer 1  */
  35:.\Generated_Source\PSoC4/UART_1_EZI2C.c **** 
  36:.\Generated_Source\PSoC4/UART_1_EZI2C.c **** #if(UART_1_SECONDARY_ADDRESS_ENABLE_CONST)
  37:.\Generated_Source\PSoC4/UART_1_EZI2C.c ****     uint8 UART_1_addrBuf1; /* Primary slave address. Used for software comparison   */
  38:.\Generated_Source\PSoC4/UART_1_EZI2C.c ****     uint8 UART_1_addrBuf2; /* Secondary slave address. Used for software comparison */
  39:.\Generated_Source\PSoC4/UART_1_EZI2C.c **** 
  40:.\Generated_Source\PSoC4/UART_1_EZI2C.c ****     /* Variables intended to be used with Buffer 2: Primary slave address */
  41:.\Generated_Source\PSoC4/UART_1_EZI2C.c ****     volatile uint8 * UART_1_dataBuffer2; /* Pointer to data buffer 2 */
  42:.\Generated_Source\PSoC4/UART_1_EZI2C.c ****     uint16 UART_1_bufSizeBuf2; /* Size of buffer 2 in bytes      */
  43:.\Generated_Source\PSoC4/UART_1_EZI2C.c ****     uint16 UART_1_protectBuf2; /* Start index of write protected area buffer 2 */
  44:.\Generated_Source\PSoC4/UART_1_EZI2C.c ****     uint16 UART_1_offsetBuf2; /* Current offset within buffer 2 */
  45:.\Generated_Source\PSoC4/UART_1_EZI2C.c ****     uint16 UART_1_indexBuf2;  /* Current index within buffer 2  */
  46:.\Generated_Source\PSoC4/UART_1_EZI2C.c **** #endif /* (UART_1_SECONDARY_ADDRESS_ENABLE_CONST) */
  47:.\Generated_Source\PSoC4/UART_1_EZI2C.c **** 
  48:.\Generated_Source\PSoC4/UART_1_EZI2C.c **** 
  49:.\Generated_Source\PSoC4/UART_1_EZI2C.c **** /***************************************
  50:.\Generated_Source\PSoC4/UART_1_EZI2C.c **** *      EZI2C Private Functions
  51:.\Generated_Source\PSoC4/UART_1_EZI2C.c **** ***************************************/
  52:.\Generated_Source\PSoC4/UART_1_EZI2C.c **** 
  53:.\Generated_Source\PSoC4/UART_1_EZI2C.c **** #if(UART_1_SECONDARY_ADDRESS_ENABLE_CONST)
  54:.\Generated_Source\PSoC4/UART_1_EZI2C.c ****     static uint32 UART_1_EzI2CUpdateRxMatchReg(uint32 addr1, uint32 addr2);
  55:.\Generated_Source\PSoC4/UART_1_EZI2C.c **** #endif /* (UART_1_SECONDARY_ADDRESS_ENABLE_CONST) */
  56:.\Generated_Source\PSoC4/UART_1_EZI2C.c **** 
  57:.\Generated_Source\PSoC4/UART_1_EZI2C.c **** #if(UART_1_SCB_MODE_UNCONFIG_CONST_CFG)
  58:.\Generated_Source\PSoC4/UART_1_EZI2C.c **** 
  59:.\Generated_Source\PSoC4/UART_1_EZI2C.c ****     /***************************************
  60:.\Generated_Source\PSoC4/UART_1_EZI2C.c ****     *  Configuration Structure Initialization
  61:.\Generated_Source\PSoC4/UART_1_EZI2C.c ****     ***************************************/
  62:.\Generated_Source\PSoC4/UART_1_EZI2C.c **** 
  63:.\Generated_Source\PSoC4/UART_1_EZI2C.c ****     /* Constant configuration of EZI2C */
  64:.\Generated_Source\PSoC4/UART_1_EZI2C.c ****     const UART_1_EZI2C_INIT_STRUCT UART_1_configEzI2C =
  65:.\Generated_Source\PSoC4/UART_1_EZI2C.c ****     {
  66:.\Generated_Source\PSoC4/UART_1_EZI2C.c ****         UART_1_EZI2C_CLOCK_STRETCHING,
  67:.\Generated_Source\PSoC4/UART_1_EZI2C.c ****         UART_1_EZI2C_MEDIAN_FILTER_ENABLE,
  68:.\Generated_Source\PSoC4/UART_1_EZI2C.c ****         UART_1_EZI2C_NUMBER_OF_ADDRESSES,
  69:.\Generated_Source\PSoC4/UART_1_EZI2C.c ****         UART_1_EZI2C_PRIMARY_SLAVE_ADDRESS,
  70:.\Generated_Source\PSoC4/UART_1_EZI2C.c ****         UART_1_EZI2C_SECONDARY_SLAVE_ADDRESS,
  71:.\Generated_Source\PSoC4/UART_1_EZI2C.c ****         UART_1_EZI2C_SUB_ADDRESS_SIZE,
  72:.\Generated_Source\PSoC4/UART_1_EZI2C.c ****         UART_1_EZI2C_WAKE_ENABLE,
  73:.\Generated_Source\PSoC4/UART_1_EZI2C.c ****         UART_1_EZI2C_BYTE_MODE_ENABLE
  74:.\Generated_Source\PSoC4/UART_1_EZI2C.c ****     };
  75:.\Generated_Source\PSoC4/UART_1_EZI2C.c **** 
  76:.\Generated_Source\PSoC4/UART_1_EZI2C.c ****     /*******************************************************************************
  77:.\Generated_Source\PSoC4/UART_1_EZI2C.c ****     * Function Name: UART_1_EzI2CInit
  78:.\Generated_Source\PSoC4/UART_1_EZI2C.c ****     ********************************************************************************
  79:.\Generated_Source\PSoC4/UART_1_EZI2C.c ****     *
  80:.\Generated_Source\PSoC4/UART_1_EZI2C.c ****     * Summary:
  81:.\Generated_Source\PSoC4/UART_1_EZI2C.c ****     *  Configures the SCB for the EZI2C operation.
  82:.\Generated_Source\PSoC4/UART_1_EZI2C.c ****     *
  83:.\Generated_Source\PSoC4/UART_1_EZI2C.c ****     * Parameters:
  84:.\Generated_Source\PSoC4/UART_1_EZI2C.c ****     *  config:  Pointer to a structure that contains the following ordered list of
  85:.\Generated_Source\PSoC4/UART_1_EZI2C.c ****     *           fields. These fields match the selections available in the
  86:.\Generated_Source\PSoC4/UART_1_EZI2C.c ****     *           customizer.
  87:.\Generated_Source\PSoC4/UART_1_EZI2C.c ****     *
  88:.\Generated_Source\PSoC4/UART_1_EZI2C.c ****     * Return:
  89:.\Generated_Source\PSoC4/UART_1_EZI2C.c ****     *  None
  90:.\Generated_Source\PSoC4/UART_1_EZI2C.c ****     *
ARM GAS  C:\Users\marce\AppData\Local\Temp\ccozxPEf.s 			page 3


  91:.\Generated_Source\PSoC4/UART_1_EZI2C.c ****     *******************************************************************************/
  92:.\Generated_Source\PSoC4/UART_1_EZI2C.c ****     void UART_1_EzI2CInit(const UART_1_EZI2C_INIT_STRUCT *config)
  93:.\Generated_Source\PSoC4/UART_1_EZI2C.c ****     {
  94:.\Generated_Source\PSoC4/UART_1_EZI2C.c ****         if(NULL == config)
  95:.\Generated_Source\PSoC4/UART_1_EZI2C.c ****         {
  96:.\Generated_Source\PSoC4/UART_1_EZI2C.c ****             CYASSERT(0u != 0u); /* Halt execution due to bad function parameter */
  97:.\Generated_Source\PSoC4/UART_1_EZI2C.c ****         }
  98:.\Generated_Source\PSoC4/UART_1_EZI2C.c ****         else
  99:.\Generated_Source\PSoC4/UART_1_EZI2C.c ****         {
 100:.\Generated_Source\PSoC4/UART_1_EZI2C.c ****             /* Configure pins */
 101:.\Generated_Source\PSoC4/UART_1_EZI2C.c ****             UART_1_SetPins(UART_1_SCB_MODE_EZI2C, UART_1_DUMMY_PARAM,
 102:.\Generated_Source\PSoC4/UART_1_EZI2C.c ****                                                                       UART_1_DUMMY_PARAM);
 103:.\Generated_Source\PSoC4/UART_1_EZI2C.c **** 
 104:.\Generated_Source\PSoC4/UART_1_EZI2C.c ****             /* Store internal configuration */
 105:.\Generated_Source\PSoC4/UART_1_EZI2C.c ****             UART_1_scbMode       = (uint8) UART_1_SCB_MODE_EZI2C;
 106:.\Generated_Source\PSoC4/UART_1_EZI2C.c ****             UART_1_scbEnableWake = (uint8) config->enableWake;
 107:.\Generated_Source\PSoC4/UART_1_EZI2C.c ****             UART_1_scbEnableIntr = (uint8) UART_1_SCB_IRQ_INTERNAL;
 108:.\Generated_Source\PSoC4/UART_1_EZI2C.c **** 
 109:.\Generated_Source\PSoC4/UART_1_EZI2C.c ****             UART_1_numberOfAddr  = (uint8) config->numberOfAddresses;
 110:.\Generated_Source\PSoC4/UART_1_EZI2C.c ****             UART_1_subAddrSize   = (uint8) config->subAddrSize;
 111:.\Generated_Source\PSoC4/UART_1_EZI2C.c **** 
 112:.\Generated_Source\PSoC4/UART_1_EZI2C.c ****         #if (UART_1_CY_SCBIP_V0)
 113:.\Generated_Source\PSoC4/UART_1_EZI2C.c ****             /* Adjust SDA filter settings. Ticket ID#150521 */
 114:.\Generated_Source\PSoC4/UART_1_EZI2C.c ****             UART_1_SET_I2C_CFG_SDA_FILT_TRIM(UART_1_EC_AM_I2C_CFG_SDA_FILT_TRIM);
 115:.\Generated_Source\PSoC4/UART_1_EZI2C.c ****         #endif /* (UART_1_CY_SCBIP_V0) */
 116:.\Generated_Source\PSoC4/UART_1_EZI2C.c **** 
 117:.\Generated_Source\PSoC4/UART_1_EZI2C.c ****             /* Adjust AF and DF filter settings, AF = 1, DF = 0. Ticket ID#176179 */
 118:.\Generated_Source\PSoC4/UART_1_EZI2C.c ****             UART_1_I2C_CFG_ANALOG_FITER_ENABLE;
 119:.\Generated_Source\PSoC4/UART_1_EZI2C.c **** 
 120:.\Generated_Source\PSoC4/UART_1_EZI2C.c ****             /* Configure I2C interface */
 121:.\Generated_Source\PSoC4/UART_1_EZI2C.c ****             UART_1_CTRL_REG     = UART_1_GET_CTRL_BYTE_MODE  (config->enableByteMode)    |
 122:.\Generated_Source\PSoC4/UART_1_EZI2C.c ****                                             UART_1_GET_CTRL_ADDR_ACCEPT(config->numberOfAddresses) 
 123:.\Generated_Source\PSoC4/UART_1_EZI2C.c ****                                             UART_1_GET_CTRL_EC_AM_MODE (config->enableWake);
 124:.\Generated_Source\PSoC4/UART_1_EZI2C.c **** 
 125:.\Generated_Source\PSoC4/UART_1_EZI2C.c ****             UART_1_I2C_CTRL_REG = UART_1_EZI2C_CTRL;
 126:.\Generated_Source\PSoC4/UART_1_EZI2C.c **** 
 127:.\Generated_Source\PSoC4/UART_1_EZI2C.c ****             /* Configure RX direction */
 128:.\Generated_Source\PSoC4/UART_1_EZI2C.c ****             UART_1_RX_CTRL_REG = UART_1_EZI2C_RX_CTRL |
 129:.\Generated_Source\PSoC4/UART_1_EZI2C.c ****                                         UART_1_GET_RX_CTRL_MEDIAN(UART_1_DIGITAL_FILTER_DISABLE);
 130:.\Generated_Source\PSoC4/UART_1_EZI2C.c ****                                                 ;
 131:.\Generated_Source\PSoC4/UART_1_EZI2C.c ****             UART_1_RX_FIFO_CTRL_REG = UART_1_CLEAR_REG;
 132:.\Generated_Source\PSoC4/UART_1_EZI2C.c **** 
 133:.\Generated_Source\PSoC4/UART_1_EZI2C.c ****             /* Set default address and mask */
 134:.\Generated_Source\PSoC4/UART_1_EZI2C.c ****             if(UART_1_EZI2C_PRIMARY_ADDRESS == config->numberOfAddresses)
 135:.\Generated_Source\PSoC4/UART_1_EZI2C.c ****             {
 136:.\Generated_Source\PSoC4/UART_1_EZI2C.c ****                 UART_1_RX_MATCH_REG = UART_1_EzI2CUpdateRxMatchReg(config->primarySlaveAddr,
 137:.\Generated_Source\PSoC4/UART_1_EZI2C.c ****                                                                                        config->prim
 138:.\Generated_Source\PSoC4/UART_1_EZI2C.c ****             }
 139:.\Generated_Source\PSoC4/UART_1_EZI2C.c ****             else
 140:.\Generated_Source\PSoC4/UART_1_EZI2C.c ****             {
 141:.\Generated_Source\PSoC4/UART_1_EZI2C.c ****                 UART_1_RX_MATCH_REG = UART_1_EzI2CUpdateRxMatchReg(config->primarySlaveAddr,
 142:.\Generated_Source\PSoC4/UART_1_EZI2C.c ****                                                                                        config->seco
 143:.\Generated_Source\PSoC4/UART_1_EZI2C.c ****             }
 144:.\Generated_Source\PSoC4/UART_1_EZI2C.c **** 
 145:.\Generated_Source\PSoC4/UART_1_EZI2C.c ****             /* Configure TX direction */
 146:.\Generated_Source\PSoC4/UART_1_EZI2C.c ****             UART_1_TX_CTRL_REG      = UART_1_EZI2C_TX_CTRL;
 147:.\Generated_Source\PSoC4/UART_1_EZI2C.c ****             UART_1_TX_FIFO_CTRL_REG = ((0u != (config->enableClockStretch)) ?
ARM GAS  C:\Users\marce\AppData\Local\Temp\ccozxPEf.s 			page 4


 148:.\Generated_Source\PSoC4/UART_1_EZI2C.c ****                                                  UART_1_CLEAR_REG : UART_1_EZI2C_TX_FIFO_CTRL);
 149:.\Generated_Source\PSoC4/UART_1_EZI2C.c **** 
 150:.\Generated_Source\PSoC4/UART_1_EZI2C.c ****             /* Configure interrupt sources */
 151:.\Generated_Source\PSoC4/UART_1_EZI2C.c ****         #if (!UART_1_CY_SCBIP_V1)
 152:.\Generated_Source\PSoC4/UART_1_EZI2C.c ****            UART_1_INTR_SPI_EC_MASK_REG = UART_1_NO_INTR_SOURCES;
 153:.\Generated_Source\PSoC4/UART_1_EZI2C.c ****         #endif /* (!UART_1_CY_SCBIP_V1) */
 154:.\Generated_Source\PSoC4/UART_1_EZI2C.c **** 
 155:.\Generated_Source\PSoC4/UART_1_EZI2C.c ****             UART_1_INTR_I2C_EC_MASK_REG = UART_1_NO_INTR_SOURCES;
 156:.\Generated_Source\PSoC4/UART_1_EZI2C.c ****             UART_1_INTR_MASTER_MASK_REG = UART_1_NO_INTR_SOURCES;
 157:.\Generated_Source\PSoC4/UART_1_EZI2C.c ****             UART_1_INTR_SLAVE_MASK_REG  = UART_1_EZI2C_INTR_SLAVE_MASK;
 158:.\Generated_Source\PSoC4/UART_1_EZI2C.c ****             UART_1_INTR_TX_MASK_REG     = UART_1_NO_INTR_SOURCES;
 159:.\Generated_Source\PSoC4/UART_1_EZI2C.c **** 
 160:.\Generated_Source\PSoC4/UART_1_EZI2C.c ****             /* Configure interrupt with EZI2C handler but do not enable it */
 161:.\Generated_Source\PSoC4/UART_1_EZI2C.c ****             CyIntDisable    (UART_1_ISR_NUMBER);
 162:.\Generated_Source\PSoC4/UART_1_EZI2C.c ****             CyIntSetPriority(UART_1_ISR_NUMBER, UART_1_ISR_PRIORITY);
 163:.\Generated_Source\PSoC4/UART_1_EZI2C.c ****             (void) CyIntSetVector(UART_1_ISR_NUMBER, (0u != (config->enableClockStretch)) ?
 164:.\Generated_Source\PSoC4/UART_1_EZI2C.c ****                                                                       (&UART_1_EZI2C_STRETCH_ISR) :
 165:.\Generated_Source\PSoC4/UART_1_EZI2C.c ****                                                                       (&UART_1_EZI2C_NO_STRETCH_ISR
 166:.\Generated_Source\PSoC4/UART_1_EZI2C.c **** 
 167:.\Generated_Source\PSoC4/UART_1_EZI2C.c ****             if(0u != (config->enableClockStretch))
 168:.\Generated_Source\PSoC4/UART_1_EZI2C.c ****             {
 169:.\Generated_Source\PSoC4/UART_1_EZI2C.c ****                 /* Configure interrupt sources */
 170:.\Generated_Source\PSoC4/UART_1_EZI2C.c ****                 UART_1_INTR_SLAVE_MASK_REG |= UART_1_INTR_SLAVE_I2C_ADDR_MATCH;
 171:.\Generated_Source\PSoC4/UART_1_EZI2C.c ****                 UART_1_INTR_RX_MASK_REG     = UART_1_NO_INTR_SOURCES;
 172:.\Generated_Source\PSoC4/UART_1_EZI2C.c ****             }
 173:.\Generated_Source\PSoC4/UART_1_EZI2C.c ****             else
 174:.\Generated_Source\PSoC4/UART_1_EZI2C.c ****             {
 175:.\Generated_Source\PSoC4/UART_1_EZI2C.c ****                 /* Enable Auto ACK/NACK features */
 176:.\Generated_Source\PSoC4/UART_1_EZI2C.c ****                 UART_1_I2C_CTRL_REG |= UART_1_EZI2C_CTRL_AUTO;
 177:.\Generated_Source\PSoC4/UART_1_EZI2C.c **** 
 178:.\Generated_Source\PSoC4/UART_1_EZI2C.c ****                 /* Configure RX interrupt source */
 179:.\Generated_Source\PSoC4/UART_1_EZI2C.c ****                 UART_1_INTR_SLAVE_MASK_REG |= UART_1_INTR_SLAVE_I2C_START;
 180:.\Generated_Source\PSoC4/UART_1_EZI2C.c ****                 UART_1_INTR_RX_MASK_REG     = UART_1_INTR_RX_NOT_EMPTY;
 181:.\Generated_Source\PSoC4/UART_1_EZI2C.c ****             }
 182:.\Generated_Source\PSoC4/UART_1_EZI2C.c **** 
 183:.\Generated_Source\PSoC4/UART_1_EZI2C.c ****             /* Configure global variables */
 184:.\Generated_Source\PSoC4/UART_1_EZI2C.c ****             UART_1_fsmState = UART_1_EZI2C_FSM_IDLE;
 185:.\Generated_Source\PSoC4/UART_1_EZI2C.c **** 
 186:.\Generated_Source\PSoC4/UART_1_EZI2C.c ****             UART_1_curStatus  = 0u;
 187:.\Generated_Source\PSoC4/UART_1_EZI2C.c ****             UART_1_indexBuf1  = 0u;
 188:.\Generated_Source\PSoC4/UART_1_EZI2C.c ****             UART_1_offsetBuf1 = 0u;
 189:.\Generated_Source\PSoC4/UART_1_EZI2C.c ****             UART_1_indexBuf2  = 0u;
 190:.\Generated_Source\PSoC4/UART_1_EZI2C.c ****             UART_1_offsetBuf2 = 0u;
 191:.\Generated_Source\PSoC4/UART_1_EZI2C.c **** 
 192:.\Generated_Source\PSoC4/UART_1_EZI2C.c ****             UART_1_addrBuf1 = (uint8) config->primarySlaveAddr;
 193:.\Generated_Source\PSoC4/UART_1_EZI2C.c ****             UART_1_addrBuf2 = (uint8) config->secondarySlaveAddr;
 194:.\Generated_Source\PSoC4/UART_1_EZI2C.c ****         }
 195:.\Generated_Source\PSoC4/UART_1_EZI2C.c ****     }
 196:.\Generated_Source\PSoC4/UART_1_EZI2C.c **** 
 197:.\Generated_Source\PSoC4/UART_1_EZI2C.c **** #else
 198:.\Generated_Source\PSoC4/UART_1_EZI2C.c **** 
 199:.\Generated_Source\PSoC4/UART_1_EZI2C.c ****     /*******************************************************************************
 200:.\Generated_Source\PSoC4/UART_1_EZI2C.c ****     * Function Name: UART_1_EzI2CInit
 201:.\Generated_Source\PSoC4/UART_1_EZI2C.c ****     ********************************************************************************
 202:.\Generated_Source\PSoC4/UART_1_EZI2C.c ****     *
 203:.\Generated_Source\PSoC4/UART_1_EZI2C.c ****     * Summary:
 204:.\Generated_Source\PSoC4/UART_1_EZI2C.c ****     *  Configures the SCB for the EZI2C operation.
ARM GAS  C:\Users\marce\AppData\Local\Temp\ccozxPEf.s 			page 5


 205:.\Generated_Source\PSoC4/UART_1_EZI2C.c ****     *
 206:.\Generated_Source\PSoC4/UART_1_EZI2C.c ****     * Parameters:
 207:.\Generated_Source\PSoC4/UART_1_EZI2C.c ****     *  None
 208:.\Generated_Source\PSoC4/UART_1_EZI2C.c ****     *
 209:.\Generated_Source\PSoC4/UART_1_EZI2C.c ****     * Return:
 210:.\Generated_Source\PSoC4/UART_1_EZI2C.c ****     *  None
 211:.\Generated_Source\PSoC4/UART_1_EZI2C.c ****     *
 212:.\Generated_Source\PSoC4/UART_1_EZI2C.c ****     *******************************************************************************/
 213:.\Generated_Source\PSoC4/UART_1_EZI2C.c ****     void UART_1_EzI2CInit(void)
 214:.\Generated_Source\PSoC4/UART_1_EZI2C.c ****     {
 215:.\Generated_Source\PSoC4/UART_1_EZI2C.c ****         /* Configure I2C interface */
 216:.\Generated_Source\PSoC4/UART_1_EZI2C.c ****         UART_1_CTRL_REG     = UART_1_EZI2C_DEFAULT_CTRL;
 217:.\Generated_Source\PSoC4/UART_1_EZI2C.c ****         UART_1_I2C_CTRL_REG = UART_1_EZI2C_DEFAULT_I2C_CTRL;
 218:.\Generated_Source\PSoC4/UART_1_EZI2C.c **** 
 219:.\Generated_Source\PSoC4/UART_1_EZI2C.c ****     #if (UART_1_CY_SCBIP_V0)
 220:.\Generated_Source\PSoC4/UART_1_EZI2C.c ****         /* Adjust SDA filter settings. Ticket ID#150521 */
 221:.\Generated_Source\PSoC4/UART_1_EZI2C.c ****         UART_1_SET_I2C_CFG_SDA_FILT_TRIM(UART_1_EC_AM_I2C_CFG_SDA_FILT_TRIM);
 222:.\Generated_Source\PSoC4/UART_1_EZI2C.c ****     #endif /* (UART_1_CY_SCBIP_V0) */
 223:.\Generated_Source\PSoC4/UART_1_EZI2C.c **** 
 224:.\Generated_Source\PSoC4/UART_1_EZI2C.c ****         /* Configure RX direction */
 225:.\Generated_Source\PSoC4/UART_1_EZI2C.c ****         UART_1_RX_CTRL_REG      = UART_1_EZI2C_DEFAULT_RX_CTRL;
 226:.\Generated_Source\PSoC4/UART_1_EZI2C.c ****         UART_1_RX_FIFO_CTRL_REG = UART_1_EZI2C_DEFAULT_RX_FIFO_CTRL;
 227:.\Generated_Source\PSoC4/UART_1_EZI2C.c **** 
 228:.\Generated_Source\PSoC4/UART_1_EZI2C.c ****         /* Set default address and mask */
 229:.\Generated_Source\PSoC4/UART_1_EZI2C.c ****         UART_1_RX_MATCH_REG     = UART_1_EZI2C_DEFAULT_RX_MATCH;
 230:.\Generated_Source\PSoC4/UART_1_EZI2C.c **** 
 231:.\Generated_Source\PSoC4/UART_1_EZI2C.c ****         /* Configure TX direction */
 232:.\Generated_Source\PSoC4/UART_1_EZI2C.c ****         UART_1_TX_CTRL_REG      = UART_1_EZI2C_DEFAULT_TX_CTRL;
 233:.\Generated_Source\PSoC4/UART_1_EZI2C.c ****         UART_1_TX_FIFO_CTRL_REG = UART_1_EZI2C_DEFAULT_TX_FIFO_CTRL;
 234:.\Generated_Source\PSoC4/UART_1_EZI2C.c **** 
 235:.\Generated_Source\PSoC4/UART_1_EZI2C.c ****         /* Configure interrupt with EZI2C handler but do not enable it */
 236:.\Generated_Source\PSoC4/UART_1_EZI2C.c ****     #if !defined (CY_EXTERNAL_INTERRUPT_CONFIG)
 237:.\Generated_Source\PSoC4/UART_1_EZI2C.c ****         CyIntDisable    (UART_1_ISR_NUMBER);
 238:.\Generated_Source\PSoC4/UART_1_EZI2C.c ****         CyIntSetPriority(UART_1_ISR_NUMBER, UART_1_ISR_PRIORITY);
 239:.\Generated_Source\PSoC4/UART_1_EZI2C.c **** 
 240:.\Generated_Source\PSoC4/UART_1_EZI2C.c ****     #if (UART_1_EZI2C_SCL_STRETCH_ENABLE_CONST)
 241:.\Generated_Source\PSoC4/UART_1_EZI2C.c ****         (void) CyIntSetVector(UART_1_ISR_NUMBER, &UART_1_EZI2C_STRETCH_ISR);
 242:.\Generated_Source\PSoC4/UART_1_EZI2C.c ****     #else
 243:.\Generated_Source\PSoC4/UART_1_EZI2C.c ****         (void) CyIntSetVector(UART_1_ISR_NUMBER, &UART_1_EZI2C_NO_STRETCH_ISR);
 244:.\Generated_Source\PSoC4/UART_1_EZI2C.c ****     #endif /* (UART_1_EZI2C_SCL_STRETCH_ENABLE_CONST) */
 245:.\Generated_Source\PSoC4/UART_1_EZI2C.c **** 
 246:.\Generated_Source\PSoC4/UART_1_EZI2C.c ****     #endif /* !defined (CY_EXTERNAL_INTERRUPT_CONFIG) */
 247:.\Generated_Source\PSoC4/UART_1_EZI2C.c **** 
 248:.\Generated_Source\PSoC4/UART_1_EZI2C.c ****         /* Configure interrupt sources */
 249:.\Generated_Source\PSoC4/UART_1_EZI2C.c ****     #if (!UART_1_CY_SCBIP_V1)
 250:.\Generated_Source\PSoC4/UART_1_EZI2C.c ****         UART_1_INTR_SPI_EC_MASK_REG = UART_1_EZI2C_DEFAULT_INTR_SPI_EC_MASK;
 251:.\Generated_Source\PSoC4/UART_1_EZI2C.c ****     #endif /* (!UART_1_CY_SCBIP_V1) */
 252:.\Generated_Source\PSoC4/UART_1_EZI2C.c **** 
 253:.\Generated_Source\PSoC4/UART_1_EZI2C.c ****         UART_1_INTR_I2C_EC_MASK_REG = UART_1_EZI2C_DEFAULT_INTR_I2C_EC_MASK;
 254:.\Generated_Source\PSoC4/UART_1_EZI2C.c ****         UART_1_INTR_SLAVE_MASK_REG  = UART_1_EZI2C_DEFAULT_INTR_SLAVE_MASK;
 255:.\Generated_Source\PSoC4/UART_1_EZI2C.c ****         UART_1_INTR_MASTER_MASK_REG = UART_1_EZI2C_DEFAULT_INTR_MASTER_MASK;
 256:.\Generated_Source\PSoC4/UART_1_EZI2C.c ****         UART_1_INTR_RX_MASK_REG     = UART_1_EZI2C_DEFAULT_INTR_RX_MASK;
 257:.\Generated_Source\PSoC4/UART_1_EZI2C.c ****         UART_1_INTR_TX_MASK_REG     = UART_1_EZI2C_DEFAULT_INTR_TX_MASK;
 258:.\Generated_Source\PSoC4/UART_1_EZI2C.c **** 
 259:.\Generated_Source\PSoC4/UART_1_EZI2C.c ****         /* Configure global variables */
 260:.\Generated_Source\PSoC4/UART_1_EZI2C.c ****         UART_1_fsmState = UART_1_EZI2C_FSM_IDLE;
 261:.\Generated_Source\PSoC4/UART_1_EZI2C.c **** 
ARM GAS  C:\Users\marce\AppData\Local\Temp\ccozxPEf.s 			page 6


 262:.\Generated_Source\PSoC4/UART_1_EZI2C.c ****         UART_1_curStatus  = 0u;
 263:.\Generated_Source\PSoC4/UART_1_EZI2C.c ****         UART_1_indexBuf1  = 0u;
 264:.\Generated_Source\PSoC4/UART_1_EZI2C.c ****         UART_1_offsetBuf1 = 0u;
 265:.\Generated_Source\PSoC4/UART_1_EZI2C.c **** 
 266:.\Generated_Source\PSoC4/UART_1_EZI2C.c ****     #if(UART_1_SECONDARY_ADDRESS_ENABLE_CONST)
 267:.\Generated_Source\PSoC4/UART_1_EZI2C.c ****         UART_1_indexBuf2  = 0u;
 268:.\Generated_Source\PSoC4/UART_1_EZI2C.c ****         UART_1_offsetBuf2 = 0u;
 269:.\Generated_Source\PSoC4/UART_1_EZI2C.c **** 
 270:.\Generated_Source\PSoC4/UART_1_EZI2C.c ****         UART_1_addrBuf1 = UART_1_EZI2C_PRIMARY_SLAVE_ADDRESS;
 271:.\Generated_Source\PSoC4/UART_1_EZI2C.c ****         UART_1_addrBuf2 = UART_1_EZI2C_SECONDARY_SLAVE_ADDRESS;
 272:.\Generated_Source\PSoC4/UART_1_EZI2C.c ****     #endif /* (UART_1_SECONDARY_ADDRESS_ENABLE_CONST) */
 273:.\Generated_Source\PSoC4/UART_1_EZI2C.c ****     }
 274:.\Generated_Source\PSoC4/UART_1_EZI2C.c **** #endif /* (UART_1_SCB_MODE_UNCONFIG_CONST_CFG) */
 275:.\Generated_Source\PSoC4/UART_1_EZI2C.c **** 
 276:.\Generated_Source\PSoC4/UART_1_EZI2C.c **** 
 277:.\Generated_Source\PSoC4/UART_1_EZI2C.c **** /*******************************************************************************
 278:.\Generated_Source\PSoC4/UART_1_EZI2C.c **** * Function Name: UART_1_EzI2CStop
 279:.\Generated_Source\PSoC4/UART_1_EZI2C.c **** ********************************************************************************
 280:.\Generated_Source\PSoC4/UART_1_EZI2C.c **** *
 281:.\Generated_Source\PSoC4/UART_1_EZI2C.c **** * Summary:
 282:.\Generated_Source\PSoC4/UART_1_EZI2C.c **** *  Resets the EZI2C FSM into the default state.
 283:.\Generated_Source\PSoC4/UART_1_EZI2C.c **** *
 284:.\Generated_Source\PSoC4/UART_1_EZI2C.c **** * Parameters:
 285:.\Generated_Source\PSoC4/UART_1_EZI2C.c **** *  None
 286:.\Generated_Source\PSoC4/UART_1_EZI2C.c **** *
 287:.\Generated_Source\PSoC4/UART_1_EZI2C.c **** * Return:
 288:.\Generated_Source\PSoC4/UART_1_EZI2C.c **** *  None
 289:.\Generated_Source\PSoC4/UART_1_EZI2C.c **** *
 290:.\Generated_Source\PSoC4/UART_1_EZI2C.c **** *******************************************************************************/
 291:.\Generated_Source\PSoC4/UART_1_EZI2C.c **** void UART_1_EzI2CStop(void)
 292:.\Generated_Source\PSoC4/UART_1_EZI2C.c **** {
 293:.\Generated_Source\PSoC4/UART_1_EZI2C.c ****     UART_1_fsmState = UART_1_EZI2C_FSM_IDLE;
 294:.\Generated_Source\PSoC4/UART_1_EZI2C.c **** }
 295:.\Generated_Source\PSoC4/UART_1_EZI2C.c **** 
 296:.\Generated_Source\PSoC4/UART_1_EZI2C.c **** 
 297:.\Generated_Source\PSoC4/UART_1_EZI2C.c **** /*******************************************************************************
 298:.\Generated_Source\PSoC4/UART_1_EZI2C.c **** * Function Name: UART_1_EzI2CGetActivity
 299:.\Generated_Source\PSoC4/UART_1_EZI2C.c **** ********************************************************************************
 300:.\Generated_Source\PSoC4/UART_1_EZI2C.c **** *
 301:.\Generated_Source\PSoC4/UART_1_EZI2C.c **** * Summary:
 302:.\Generated_Source\PSoC4/UART_1_EZI2C.c **** *  Returns the EZI2C slave status.
 303:.\Generated_Source\PSoC4/UART_1_EZI2C.c **** *  The read, write and error status flags reset to zero after this function
 304:.\Generated_Source\PSoC4/UART_1_EZI2C.c **** *  call. The busy status flag is cleared when the transaction intended for
 305:.\Generated_Source\PSoC4/UART_1_EZI2C.c **** *  the EZI2C slave completes.
 306:.\Generated_Source\PSoC4/UART_1_EZI2C.c **** *
 307:.\Generated_Source\PSoC4/UART_1_EZI2C.c **** * Parameters:
 308:.\Generated_Source\PSoC4/UART_1_EZI2C.c **** *  None
 309:.\Generated_Source\PSoC4/UART_1_EZI2C.c **** *
 310:.\Generated_Source\PSoC4/UART_1_EZI2C.c **** * Return:
 311:.\Generated_Source\PSoC4/UART_1_EZI2C.c **** *  Returns the status of the EZI2C Slave activity.
 312:.\Generated_Source\PSoC4/UART_1_EZI2C.c **** *
 313:.\Generated_Source\PSoC4/UART_1_EZI2C.c **** *******************************************************************************/
 314:.\Generated_Source\PSoC4/UART_1_EZI2C.c **** uint32 UART_1_EzI2CGetActivity(void)
 315:.\Generated_Source\PSoC4/UART_1_EZI2C.c **** {
 316:.\Generated_Source\PSoC4/UART_1_EZI2C.c ****     uint32 status;
 317:.\Generated_Source\PSoC4/UART_1_EZI2C.c **** 
 318:.\Generated_Source\PSoC4/UART_1_EZI2C.c ****     UART_1_DisableInt();  /* Lock from interruption */
ARM GAS  C:\Users\marce\AppData\Local\Temp\ccozxPEf.s 			page 7


 319:.\Generated_Source\PSoC4/UART_1_EZI2C.c **** 
 320:.\Generated_Source\PSoC4/UART_1_EZI2C.c ****     status = UART_1_curStatus;
 321:.\Generated_Source\PSoC4/UART_1_EZI2C.c **** 
 322:.\Generated_Source\PSoC4/UART_1_EZI2C.c ****     /* Relay on address match event from HW as bus busy status */
 323:.\Generated_Source\PSoC4/UART_1_EZI2C.c ****     if(UART_1_EZI2C_SCL_STRETCH_DISABLE)
 324:.\Generated_Source\PSoC4/UART_1_EZI2C.c ****     {
 325:.\Generated_Source\PSoC4/UART_1_EZI2C.c ****         /* For UART_1_CY_SCBIP_V0 the wake is prohibited by customizer */
 326:.\Generated_Source\PSoC4/UART_1_EZI2C.c ****         if(UART_1_EZI2C_EC_AM_ENABLE)
 327:.\Generated_Source\PSoC4/UART_1_EZI2C.c ****         {
 328:.\Generated_Source\PSoC4/UART_1_EZI2C.c ****             status |= UART_1_CHECK_INTR_I2C_EC(UART_1_INTR_I2C_EC_WAKE_UP) ?
 329:.\Generated_Source\PSoC4/UART_1_EZI2C.c ****                         UART_1_EZI2C_STATUS_BUSY : 0u;
 330:.\Generated_Source\PSoC4/UART_1_EZI2C.c ****         }
 331:.\Generated_Source\PSoC4/UART_1_EZI2C.c ****         else
 332:.\Generated_Source\PSoC4/UART_1_EZI2C.c ****         {
 333:.\Generated_Source\PSoC4/UART_1_EZI2C.c ****             status |= UART_1_CHECK_INTR_SLAVE(UART_1_INTR_SLAVE_I2C_ADDR_MATCH) ?
 334:.\Generated_Source\PSoC4/UART_1_EZI2C.c ****                         UART_1_EZI2C_STATUS_BUSY : 0u;
 335:.\Generated_Source\PSoC4/UART_1_EZI2C.c ****         }
 336:.\Generated_Source\PSoC4/UART_1_EZI2C.c ****         
 337:.\Generated_Source\PSoC4/UART_1_EZI2C.c ****     }
 338:.\Generated_Source\PSoC4/UART_1_EZI2C.c ****     
 339:.\Generated_Source\PSoC4/UART_1_EZI2C.c **** 
 340:.\Generated_Source\PSoC4/UART_1_EZI2C.c ****     UART_1_curStatus &= ((uint8) ~UART_1_EZI2C_CLEAR_STATUS);
 341:.\Generated_Source\PSoC4/UART_1_EZI2C.c **** 
 342:.\Generated_Source\PSoC4/UART_1_EZI2C.c ****     UART_1_EnableInt();   /* Release lock */
 343:.\Generated_Source\PSoC4/UART_1_EZI2C.c **** 
 344:.\Generated_Source\PSoC4/UART_1_EZI2C.c ****     return(status);
 345:.\Generated_Source\PSoC4/UART_1_EZI2C.c **** }
 346:.\Generated_Source\PSoC4/UART_1_EZI2C.c **** 
 347:.\Generated_Source\PSoC4/UART_1_EZI2C.c **** 
 348:.\Generated_Source\PSoC4/UART_1_EZI2C.c **** /*******************************************************************************
 349:.\Generated_Source\PSoC4/UART_1_EZI2C.c **** * Function Name: UART_1_EzI2CSetAddress1
 350:.\Generated_Source\PSoC4/UART_1_EZI2C.c **** ********************************************************************************
 351:.\Generated_Source\PSoC4/UART_1_EZI2C.c **** *
 352:.\Generated_Source\PSoC4/UART_1_EZI2C.c **** * Summary:
 353:.\Generated_Source\PSoC4/UART_1_EZI2C.c **** *  Sets the primary I2C slave address.
 354:.\Generated_Source\PSoC4/UART_1_EZI2C.c **** *
 355:.\Generated_Source\PSoC4/UART_1_EZI2C.c **** * Parameters:
 356:.\Generated_Source\PSoC4/UART_1_EZI2C.c **** *  address: I2C slave address for the secondary device.
 357:.\Generated_Source\PSoC4/UART_1_EZI2C.c **** *           This address is the 7-bit right-justified slave address and does
 358:.\Generated_Source\PSoC4/UART_1_EZI2C.c **** *           not include the R/W bit.
 359:.\Generated_Source\PSoC4/UART_1_EZI2C.c **** *           This value may be any address between 0 and 127 (0x00 to 0x7F).
 360:.\Generated_Source\PSoC4/UART_1_EZI2C.c **** *
 361:.\Generated_Source\PSoC4/UART_1_EZI2C.c **** * Return:
 362:.\Generated_Source\PSoC4/UART_1_EZI2C.c **** *  None
 363:.\Generated_Source\PSoC4/UART_1_EZI2C.c **** *
 364:.\Generated_Source\PSoC4/UART_1_EZI2C.c **** *******************************************************************************/
 365:.\Generated_Source\PSoC4/UART_1_EZI2C.c **** void UART_1_EzI2CSetAddress1(uint32 address)
 366:.\Generated_Source\PSoC4/UART_1_EZI2C.c **** {
 367:.\Generated_Source\PSoC4/UART_1_EZI2C.c ****     if(UART_1_SECONDARY_ADDRESS_ENABLE)
 368:.\Generated_Source\PSoC4/UART_1_EZI2C.c ****     {
 369:.\Generated_Source\PSoC4/UART_1_EZI2C.c ****         UART_1_addrBuf1 = (uint8) address;
 370:.\Generated_Source\PSoC4/UART_1_EZI2C.c **** 
 371:.\Generated_Source\PSoC4/UART_1_EZI2C.c ****         UART_1_RX_MATCH_REG = UART_1_EzI2CUpdateRxMatchReg(address,
 372:.\Generated_Source\PSoC4/UART_1_EZI2C.c ****                                                                                (uint32) UART_1_addr
 373:.\Generated_Source\PSoC4/UART_1_EZI2C.c ****     }
 374:.\Generated_Source\PSoC4/UART_1_EZI2C.c ****     else
 375:.\Generated_Source\PSoC4/UART_1_EZI2C.c ****     {
ARM GAS  C:\Users\marce\AppData\Local\Temp\ccozxPEf.s 			page 8


 376:.\Generated_Source\PSoC4/UART_1_EZI2C.c ****         uint32 matchReg;
 377:.\Generated_Source\PSoC4/UART_1_EZI2C.c **** 
 378:.\Generated_Source\PSoC4/UART_1_EZI2C.c ****         matchReg = UART_1_RX_MATCH_REG;
 379:.\Generated_Source\PSoC4/UART_1_EZI2C.c **** 
 380:.\Generated_Source\PSoC4/UART_1_EZI2C.c ****         matchReg &= ((uint32) ~UART_1_RX_MATCH_ADDR_MASK);            /* Clear address bits */
 381:.\Generated_Source\PSoC4/UART_1_EZI2C.c ****         matchReg |= ((uint32)  UART_1_GET_I2C_8BIT_ADDRESS(address)); /* Set mask */
 382:.\Generated_Source\PSoC4/UART_1_EZI2C.c **** 
 383:.\Generated_Source\PSoC4/UART_1_EZI2C.c ****         UART_1_RX_MATCH_REG = matchReg;
 384:.\Generated_Source\PSoC4/UART_1_EZI2C.c ****     }
 385:.\Generated_Source\PSoC4/UART_1_EZI2C.c ****     
 386:.\Generated_Source\PSoC4/UART_1_EZI2C.c **** }
 387:.\Generated_Source\PSoC4/UART_1_EZI2C.c **** 
 388:.\Generated_Source\PSoC4/UART_1_EZI2C.c **** 
 389:.\Generated_Source\PSoC4/UART_1_EZI2C.c **** /*******************************************************************************
 390:.\Generated_Source\PSoC4/UART_1_EZI2C.c **** * Function Name: UART_1_EzI2CGetAddress1
 391:.\Generated_Source\PSoC4/UART_1_EZI2C.c **** ********************************************************************************
 392:.\Generated_Source\PSoC4/UART_1_EZI2C.c **** *
 393:.\Generated_Source\PSoC4/UART_1_EZI2C.c **** * Summary:
 394:.\Generated_Source\PSoC4/UART_1_EZI2C.c **** *  Gets the primary I2C slave 7-bit address.
 395:.\Generated_Source\PSoC4/UART_1_EZI2C.c **** *
 396:.\Generated_Source\PSoC4/UART_1_EZI2C.c **** * Parameters:
 397:.\Generated_Source\PSoC4/UART_1_EZI2C.c **** *  None
 398:.\Generated_Source\PSoC4/UART_1_EZI2C.c **** *
 399:.\Generated_Source\PSoC4/UART_1_EZI2C.c **** * Return:
 400:.\Generated_Source\PSoC4/UART_1_EZI2C.c **** *  Returns I2C slave address for the primary device.
 401:.\Generated_Source\PSoC4/UART_1_EZI2C.c **** *  This address is the 7-bit right-justified slave address and does not
 402:.\Generated_Source\PSoC4/UART_1_EZI2C.c **** *  include the R/W bit.
 403:.\Generated_Source\PSoC4/UART_1_EZI2C.c **** *  This value may be any address between 0 and 127 (0x00 to 0x7F).
 404:.\Generated_Source\PSoC4/UART_1_EZI2C.c **** *
 405:.\Generated_Source\PSoC4/UART_1_EZI2C.c **** *******************************************************************************/
 406:.\Generated_Source\PSoC4/UART_1_EZI2C.c **** uint32 UART_1_EzI2CGetAddress1(void)
 407:.\Generated_Source\PSoC4/UART_1_EZI2C.c **** {
 408:.\Generated_Source\PSoC4/UART_1_EZI2C.c ****     uint32 address;
 409:.\Generated_Source\PSoC4/UART_1_EZI2C.c **** 
 410:.\Generated_Source\PSoC4/UART_1_EZI2C.c ****     if(UART_1_SECONDARY_ADDRESS_ENABLE)
 411:.\Generated_Source\PSoC4/UART_1_EZI2C.c ****     {
 412:.\Generated_Source\PSoC4/UART_1_EZI2C.c ****         address = (uint32) UART_1_addrBuf1;
 413:.\Generated_Source\PSoC4/UART_1_EZI2C.c ****     }
 414:.\Generated_Source\PSoC4/UART_1_EZI2C.c ****     else
 415:.\Generated_Source\PSoC4/UART_1_EZI2C.c ****     {
 416:.\Generated_Source\PSoC4/UART_1_EZI2C.c ****         address = (UART_1_GET_RX_MATCH_ADDR(UART_1_RX_MATCH_REG) >>
 417:.\Generated_Source\PSoC4/UART_1_EZI2C.c ****                    UART_1_I2C_SLAVE_ADDR_POS);
 418:.\Generated_Source\PSoC4/UART_1_EZI2C.c ****     }
 419:.\Generated_Source\PSoC4/UART_1_EZI2C.c ****     
 420:.\Generated_Source\PSoC4/UART_1_EZI2C.c **** 
 421:.\Generated_Source\PSoC4/UART_1_EZI2C.c ****     return(address);
 422:.\Generated_Source\PSoC4/UART_1_EZI2C.c **** }
 423:.\Generated_Source\PSoC4/UART_1_EZI2C.c **** 
 424:.\Generated_Source\PSoC4/UART_1_EZI2C.c **** 
 425:.\Generated_Source\PSoC4/UART_1_EZI2C.c **** /*******************************************************************************
 426:.\Generated_Source\PSoC4/UART_1_EZI2C.c **** * Function Name: UART_1_EzI2CSetBuffer1
 427:.\Generated_Source\PSoC4/UART_1_EZI2C.c **** ********************************************************************************
 428:.\Generated_Source\PSoC4/UART_1_EZI2C.c **** *
 429:.\Generated_Source\PSoC4/UART_1_EZI2C.c **** * Summary:
 430:.\Generated_Source\PSoC4/UART_1_EZI2C.c **** *  Sets up the data buffer to be exposed to the I2C master on a primary slave
 431:.\Generated_Source\PSoC4/UART_1_EZI2C.c **** *  address request.
 432:.\Generated_Source\PSoC4/UART_1_EZI2C.c **** *
ARM GAS  C:\Users\marce\AppData\Local\Temp\ccozxPEf.s 			page 9


 433:.\Generated_Source\PSoC4/UART_1_EZI2C.c **** * Parameters:
 434:.\Generated_Source\PSoC4/UART_1_EZI2C.c **** *  bufSize: Size of the buffer in bytes.
 435:.\Generated_Source\PSoC4/UART_1_EZI2C.c **** *  rwBoundary: Sets how many bytes are writeable in the beginning of the buffer.
 436:.\Generated_Source\PSoC4/UART_1_EZI2C.c **** *              This value must be less than or equal to the buffer size.
 437:.\Generated_Source\PSoC4/UART_1_EZI2C.c **** *              Data located at offset rwBoundry and greater are read only.
 438:.\Generated_Source\PSoC4/UART_1_EZI2C.c **** *  buffer: Pointer to the data buffer.
 439:.\Generated_Source\PSoC4/UART_1_EZI2C.c **** *
 440:.\Generated_Source\PSoC4/UART_1_EZI2C.c **** * Return:
 441:.\Generated_Source\PSoC4/UART_1_EZI2C.c **** *  None
 442:.\Generated_Source\PSoC4/UART_1_EZI2C.c **** *
 443:.\Generated_Source\PSoC4/UART_1_EZI2C.c **** *******************************************************************************/
 444:.\Generated_Source\PSoC4/UART_1_EZI2C.c **** void UART_1_EzI2CSetBuffer1(uint32 bufSize, uint32 rwBoundary, volatile uint8 * buffer)
 445:.\Generated_Source\PSoC4/UART_1_EZI2C.c **** {
 446:.\Generated_Source\PSoC4/UART_1_EZI2C.c ****     if (NULL != buffer)
 447:.\Generated_Source\PSoC4/UART_1_EZI2C.c ****     {
 448:.\Generated_Source\PSoC4/UART_1_EZI2C.c ****         UART_1_DisableInt();  /* Lock from interruption */
 449:.\Generated_Source\PSoC4/UART_1_EZI2C.c **** 
 450:.\Generated_Source\PSoC4/UART_1_EZI2C.c ****         UART_1_dataBuffer1 =  buffer;
 451:.\Generated_Source\PSoC4/UART_1_EZI2C.c ****         UART_1_bufSizeBuf1 = (uint16) bufSize;
 452:.\Generated_Source\PSoC4/UART_1_EZI2C.c ****         UART_1_protectBuf1 = (uint16) rwBoundary;
 453:.\Generated_Source\PSoC4/UART_1_EZI2C.c **** 
 454:.\Generated_Source\PSoC4/UART_1_EZI2C.c ****         UART_1_EnableInt();   /* Release lock */
 455:.\Generated_Source\PSoC4/UART_1_EZI2C.c ****     }
 456:.\Generated_Source\PSoC4/UART_1_EZI2C.c **** }
 457:.\Generated_Source\PSoC4/UART_1_EZI2C.c **** 
 458:.\Generated_Source\PSoC4/UART_1_EZI2C.c **** 
 459:.\Generated_Source\PSoC4/UART_1_EZI2C.c **** /*******************************************************************************
 460:.\Generated_Source\PSoC4/UART_1_EZI2C.c **** * Function Name: UART_1_EzI2CSetReadBoundaryBuffer1
 461:.\Generated_Source\PSoC4/UART_1_EZI2C.c **** ********************************************************************************
 462:.\Generated_Source\PSoC4/UART_1_EZI2C.c **** *
 463:.\Generated_Source\PSoC4/UART_1_EZI2C.c **** * Summary:
 464:.\Generated_Source\PSoC4/UART_1_EZI2C.c **** *  Sets the read only boundary in the data buffer to be exposed to the I2C
 465:.\Generated_Source\PSoC4/UART_1_EZI2C.c **** *  master on a primary slave address request.
 466:.\Generated_Source\PSoC4/UART_1_EZI2C.c **** *
 467:.\Generated_Source\PSoC4/UART_1_EZI2C.c **** * Parameters:
 468:.\Generated_Source\PSoC4/UART_1_EZI2C.c **** *  rwBoundry: Sets how many bytes are writeable in the beginning of the buffer.
 469:.\Generated_Source\PSoC4/UART_1_EZI2C.c **** *             This value must be less than or equal to the buffer size.
 470:.\Generated_Source\PSoC4/UART_1_EZI2C.c **** *             Data located at offset rwBoundry and greater are read only.
 471:.\Generated_Source\PSoC4/UART_1_EZI2C.c **** *
 472:.\Generated_Source\PSoC4/UART_1_EZI2C.c **** * Return:
 473:.\Generated_Source\PSoC4/UART_1_EZI2C.c **** *  None
 474:.\Generated_Source\PSoC4/UART_1_EZI2C.c **** *
 475:.\Generated_Source\PSoC4/UART_1_EZI2C.c **** *******************************************************************************/
 476:.\Generated_Source\PSoC4/UART_1_EZI2C.c **** void UART_1_EzI2CSetReadBoundaryBuffer1(uint32 rwBoundary)
 477:.\Generated_Source\PSoC4/UART_1_EZI2C.c **** {
 478:.\Generated_Source\PSoC4/UART_1_EZI2C.c ****     UART_1_protectBuf1 = (uint16) rwBoundary;
 479:.\Generated_Source\PSoC4/UART_1_EZI2C.c **** }
 480:.\Generated_Source\PSoC4/UART_1_EZI2C.c **** 
 481:.\Generated_Source\PSoC4/UART_1_EZI2C.c **** 
 482:.\Generated_Source\PSoC4/UART_1_EZI2C.c **** #if(UART_1_SECONDARY_ADDRESS_ENABLE_CONST)
 483:.\Generated_Source\PSoC4/UART_1_EZI2C.c ****     /*******************************************************************************
 484:.\Generated_Source\PSoC4/UART_1_EZI2C.c ****     * Function Name: UART_1_EzI2CUpdateRxMatchReg
 485:.\Generated_Source\PSoC4/UART_1_EZI2C.c ****     ********************************************************************************
 486:.\Generated_Source\PSoC4/UART_1_EZI2C.c ****     *
 487:.\Generated_Source\PSoC4/UART_1_EZI2C.c ****     * Summary:
 488:.\Generated_Source\PSoC4/UART_1_EZI2C.c ****     *  Returns the value of the RX MATCH register for addr1 and addr2. The addr1 is
 489:.\Generated_Source\PSoC4/UART_1_EZI2C.c ****     *  accepted as the primary address and it is written to RX_MATCH.ADDRESS
ARM GAS  C:\Users\marce\AppData\Local\Temp\ccozxPEf.s 			page 10


 490:.\Generated_Source\PSoC4/UART_1_EZI2C.c ****     *  (addr1 << 0x01).
 491:.\Generated_Source\PSoC4/UART_1_EZI2C.c ****     *  The RX_MATCH.MASK is set as follow: addr1 and addr2 equal bits set to 1
 492:.\Generated_Source\PSoC4/UART_1_EZI2C.c ****     *  otherwise 0.
 493:.\Generated_Source\PSoC4/UART_1_EZI2C.c ****     *
 494:.\Generated_Source\PSoC4/UART_1_EZI2C.c ****     * Parameters:
 495:.\Generated_Source\PSoC4/UART_1_EZI2C.c ****     *  addr1: I2C slave address for the primary device.
 496:.\Generated_Source\PSoC4/UART_1_EZI2C.c ****     *  addr2: I2C slave address for the secondary device.
 497:.\Generated_Source\PSoC4/UART_1_EZI2C.c ****     *         This address is the 7-bit right-justified slave address and does
 498:.\Generated_Source\PSoC4/UART_1_EZI2C.c ****     *         not include the R/W bit.
 499:.\Generated_Source\PSoC4/UART_1_EZI2C.c ****     *         This value may be any address between 0 and 127 (0x00 to 0x7F).
 500:.\Generated_Source\PSoC4/UART_1_EZI2C.c ****     *
 501:.\Generated_Source\PSoC4/UART_1_EZI2C.c ****     * Return:
 502:.\Generated_Source\PSoC4/UART_1_EZI2C.c ****     *  Value of RX MATCH register.
 503:.\Generated_Source\PSoC4/UART_1_EZI2C.c ****     *
 504:.\Generated_Source\PSoC4/UART_1_EZI2C.c ****     *******************************************************************************/
 505:.\Generated_Source\PSoC4/UART_1_EZI2C.c ****     static uint32 UART_1_EzI2CUpdateRxMatchReg(uint32 addr1, uint32 addr2)
 506:.\Generated_Source\PSoC4/UART_1_EZI2C.c ****     {
  25              		.loc 1 506 0
  26              		.cfi_startproc
  27              	.LVL0:
 507:.\Generated_Source\PSoC4/UART_1_EZI2C.c ****         uint32 matchReg;
 508:.\Generated_Source\PSoC4/UART_1_EZI2C.c **** 
 509:.\Generated_Source\PSoC4/UART_1_EZI2C.c ****         matchReg  = ~(addr1 ^ addr2); /* If (addr1 and addr2) bit matches - mask bit equals 1, in o
  28              		.loc 1 509 0
  29 0000 021C     		mov	r2, r0
  30 0002 4A40     		eor	r2, r1
  31 0004 D243     		mvn	r2, r2
  32              	.LVL1:
 510:.\Generated_Source\PSoC4/UART_1_EZI2C.c **** 
 511:.\Generated_Source\PSoC4/UART_1_EZI2C.c ****         matchReg  = (uint32) (UART_1_GET_I2C_8BIT_ADDRESS(matchReg) << UART_1_RX_MATCH_MASK_POS);
  33              		.loc 1 511 0
  34 0006 5200     		lsl	r2, r2, #1
  35              	.LVL2:
  36 0008 FF23     		mov	r3, #255
  37 000a 1A40     		and	r2, r3
  38 000c 1204     		lsl	r2, r2, #16
  39              	.LVL3:
 512:.\Generated_Source\PSoC4/UART_1_EZI2C.c ****         matchReg |= UART_1_GET_I2C_8BIT_ADDRESS(addr1);
  40              		.loc 1 512 0
  41 000e 4000     		lsl	r0, r0, #1
  42              	.LVL4:
  43 0010 1840     		and	r0, r3
  44 0012 1043     		orr	r0, r2
  45              	.LVL5:
 513:.\Generated_Source\PSoC4/UART_1_EZI2C.c **** 
 514:.\Generated_Source\PSoC4/UART_1_EZI2C.c ****         return(matchReg);
 515:.\Generated_Source\PSoC4/UART_1_EZI2C.c ****     }
  46              		.loc 1 515 0
  47              		@ sp needed
  48 0014 7047     		bx	lr
  49              		.cfi_endproc
  50              	.LFE7:
  51              		.size	UART_1_EzI2CUpdateRxMatchReg, .-UART_1_EzI2CUpdateRxMatchReg
  52 0016 C046     		.section	.text.UART_1_EzI2CInit,"ax",%progbits
  53              		.align	2
  54              		.global	UART_1_EzI2CInit
  55              		.code	16
ARM GAS  C:\Users\marce\AppData\Local\Temp\ccozxPEf.s 			page 11


  56              		.thumb_func
  57              		.type	UART_1_EzI2CInit, %function
  58              	UART_1_EzI2CInit:
  59              	.LFB0:
  93:.\Generated_Source\PSoC4/UART_1_EZI2C.c ****     {
  60              		.loc 1 93 0
  61              		.cfi_startproc
  62              	.LVL6:
  63 0000 10B5     		push	{r4, lr}
  64              		.cfi_def_cfa_offset 8
  65              		.cfi_offset 4, -8
  66              		.cfi_offset 14, -4
  67 0002 041E     		sub	r4, r0, #0
  94:.\Generated_Source\PSoC4/UART_1_EZI2C.c ****         if(NULL == config)
  68              		.loc 1 94 0
  69 0004 03D1     		bne	.L3
  96:.\Generated_Source\PSoC4/UART_1_EZI2C.c ****             CYASSERT(0u != 0u); /* Halt execution due to bad function parameter */
  70              		.loc 1 96 0 discriminator 1
  71 0006 0020     		mov	r0, #0
  72              	.LVL7:
  73 0008 FFF7FEFF 		bl	CyHalt
  74              	.LVL8:
  75 000c A2E0     		b	.L2
  76              	.LVL9:
  77              	.L3:
 101:.\Generated_Source\PSoC4/UART_1_EZI2C.c ****             UART_1_SetPins(UART_1_SCB_MODE_EZI2C, UART_1_DUMMY_PARAM,
  78              		.loc 1 101 0
  79 000e 0820     		mov	r0, #8
  80              	.LVL10:
  81 0010 0021     		mov	r1, #0
  82 0012 0022     		mov	r2, #0
  83 0014 FFF7FEFF 		bl	UART_1_SetPins
  84              	.LVL11:
 105:.\Generated_Source\PSoC4/UART_1_EZI2C.c ****             UART_1_scbMode       = (uint8) UART_1_SCB_MODE_EZI2C;
  85              		.loc 1 105 0
  86 0018 0822     		mov	r2, #8
  87 001a 4F4B     		ldr	r3, .L19
  88 001c 1A70     		strb	r2, [r3]
 106:.\Generated_Source\PSoC4/UART_1_EZI2C.c ****             UART_1_scbEnableWake = (uint8) config->enableWake;
  89              		.loc 1 106 0
  90 001e 227E     		ldrb	r2, [r4, #24]
  91 0020 4E4B     		ldr	r3, .L19+4
  92 0022 1A70     		strb	r2, [r3]
 107:.\Generated_Source\PSoC4/UART_1_EZI2C.c ****             UART_1_scbEnableIntr = (uint8) UART_1_SCB_IRQ_INTERNAL;
  93              		.loc 1 107 0
  94 0024 0122     		mov	r2, #1
  95 0026 4E4B     		ldr	r3, .L19+8
  96 0028 1A70     		strb	r2, [r3]
 109:.\Generated_Source\PSoC4/UART_1_EZI2C.c ****             UART_1_numberOfAddr  = (uint8) config->numberOfAddresses;
  97              		.loc 1 109 0
  98 002a 227A     		ldrb	r2, [r4, #8]
  99 002c 4D4B     		ldr	r3, .L19+12
 100 002e 1A70     		strb	r2, [r3]
 110:.\Generated_Source\PSoC4/UART_1_EZI2C.c ****             UART_1_subAddrSize   = (uint8) config->subAddrSize;
 101              		.loc 1 110 0
 102 0030 227D     		ldrb	r2, [r4, #20]
 103 0032 4D4B     		ldr	r3, .L19+16
ARM GAS  C:\Users\marce\AppData\Local\Temp\ccozxPEf.s 			page 12


 104 0034 1A70     		strb	r2, [r3]
 114:.\Generated_Source\PSoC4/UART_1_EZI2C.c ****             UART_1_SET_I2C_CFG_SDA_FILT_TRIM(UART_1_EC_AM_I2C_CFG_SDA_FILT_TRIM);
 105              		.loc 1 114 0
 106 0036 4D4B     		ldr	r3, .L19+20
 107 0038 1968     		ldr	r1, [r3]
 108 003a 0C22     		mov	r2, #12
 109 003c 0A43     		orr	r2, r1
 110 003e 1A60     		str	r2, [r3]
 118:.\Generated_Source\PSoC4/UART_1_EZI2C.c ****             UART_1_I2C_CFG_ANALOG_FITER_ENABLE;
 111              		.loc 1 118 0
 112 0040 1A68     		ldr	r2, [r3]
 113 0042 4B49     		ldr	r1, .L19+24
 114 0044 0A43     		orr	r2, r1
 115 0046 1A60     		str	r2, [r3]
 121:.\Generated_Source\PSoC4/UART_1_EZI2C.c ****             UART_1_CTRL_REG     = UART_1_GET_CTRL_BYTE_MODE  (config->enableByteMode)    |
 116              		.loc 1 121 0
 117 0048 A368     		ldr	r3, [r4, #8]
 118 004a 002B     		cmp	r3, #0
 119 004c 02D0     		beq	.L14
 120 004e 8022     		mov	r2, #128
 121 0050 5202     		lsl	r2, r2, #9
 122 0052 00E0     		b	.L5
 123              	.L14:
 124 0054 0022     		mov	r2, #0
 125              	.L5:
 123:.\Generated_Source\PSoC4/UART_1_EZI2C.c ****                                             UART_1_GET_CTRL_EC_AM_MODE (config->enableWake);
 126              		.loc 1 123 0
 127 0056 A369     		ldr	r3, [r4, #24]
 128 0058 002B     		cmp	r3, #0
 129 005a 02D0     		beq	.L15
 130 005c 8023     		mov	r3, #128
 131 005e 5B00     		lsl	r3, r3, #1
 132 0060 00E0     		b	.L6
 133              	.L15:
 134 0062 0023     		mov	r3, #0
 135              	.L6:
 122:.\Generated_Source\PSoC4/UART_1_EZI2C.c ****                                             UART_1_GET_CTRL_ADDR_ACCEPT(config->numberOfAddresses) 
 136              		.loc 1 122 0
 137 0064 1A43     		orr	r2, r3
 121:.\Generated_Source\PSoC4/UART_1_EZI2C.c ****             UART_1_CTRL_REG     = UART_1_GET_CTRL_BYTE_MODE  (config->enableByteMode)    |
 138              		.loc 1 121 0
 139 0066 434B     		ldr	r3, .L19+28
 140 0068 1A60     		str	r2, [r3]
 125:.\Generated_Source\PSoC4/UART_1_EZI2C.c ****             UART_1_I2C_CTRL_REG = UART_1_EZI2C_CTRL;
 141              		.loc 1 125 0
 142 006a 434A     		ldr	r2, .L19+32
 143 006c 434B     		ldr	r3, .L19+36
 144 006e 1A60     		str	r2, [r3]
 128:.\Generated_Source\PSoC4/UART_1_EZI2C.c ****             UART_1_RX_CTRL_REG = UART_1_EZI2C_RX_CTRL |
 145              		.loc 1 128 0
 146 0070 434A     		ldr	r2, .L19+40
 147 0072 444B     		ldr	r3, .L19+44
 148 0074 1A60     		str	r2, [r3]
 131:.\Generated_Source\PSoC4/UART_1_EZI2C.c ****             UART_1_RX_FIFO_CTRL_REG = UART_1_CLEAR_REG;
 149              		.loc 1 131 0
 150 0076 0022     		mov	r2, #0
 151 0078 434B     		ldr	r3, .L19+48
ARM GAS  C:\Users\marce\AppData\Local\Temp\ccozxPEf.s 			page 13


 152 007a 1A60     		str	r2, [r3]
 134:.\Generated_Source\PSoC4/UART_1_EZI2C.c ****             if(UART_1_EZI2C_PRIMARY_ADDRESS == config->numberOfAddresses)
 153              		.loc 1 134 0
 154 007c A368     		ldr	r3, [r4, #8]
 155 007e 002B     		cmp	r3, #0
 156 0080 06D1     		bne	.L7
 136:.\Generated_Source\PSoC4/UART_1_EZI2C.c ****                 UART_1_RX_MATCH_REG = UART_1_EzI2CUpdateRxMatchReg(config->primarySlaveAddr,
 157              		.loc 1 136 0
 158 0082 E168     		ldr	r1, [r4, #12]
 159 0084 081C     		mov	r0, r1
 160 0086 FFF7FEFF 		bl	UART_1_EzI2CUpdateRxMatchReg
 161              	.LVL12:
 162 008a 404B     		ldr	r3, .L19+52
 163 008c 1860     		str	r0, [r3]
 164 008e 05E0     		b	.L8
 165              	.L7:
 141:.\Generated_Source\PSoC4/UART_1_EZI2C.c ****                 UART_1_RX_MATCH_REG = UART_1_EzI2CUpdateRxMatchReg(config->primarySlaveAddr,
 166              		.loc 1 141 0
 167 0090 E068     		ldr	r0, [r4, #12]
 168 0092 2169     		ldr	r1, [r4, #16]
 169 0094 FFF7FEFF 		bl	UART_1_EzI2CUpdateRxMatchReg
 170              	.LVL13:
 171 0098 3C4B     		ldr	r3, .L19+52
 172 009a 1860     		str	r0, [r3]
 173              	.L8:
 146:.\Generated_Source\PSoC4/UART_1_EZI2C.c ****             UART_1_TX_CTRL_REG      = UART_1_EZI2C_TX_CTRL;
 174              		.loc 1 146 0
 175 009c 384A     		ldr	r2, .L19+40
 176 009e 3C4B     		ldr	r3, .L19+56
 177 00a0 1A60     		str	r2, [r3]
 148:.\Generated_Source\PSoC4/UART_1_EZI2C.c ****                                                  UART_1_CLEAR_REG : UART_1_EZI2C_TX_FIFO_CTRL);
 178              		.loc 1 148 0
 179 00a2 2368     		ldr	r3, [r4]
 180 00a4 002B     		cmp	r3, #0
 181 00a6 01D0     		beq	.L16
 182 00a8 0022     		mov	r2, #0
 183 00aa 00E0     		b	.L9
 184              	.L16:
 185 00ac 0222     		mov	r2, #2
 186              	.L9:
 147:.\Generated_Source\PSoC4/UART_1_EZI2C.c ****             UART_1_TX_FIFO_CTRL_REG = ((0u != (config->enableClockStretch)) ?
 187              		.loc 1 147 0
 188 00ae 394B     		ldr	r3, .L19+60
 189 00b0 1A60     		str	r2, [r3]
 152:.\Generated_Source\PSoC4/UART_1_EZI2C.c ****            UART_1_INTR_SPI_EC_MASK_REG = UART_1_NO_INTR_SOURCES;
 190              		.loc 1 152 0
 191 00b2 0023     		mov	r3, #0
 192 00b4 384A     		ldr	r2, .L19+64
 193 00b6 1360     		str	r3, [r2]
 155:.\Generated_Source\PSoC4/UART_1_EZI2C.c ****             UART_1_INTR_I2C_EC_MASK_REG = UART_1_NO_INTR_SOURCES;
 194              		.loc 1 155 0
 195 00b8 384A     		ldr	r2, .L19+68
 196 00ba 1360     		str	r3, [r2]
 156:.\Generated_Source\PSoC4/UART_1_EZI2C.c ****             UART_1_INTR_MASTER_MASK_REG = UART_1_NO_INTR_SOURCES;
 197              		.loc 1 156 0
 198 00bc 384A     		ldr	r2, .L19+72
 199 00be 1360     		str	r3, [r2]
ARM GAS  C:\Users\marce\AppData\Local\Temp\ccozxPEf.s 			page 14


 157:.\Generated_Source\PSoC4/UART_1_EZI2C.c ****             UART_1_INTR_SLAVE_MASK_REG  = UART_1_EZI2C_INTR_SLAVE_MASK;
 200              		.loc 1 157 0
 201 00c0 1221     		mov	r1, #18
 202 00c2 FF31     		add	r1, r1, #255
 203 00c4 374A     		ldr	r2, .L19+76
 204 00c6 1160     		str	r1, [r2]
 158:.\Generated_Source\PSoC4/UART_1_EZI2C.c ****             UART_1_INTR_TX_MASK_REG     = UART_1_NO_INTR_SOURCES;
 205              		.loc 1 158 0
 206 00c8 374A     		ldr	r2, .L19+80
 207 00ca 1360     		str	r3, [r2]
 161:.\Generated_Source\PSoC4/UART_1_EZI2C.c ****             CyIntDisable    (UART_1_ISR_NUMBER);
 208              		.loc 1 161 0
 209 00cc 0B20     		mov	r0, #11
 210 00ce FFF7FEFF 		bl	CyIntDisable
 211              	.LVL14:
 162:.\Generated_Source\PSoC4/UART_1_EZI2C.c ****             CyIntSetPriority(UART_1_ISR_NUMBER, UART_1_ISR_PRIORITY);
 212              		.loc 1 162 0
 213 00d2 0B20     		mov	r0, #11
 214 00d4 0321     		mov	r1, #3
 215 00d6 FFF7FEFF 		bl	CyIntSetPriority
 216              	.LVL15:
 163:.\Generated_Source\PSoC4/UART_1_EZI2C.c ****             (void) CyIntSetVector(UART_1_ISR_NUMBER, (0u != (config->enableClockStretch)) ?
 217              		.loc 1 163 0
 218 00da 2368     		ldr	r3, [r4]
 219 00dc 002B     		cmp	r3, #0
 220 00de 01D0     		beq	.L17
 221 00e0 3249     		ldr	r1, .L19+84
 222 00e2 00E0     		b	.L10
 223              	.L17:
 224 00e4 3249     		ldr	r1, .L19+88
 225              	.L10:
 163:.\Generated_Source\PSoC4/UART_1_EZI2C.c ****             (void) CyIntSetVector(UART_1_ISR_NUMBER, (0u != (config->enableClockStretch)) ?
 226              		.loc 1 163 0 is_stmt 0 discriminator 3
 227 00e6 0B20     		mov	r0, #11
 228 00e8 FFF7FEFF 		bl	CyIntSetVector
 229              	.LVL16:
 167:.\Generated_Source\PSoC4/UART_1_EZI2C.c ****             if(0u != (config->enableClockStretch))
 230              		.loc 1 167 0 is_stmt 1 discriminator 3
 231 00ec 2368     		ldr	r3, [r4]
 232 00ee 002B     		cmp	r3, #0
 233 00f0 08D0     		beq	.L11
 170:.\Generated_Source\PSoC4/UART_1_EZI2C.c ****                 UART_1_INTR_SLAVE_MASK_REG |= UART_1_INTR_SLAVE_I2C_ADDR_MATCH;
 234              		.loc 1 170 0
 235 00f2 2C4B     		ldr	r3, .L19+76
 236 00f4 1968     		ldr	r1, [r3]
 237 00f6 4022     		mov	r2, #64
 238 00f8 0A43     		orr	r2, r1
 239 00fa 1A60     		str	r2, [r3]
 171:.\Generated_Source\PSoC4/UART_1_EZI2C.c ****                 UART_1_INTR_RX_MASK_REG     = UART_1_NO_INTR_SOURCES;
 240              		.loc 1 171 0
 241 00fc 0022     		mov	r2, #0
 242 00fe 2D4B     		ldr	r3, .L19+92
 243 0100 1A60     		str	r2, [r3]
 244 0102 0DE0     		b	.L12
 245              	.L11:
 176:.\Generated_Source\PSoC4/UART_1_EZI2C.c ****                 UART_1_I2C_CTRL_REG |= UART_1_EZI2C_CTRL_AUTO;
 246              		.loc 1 176 0
ARM GAS  C:\Users\marce\AppData\Local\Temp\ccozxPEf.s 			page 15


 247 0104 1D4B     		ldr	r3, .L19+36
 248 0106 1968     		ldr	r1, [r3]
 249 0108 F022     		mov	r2, #240
 250 010a 1202     		lsl	r2, r2, #8
 251 010c 0A43     		orr	r2, r1
 252 010e 1A60     		str	r2, [r3]
 179:.\Generated_Source\PSoC4/UART_1_EZI2C.c ****                 UART_1_INTR_SLAVE_MASK_REG |= UART_1_INTR_SLAVE_I2C_START;
 253              		.loc 1 179 0
 254 0110 244B     		ldr	r3, .L19+76
 255 0112 1968     		ldr	r1, [r3]
 256 0114 2022     		mov	r2, #32
 257 0116 0A43     		orr	r2, r1
 258 0118 1A60     		str	r2, [r3]
 180:.\Generated_Source\PSoC4/UART_1_EZI2C.c ****                 UART_1_INTR_RX_MASK_REG     = UART_1_INTR_RX_NOT_EMPTY;
 259              		.loc 1 180 0
 260 011a 0422     		mov	r2, #4
 261 011c 254B     		ldr	r3, .L19+92
 262 011e 1A60     		str	r2, [r3]
 263              	.L12:
 184:.\Generated_Source\PSoC4/UART_1_EZI2C.c ****             UART_1_fsmState = UART_1_EZI2C_FSM_IDLE;
 264              		.loc 1 184 0
 265 0120 114B     		ldr	r3, .L19+16
 266 0122 1B78     		ldrb	r3, [r3]
 267 0124 002B     		cmp	r3, #0
 268 0126 01D0     		beq	.L18
 269 0128 0222     		mov	r2, #2
 270 012a 00E0     		b	.L13
 271              	.L18:
 272 012c 0022     		mov	r2, #0
 273              	.L13:
 184:.\Generated_Source\PSoC4/UART_1_EZI2C.c ****             UART_1_fsmState = UART_1_EZI2C_FSM_IDLE;
 274              		.loc 1 184 0 is_stmt 0 discriminator 3
 275 012e 224B     		ldr	r3, .L19+96
 276 0130 1A70     		strb	r2, [r3]
 186:.\Generated_Source\PSoC4/UART_1_EZI2C.c ****             UART_1_curStatus  = 0u;
 277              		.loc 1 186 0 is_stmt 1 discriminator 3
 278 0132 0023     		mov	r3, #0
 279 0134 214A     		ldr	r2, .L19+100
 280 0136 1370     		strb	r3, [r2]
 187:.\Generated_Source\PSoC4/UART_1_EZI2C.c ****             UART_1_indexBuf1  = 0u;
 281              		.loc 1 187 0 discriminator 3
 282 0138 214A     		ldr	r2, .L19+104
 283 013a 1380     		strh	r3, [r2]
 188:.\Generated_Source\PSoC4/UART_1_EZI2C.c ****             UART_1_offsetBuf1 = 0u;
 284              		.loc 1 188 0 discriminator 3
 285 013c 214A     		ldr	r2, .L19+108
 286 013e 1380     		strh	r3, [r2]
 189:.\Generated_Source\PSoC4/UART_1_EZI2C.c ****             UART_1_indexBuf2  = 0u;
 287              		.loc 1 189 0 discriminator 3
 288 0140 214A     		ldr	r2, .L19+112
 289 0142 1380     		strh	r3, [r2]
 190:.\Generated_Source\PSoC4/UART_1_EZI2C.c ****             UART_1_offsetBuf2 = 0u;
 290              		.loc 1 190 0 discriminator 3
 291 0144 214A     		ldr	r2, .L19+116
 292 0146 1380     		strh	r3, [r2]
 192:.\Generated_Source\PSoC4/UART_1_EZI2C.c ****             UART_1_addrBuf1 = (uint8) config->primarySlaveAddr;
 293              		.loc 1 192 0 discriminator 3
ARM GAS  C:\Users\marce\AppData\Local\Temp\ccozxPEf.s 			page 16


 294 0148 227B     		ldrb	r2, [r4, #12]
 295 014a 214B     		ldr	r3, .L19+120
 296 014c 1A70     		strb	r2, [r3]
 193:.\Generated_Source\PSoC4/UART_1_EZI2C.c ****             UART_1_addrBuf2 = (uint8) config->secondarySlaveAddr;
 297              		.loc 1 193 0 discriminator 3
 298 014e 227C     		ldrb	r2, [r4, #16]
 299 0150 204B     		ldr	r3, .L19+124
 300 0152 1A70     		strb	r2, [r3]
 301              	.L2:
 195:.\Generated_Source\PSoC4/UART_1_EZI2C.c ****     }
 302              		.loc 1 195 0
 303              		@ sp needed
 304              	.LVL17:
 305 0154 10BD     		pop	{r4, pc}
 306              	.L20:
 307 0156 C046     		.align	2
 308              	.L19:
 309 0158 00000000 		.word	UART_1_scbMode
 310 015c 00000000 		.word	UART_1_scbEnableWake
 311 0160 00000000 		.word	UART_1_scbEnableIntr
 312 0164 00000000 		.word	UART_1_numberOfAddr
 313 0168 00000000 		.word	UART_1_subAddrSize
 314 016c 70000740 		.word	1074200688
 315 0170 00000202 		.word	33685504
 316 0174 00000740 		.word	1074200576
 317 0178 00080040 		.word	1073743872
 318 017c 60000740 		.word	1074200672
 319 0180 07010080 		.word	-2147483385
 320 0184 00030740 		.word	1074201344
 321 0188 04030740 		.word	1074201348
 322 018c 10030740 		.word	1074201360
 323 0190 00020740 		.word	1074201088
 324 0194 04020740 		.word	1074201092
 325 0198 C80E0740 		.word	1074204360
 326 019c 880E0740 		.word	1074204296
 327 01a0 080F0740 		.word	1074204424
 328 01a4 480F0740 		.word	1074204488
 329 01a8 880F0740 		.word	1074204552
 330 01ac 00000000 		.word	UART_1_EZI2C_STRETCH_ISR
 331 01b0 00000000 		.word	UART_1_EZI2C_NO_STRETCH_ISR
 332 01b4 C80F0740 		.word	1074204616
 333 01b8 00000000 		.word	UART_1_fsmState
 334 01bc 00000000 		.word	UART_1_curStatus
 335 01c0 00000000 		.word	UART_1_indexBuf1
 336 01c4 00000000 		.word	UART_1_offsetBuf1
 337 01c8 00000000 		.word	UART_1_indexBuf2
 338 01cc 00000000 		.word	UART_1_offsetBuf2
 339 01d0 00000000 		.word	UART_1_addrBuf1
 340 01d4 00000000 		.word	UART_1_addrBuf2
 341              		.cfi_endproc
 342              	.LFE0:
 343              		.size	UART_1_EzI2CInit, .-UART_1_EzI2CInit
 344              		.section	.text.UART_1_EzI2CStop,"ax",%progbits
 345              		.align	2
 346              		.global	UART_1_EzI2CStop
 347              		.code	16
 348              		.thumb_func
ARM GAS  C:\Users\marce\AppData\Local\Temp\ccozxPEf.s 			page 17


 349              		.type	UART_1_EzI2CStop, %function
 350              	UART_1_EzI2CStop:
 351              	.LFB1:
 292:.\Generated_Source\PSoC4/UART_1_EZI2C.c **** {
 352              		.loc 1 292 0
 353              		.cfi_startproc
 293:.\Generated_Source\PSoC4/UART_1_EZI2C.c ****     UART_1_fsmState = UART_1_EZI2C_FSM_IDLE;
 354              		.loc 1 293 0
 355 0000 044B     		ldr	r3, .L24
 356 0002 1B78     		ldrb	r3, [r3]
 357 0004 002B     		cmp	r3, #0
 358 0006 01D0     		beq	.L23
 359 0008 0222     		mov	r2, #2
 360 000a 00E0     		b	.L22
 361              	.L23:
 362 000c 0022     		mov	r2, #0
 363              	.L22:
 293:.\Generated_Source\PSoC4/UART_1_EZI2C.c ****     UART_1_fsmState = UART_1_EZI2C_FSM_IDLE;
 364              		.loc 1 293 0 is_stmt 0 discriminator 3
 365 000e 024B     		ldr	r3, .L24+4
 366 0010 1A70     		strb	r2, [r3]
 294:.\Generated_Source\PSoC4/UART_1_EZI2C.c **** }
 367              		.loc 1 294 0 is_stmt 1 discriminator 3
 368              		@ sp needed
 369 0012 7047     		bx	lr
 370              	.L25:
 371              		.align	2
 372              	.L24:
 373 0014 00000000 		.word	UART_1_subAddrSize
 374 0018 00000000 		.word	UART_1_fsmState
 375              		.cfi_endproc
 376              	.LFE1:
 377              		.size	UART_1_EzI2CStop, .-UART_1_EzI2CStop
 378              		.section	.text.UART_1_EzI2CGetActivity,"ax",%progbits
 379              		.align	2
 380              		.global	UART_1_EzI2CGetActivity
 381              		.code	16
 382              		.thumb_func
 383              		.type	UART_1_EzI2CGetActivity, %function
 384              	UART_1_EzI2CGetActivity:
 385              	.LFB2:
 315:.\Generated_Source\PSoC4/UART_1_EZI2C.c **** {
 386              		.loc 1 315 0
 387              		.cfi_startproc
 388 0000 10B5     		push	{r4, lr}
 389              		.cfi_def_cfa_offset 8
 390              		.cfi_offset 4, -8
 391              		.cfi_offset 14, -4
 318:.\Generated_Source\PSoC4/UART_1_EZI2C.c ****     UART_1_DisableInt();  /* Lock from interruption */
 392              		.loc 1 318 0
 393 0002 0B20     		mov	r0, #11
 394 0004 FFF7FEFF 		bl	CyIntDisable
 395              	.LVL18:
 320:.\Generated_Source\PSoC4/UART_1_EZI2C.c ****     status = UART_1_curStatus;
 396              		.loc 1 320 0
 397 0008 124B     		ldr	r3, .L33
 398 000a 1C78     		ldrb	r4, [r3]
ARM GAS  C:\Users\marce\AppData\Local\Temp\ccozxPEf.s 			page 18


 399 000c E4B2     		uxtb	r4, r4
 400              	.LVL19:
 323:.\Generated_Source\PSoC4/UART_1_EZI2C.c ****     if(UART_1_EZI2C_SCL_STRETCH_DISABLE)
 401              		.loc 1 323 0
 402 000e 124B     		ldr	r3, .L33+4
 403 0010 1B68     		ldr	r3, [r3]
 404 0012 5A06     		lsl	r2, r3, #25
 405 0014 14D4     		bmi	.L27
 326:.\Generated_Source\PSoC4/UART_1_EZI2C.c ****         if(UART_1_EZI2C_EC_AM_ENABLE)
 406              		.loc 1 326 0
 407 0016 114B     		ldr	r3, .L33+8
 408 0018 1B68     		ldr	r3, [r3]
 409 001a DA05     		lsl	r2, r3, #23
 410 001c 08D5     		bpl	.L28
 328:.\Generated_Source\PSoC4/UART_1_EZI2C.c ****             status |= UART_1_CHECK_INTR_I2C_EC(UART_1_INTR_I2C_EC_WAKE_UP) ?
 411              		.loc 1 328 0
 412 001e 104B     		ldr	r3, .L33+12
 413 0020 1B68     		ldr	r3, [r3]
 329:.\Generated_Source\PSoC4/UART_1_EZI2C.c ****                         UART_1_EZI2C_STATUS_BUSY : 0u;
 414              		.loc 1 329 0
 415 0022 DA07     		lsl	r2, r3, #31
 416 0024 01D5     		bpl	.L31
 417 0026 2023     		mov	r3, #32
 418 0028 00E0     		b	.L29
 419              	.L31:
 420 002a 0023     		mov	r3, #0
 421              	.L29:
 328:.\Generated_Source\PSoC4/UART_1_EZI2C.c ****             status |= UART_1_CHECK_INTR_I2C_EC(UART_1_INTR_I2C_EC_WAKE_UP) ?
 422              		.loc 1 328 0 discriminator 1
 423 002c 1C43     		orr	r4, r3
 424              	.LVL20:
 425 002e 07E0     		b	.L27
 426              	.L28:
 333:.\Generated_Source\PSoC4/UART_1_EZI2C.c ****             status |= UART_1_CHECK_INTR_SLAVE(UART_1_INTR_SLAVE_I2C_ADDR_MATCH) ?
 427              		.loc 1 333 0
 428 0030 0C4B     		ldr	r3, .L33+16
 429 0032 1B68     		ldr	r3, [r3]
 334:.\Generated_Source\PSoC4/UART_1_EZI2C.c ****                         UART_1_EZI2C_STATUS_BUSY : 0u;
 430              		.loc 1 334 0
 431 0034 5A06     		lsl	r2, r3, #25
 432 0036 01D5     		bpl	.L32
 433 0038 2023     		mov	r3, #32
 434 003a 00E0     		b	.L30
 435              	.L32:
 436 003c 0023     		mov	r3, #0
 437              	.L30:
 333:.\Generated_Source\PSoC4/UART_1_EZI2C.c ****             status |= UART_1_CHECK_INTR_SLAVE(UART_1_INTR_SLAVE_I2C_ADDR_MATCH) ?
 438              		.loc 1 333 0
 439 003e 1C43     		orr	r4, r3
 440              	.LVL21:
 441              	.L27:
 340:.\Generated_Source\PSoC4/UART_1_EZI2C.c ****     UART_1_curStatus &= ((uint8) ~UART_1_EZI2C_CLEAR_STATUS);
 442              		.loc 1 340 0
 443 0040 044B     		ldr	r3, .L33
 444 0042 1A78     		ldrb	r2, [r3]
 445 0044 1F21     		mov	r1, #31
 446 0046 8A43     		bic	r2, r1
ARM GAS  C:\Users\marce\AppData\Local\Temp\ccozxPEf.s 			page 19


 447 0048 1A70     		strb	r2, [r3]
 342:.\Generated_Source\PSoC4/UART_1_EZI2C.c ****     UART_1_EnableInt();   /* Release lock */
 448              		.loc 1 342 0
 449 004a 0B20     		mov	r0, #11
 450 004c FFF7FEFF 		bl	CyIntEnable
 451              	.LVL22:
 345:.\Generated_Source\PSoC4/UART_1_EZI2C.c **** }
 452              		.loc 1 345 0
 453 0050 201C     		mov	r0, r4
 454              		@ sp needed
 455              	.LVL23:
 456 0052 10BD     		pop	{r4, pc}
 457              	.L34:
 458              		.align	2
 459              	.L33:
 460 0054 00000000 		.word	UART_1_curStatus
 461 0058 480F0740 		.word	1074204488
 462 005c 00000740 		.word	1074200576
 463 0060 800E0740 		.word	1074204288
 464 0064 400F0740 		.word	1074204480
 465              		.cfi_endproc
 466              	.LFE2:
 467              		.size	UART_1_EzI2CGetActivity, .-UART_1_EzI2CGetActivity
 468              		.section	.text.UART_1_EzI2CSetAddress1,"ax",%progbits
 469              		.align	2
 470              		.global	UART_1_EzI2CSetAddress1
 471              		.code	16
 472              		.thumb_func
 473              		.type	UART_1_EzI2CSetAddress1, %function
 474              	UART_1_EzI2CSetAddress1:
 475              	.LFB3:
 366:.\Generated_Source\PSoC4/UART_1_EZI2C.c **** {
 476              		.loc 1 366 0
 477              		.cfi_startproc
 478              	.LVL24:
 479 0000 08B5     		push	{r3, lr}
 480              		.cfi_def_cfa_offset 8
 481              		.cfi_offset 3, -8
 482              		.cfi_offset 14, -4
 367:.\Generated_Source\PSoC4/UART_1_EZI2C.c ****     if(UART_1_SECONDARY_ADDRESS_ENABLE)
 483              		.loc 1 367 0
 484 0002 0B4B     		ldr	r3, .L38
 485 0004 1B78     		ldrb	r3, [r3]
 486 0006 002B     		cmp	r3, #0
 487 0008 08D0     		beq	.L36
 369:.\Generated_Source\PSoC4/UART_1_EZI2C.c ****         UART_1_addrBuf1 = (uint8) address;
 488              		.loc 1 369 0
 489 000a 0A4B     		ldr	r3, .L38+4
 490 000c 1870     		strb	r0, [r3]
 371:.\Generated_Source\PSoC4/UART_1_EZI2C.c ****         UART_1_RX_MATCH_REG = UART_1_EzI2CUpdateRxMatchReg(address,
 491              		.loc 1 371 0
 492 000e 0A4B     		ldr	r3, .L38+8
 493 0010 1978     		ldrb	r1, [r3]
 494 0012 FFF7FEFF 		bl	UART_1_EzI2CUpdateRxMatchReg
 495              	.LVL25:
 496 0016 094B     		ldr	r3, .L38+12
 497 0018 1860     		str	r0, [r3]
ARM GAS  C:\Users\marce\AppData\Local\Temp\ccozxPEf.s 			page 20


 498 001a 07E0     		b	.L35
 499              	.LVL26:
 500              	.L36:
 501              	.LBB2:
 378:.\Generated_Source\PSoC4/UART_1_EZI2C.c ****         matchReg = UART_1_RX_MATCH_REG;
 502              		.loc 1 378 0
 503 001c 074B     		ldr	r3, .L38+12
 504 001e 1968     		ldr	r1, [r3]
 505              	.LVL27:
 380:.\Generated_Source\PSoC4/UART_1_EZI2C.c ****         matchReg &= ((uint32) ~UART_1_RX_MATCH_ADDR_MASK);            /* Clear address bits */
 506              		.loc 1 380 0
 507 0020 FF22     		mov	r2, #255
 508 0022 9143     		bic	r1, r2
 509              	.LVL28:
 381:.\Generated_Source\PSoC4/UART_1_EZI2C.c ****         matchReg |= ((uint32)  UART_1_GET_I2C_8BIT_ADDRESS(address)); /* Set mask */
 510              		.loc 1 381 0
 511 0024 4000     		lsl	r0, r0, #1
 512              	.LVL29:
 513 0026 0240     		and	r2, r0
 514 0028 0A43     		orr	r2, r1
 515              	.LVL30:
 383:.\Generated_Source\PSoC4/UART_1_EZI2C.c ****         UART_1_RX_MATCH_REG = matchReg;
 516              		.loc 1 383 0
 517 002a 1A60     		str	r2, [r3]
 518              	.LVL31:
 519              	.L35:
 520              	.LBE2:
 386:.\Generated_Source\PSoC4/UART_1_EZI2C.c **** }
 521              		.loc 1 386 0
 522              		@ sp needed
 523 002c 08BD     		pop	{r3, pc}
 524              	.L39:
 525 002e C046     		.align	2
 526              	.L38:
 527 0030 00000000 		.word	UART_1_numberOfAddr
 528 0034 00000000 		.word	UART_1_addrBuf1
 529 0038 00000000 		.word	UART_1_addrBuf2
 530 003c 10030740 		.word	1074201360
 531              		.cfi_endproc
 532              	.LFE3:
 533              		.size	UART_1_EzI2CSetAddress1, .-UART_1_EzI2CSetAddress1
 534              		.section	.text.UART_1_EzI2CGetAddress1,"ax",%progbits
 535              		.align	2
 536              		.global	UART_1_EzI2CGetAddress1
 537              		.code	16
 538              		.thumb_func
 539              		.type	UART_1_EzI2CGetAddress1, %function
 540              	UART_1_EzI2CGetAddress1:
 541              	.LFB4:
 407:.\Generated_Source\PSoC4/UART_1_EZI2C.c **** {
 542              		.loc 1 407 0
 543              		.cfi_startproc
 410:.\Generated_Source\PSoC4/UART_1_EZI2C.c ****     if(UART_1_SECONDARY_ADDRESS_ENABLE)
 544              		.loc 1 410 0
 545 0000 054B     		ldr	r3, .L43
 546 0002 1B78     		ldrb	r3, [r3]
 547 0004 002B     		cmp	r3, #0
ARM GAS  C:\Users\marce\AppData\Local\Temp\ccozxPEf.s 			page 21


 548 0006 02D0     		beq	.L41
 412:.\Generated_Source\PSoC4/UART_1_EZI2C.c ****         address = (uint32) UART_1_addrBuf1;
 549              		.loc 1 412 0
 550 0008 044B     		ldr	r3, .L43+4
 551 000a 1878     		ldrb	r0, [r3]
 552              	.LVL32:
 553 000c 03E0     		b	.L42
 554              	.LVL33:
 555              	.L41:
 416:.\Generated_Source\PSoC4/UART_1_EZI2C.c ****         address = (UART_1_GET_RX_MATCH_ADDR(UART_1_RX_MATCH_REG) >>
 556              		.loc 1 416 0
 557 000e 044B     		ldr	r3, .L43+8
 558 0010 1868     		ldr	r0, [r3]
 559 0012 0006     		lsl	r0, r0, #24
 560 0014 400E     		lsr	r0, r0, #25
 561              	.LVL34:
 562              	.L42:
 422:.\Generated_Source\PSoC4/UART_1_EZI2C.c **** }
 563              		.loc 1 422 0
 564              		@ sp needed
 565 0016 7047     		bx	lr
 566              	.L44:
 567              		.align	2
 568              	.L43:
 569 0018 00000000 		.word	UART_1_numberOfAddr
 570 001c 00000000 		.word	UART_1_addrBuf1
 571 0020 10030740 		.word	1074201360
 572              		.cfi_endproc
 573              	.LFE4:
 574              		.size	UART_1_EzI2CGetAddress1, .-UART_1_EzI2CGetAddress1
 575              		.section	.text.UART_1_EzI2CSetBuffer1,"ax",%progbits
 576              		.align	2
 577              		.global	UART_1_EzI2CSetBuffer1
 578              		.code	16
 579              		.thumb_func
 580              		.type	UART_1_EzI2CSetBuffer1, %function
 581              	UART_1_EzI2CSetBuffer1:
 582              	.LFB5:
 445:.\Generated_Source\PSoC4/UART_1_EZI2C.c **** {
 583              		.loc 1 445 0
 584              		.cfi_startproc
 585              	.LVL35:
 586 0000 70B5     		push	{r4, r5, r6, lr}
 587              		.cfi_def_cfa_offset 16
 588              		.cfi_offset 4, -16
 589              		.cfi_offset 5, -12
 590              		.cfi_offset 6, -8
 591              		.cfi_offset 14, -4
 592 0002 061C     		mov	r6, r0
 593 0004 0D1C     		mov	r5, r1
 594 0006 141E     		sub	r4, r2, #0
 446:.\Generated_Source\PSoC4/UART_1_EZI2C.c ****     if (NULL != buffer)
 595              		.loc 1 446 0
 596 0008 0BD0     		beq	.L45
 448:.\Generated_Source\PSoC4/UART_1_EZI2C.c ****         UART_1_DisableInt();  /* Lock from interruption */
 597              		.loc 1 448 0
 598 000a 0B20     		mov	r0, #11
ARM GAS  C:\Users\marce\AppData\Local\Temp\ccozxPEf.s 			page 22


 599              	.LVL36:
 600 000c FFF7FEFF 		bl	CyIntDisable
 601              	.LVL37:
 450:.\Generated_Source\PSoC4/UART_1_EZI2C.c ****         UART_1_dataBuffer1 =  buffer;
 602              		.loc 1 450 0
 603 0010 044B     		ldr	r3, .L47
 604 0012 1C60     		str	r4, [r3]
 451:.\Generated_Source\PSoC4/UART_1_EZI2C.c ****         UART_1_bufSizeBuf1 = (uint16) bufSize;
 605              		.loc 1 451 0
 606 0014 044B     		ldr	r3, .L47+4
 607 0016 1E80     		strh	r6, [r3]
 452:.\Generated_Source\PSoC4/UART_1_EZI2C.c ****         UART_1_protectBuf1 = (uint16) rwBoundary;
 608              		.loc 1 452 0
 609 0018 044B     		ldr	r3, .L47+8
 610 001a 1D80     		strh	r5, [r3]
 454:.\Generated_Source\PSoC4/UART_1_EZI2C.c ****         UART_1_EnableInt();   /* Release lock */
 611              		.loc 1 454 0
 612 001c 0B20     		mov	r0, #11
 613 001e FFF7FEFF 		bl	CyIntEnable
 614              	.LVL38:
 615              	.L45:
 456:.\Generated_Source\PSoC4/UART_1_EZI2C.c **** }
 616              		.loc 1 456 0
 617              		@ sp needed
 618              	.LVL39:
 619              	.LVL40:
 620              	.LVL41:
 621 0022 70BD     		pop	{r4, r5, r6, pc}
 622              	.L48:
 623              		.align	2
 624              	.L47:
 625 0024 00000000 		.word	UART_1_dataBuffer1
 626 0028 00000000 		.word	UART_1_bufSizeBuf1
 627 002c 00000000 		.word	UART_1_protectBuf1
 628              		.cfi_endproc
 629              	.LFE5:
 630              		.size	UART_1_EzI2CSetBuffer1, .-UART_1_EzI2CSetBuffer1
 631              		.section	.text.UART_1_EzI2CSetReadBoundaryBuffer1,"ax",%progbits
 632              		.align	2
 633              		.global	UART_1_EzI2CSetReadBoundaryBuffer1
 634              		.code	16
 635              		.thumb_func
 636              		.type	UART_1_EzI2CSetReadBoundaryBuffer1, %function
 637              	UART_1_EzI2CSetReadBoundaryBuffer1:
 638              	.LFB6:
 477:.\Generated_Source\PSoC4/UART_1_EZI2C.c **** {
 639              		.loc 1 477 0
 640              		.cfi_startproc
 641              	.LVL42:
 478:.\Generated_Source\PSoC4/UART_1_EZI2C.c ****     UART_1_protectBuf1 = (uint16) rwBoundary;
 642              		.loc 1 478 0
 643 0000 014B     		ldr	r3, .L50
 644 0002 1880     		strh	r0, [r3]
 479:.\Generated_Source\PSoC4/UART_1_EZI2C.c **** }
 645              		.loc 1 479 0
 646              		@ sp needed
 647 0004 7047     		bx	lr
ARM GAS  C:\Users\marce\AppData\Local\Temp\ccozxPEf.s 			page 23


 648              	.L51:
 649 0006 C046     		.align	2
 650              	.L50:
 651 0008 00000000 		.word	UART_1_protectBuf1
 652              		.cfi_endproc
 653              	.LFE6:
 654              		.size	UART_1_EzI2CSetReadBoundaryBuffer1, .-UART_1_EzI2CSetReadBoundaryBuffer1
 655              		.section	.text.UART_1_EzI2CSetAddress2,"ax",%progbits
 656              		.align	2
 657              		.global	UART_1_EzI2CSetAddress2
 658              		.code	16
 659              		.thumb_func
 660              		.type	UART_1_EzI2CSetAddress2, %function
 661              	UART_1_EzI2CSetAddress2:
 662              	.LFB8:
 516:.\Generated_Source\PSoC4/UART_1_EZI2C.c **** 
 517:.\Generated_Source\PSoC4/UART_1_EZI2C.c ****     /*******************************************************************************
 518:.\Generated_Source\PSoC4/UART_1_EZI2C.c ****     * Function Name: UART_1_EzI2CSetAddress2
 519:.\Generated_Source\PSoC4/UART_1_EZI2C.c ****     ********************************************************************************
 520:.\Generated_Source\PSoC4/UART_1_EZI2C.c ****     *
 521:.\Generated_Source\PSoC4/UART_1_EZI2C.c ****     * Summary:
 522:.\Generated_Source\PSoC4/UART_1_EZI2C.c ****     *  Sets the secondary I2C slave address.
 523:.\Generated_Source\PSoC4/UART_1_EZI2C.c ****     *
 524:.\Generated_Source\PSoC4/UART_1_EZI2C.c ****     * Parameters:
 525:.\Generated_Source\PSoC4/UART_1_EZI2C.c ****     *  address: I2C slave address for the secondary device.
 526:.\Generated_Source\PSoC4/UART_1_EZI2C.c ****     *           This address is the 7-bit right-justified slave address and does
 527:.\Generated_Source\PSoC4/UART_1_EZI2C.c ****     *           not include the R/W bit.
 528:.\Generated_Source\PSoC4/UART_1_EZI2C.c ****     *           This value may be any address between 0 and 127 (0x00 to 0x7F).
 529:.\Generated_Source\PSoC4/UART_1_EZI2C.c ****     *
 530:.\Generated_Source\PSoC4/UART_1_EZI2C.c ****     * Return:
 531:.\Generated_Source\PSoC4/UART_1_EZI2C.c ****     *  None
 532:.\Generated_Source\PSoC4/UART_1_EZI2C.c ****     *
 533:.\Generated_Source\PSoC4/UART_1_EZI2C.c ****     *******************************************************************************/
 534:.\Generated_Source\PSoC4/UART_1_EZI2C.c ****     void UART_1_EzI2CSetAddress2(uint32 address)
 535:.\Generated_Source\PSoC4/UART_1_EZI2C.c ****     {
 663              		.loc 1 535 0
 664              		.cfi_startproc
 665              	.LVL43:
 666 0000 08B5     		push	{r3, lr}
 667              		.cfi_def_cfa_offset 8
 668              		.cfi_offset 3, -8
 669              		.cfi_offset 14, -4
 670 0002 011C     		mov	r1, r0
 536:.\Generated_Source\PSoC4/UART_1_EZI2C.c ****         UART_1_addrBuf2 = (uint8) address;
 671              		.loc 1 536 0
 672 0004 044B     		ldr	r3, .L53
 673 0006 1870     		strb	r0, [r3]
 537:.\Generated_Source\PSoC4/UART_1_EZI2C.c **** 
 538:.\Generated_Source\PSoC4/UART_1_EZI2C.c ****         UART_1_RX_MATCH_REG = UART_1_EzI2CUpdateRxMatchReg((uint32) UART_1_addrBuf1,
 674              		.loc 1 538 0
 675 0008 044B     		ldr	r3, .L53+4
 676 000a 1878     		ldrb	r0, [r3]
 677              	.LVL44:
 678 000c FFF7FEFF 		bl	UART_1_EzI2CUpdateRxMatchReg
 679              	.LVL45:
 680 0010 034B     		ldr	r3, .L53+8
 681 0012 1860     		str	r0, [r3]
ARM GAS  C:\Users\marce\AppData\Local\Temp\ccozxPEf.s 			page 24


 539:.\Generated_Source\PSoC4/UART_1_EZI2C.c ****                                                                                address);
 540:.\Generated_Source\PSoC4/UART_1_EZI2C.c ****     }
 682              		.loc 1 540 0
 683              		@ sp needed
 684 0014 08BD     		pop	{r3, pc}
 685              	.L54:
 686 0016 C046     		.align	2
 687              	.L53:
 688 0018 00000000 		.word	UART_1_addrBuf2
 689 001c 00000000 		.word	UART_1_addrBuf1
 690 0020 10030740 		.word	1074201360
 691              		.cfi_endproc
 692              	.LFE8:
 693              		.size	UART_1_EzI2CSetAddress2, .-UART_1_EzI2CSetAddress2
 694              		.section	.text.UART_1_EzI2CGetAddress2,"ax",%progbits
 695              		.align	2
 696              		.global	UART_1_EzI2CGetAddress2
 697              		.code	16
 698              		.thumb_func
 699              		.type	UART_1_EzI2CGetAddress2, %function
 700              	UART_1_EzI2CGetAddress2:
 701              	.LFB9:
 541:.\Generated_Source\PSoC4/UART_1_EZI2C.c **** 
 542:.\Generated_Source\PSoC4/UART_1_EZI2C.c **** 
 543:.\Generated_Source\PSoC4/UART_1_EZI2C.c ****     /*******************************************************************************
 544:.\Generated_Source\PSoC4/UART_1_EZI2C.c ****     * Function Name: UART_1_EzI2CGetAddress2
 545:.\Generated_Source\PSoC4/UART_1_EZI2C.c ****     ********************************************************************************
 546:.\Generated_Source\PSoC4/UART_1_EZI2C.c ****     *
 547:.\Generated_Source\PSoC4/UART_1_EZI2C.c ****     * Summary:
 548:.\Generated_Source\PSoC4/UART_1_EZI2C.c ****     *  Gets secondary the I2C slave 7-bit address.
 549:.\Generated_Source\PSoC4/UART_1_EZI2C.c ****     *
 550:.\Generated_Source\PSoC4/UART_1_EZI2C.c ****     * Parameters:
 551:.\Generated_Source\PSoC4/UART_1_EZI2C.c ****     *  None
 552:.\Generated_Source\PSoC4/UART_1_EZI2C.c ****     *
 553:.\Generated_Source\PSoC4/UART_1_EZI2C.c ****     * Return:
 554:.\Generated_Source\PSoC4/UART_1_EZI2C.c ****     *  Returns the I2C slave address for the secondary device.
 555:.\Generated_Source\PSoC4/UART_1_EZI2C.c ****     *  This address is a 7-bit right-justified slave address and does not
 556:.\Generated_Source\PSoC4/UART_1_EZI2C.c ****     *  include the R/W bit.
 557:.\Generated_Source\PSoC4/UART_1_EZI2C.c ****     *  This value may be any address between 0 and 127 (0x00 to 0x7F).
 558:.\Generated_Source\PSoC4/UART_1_EZI2C.c ****     *
 559:.\Generated_Source\PSoC4/UART_1_EZI2C.c ****     *******************************************************************************/
 560:.\Generated_Source\PSoC4/UART_1_EZI2C.c ****     uint32 UART_1_EzI2CGetAddress2(void)
 561:.\Generated_Source\PSoC4/UART_1_EZI2C.c ****     {
 702              		.loc 1 561 0
 703              		.cfi_startproc
 562:.\Generated_Source\PSoC4/UART_1_EZI2C.c ****         return((uint32) UART_1_addrBuf2);
 704              		.loc 1 562 0
 705 0000 014B     		ldr	r3, .L56
 706 0002 1878     		ldrb	r0, [r3]
 563:.\Generated_Source\PSoC4/UART_1_EZI2C.c ****     }
 707              		.loc 1 563 0
 708              		@ sp needed
 709 0004 7047     		bx	lr
 710              	.L57:
 711 0006 C046     		.align	2
 712              	.L56:
 713 0008 00000000 		.word	UART_1_addrBuf2
ARM GAS  C:\Users\marce\AppData\Local\Temp\ccozxPEf.s 			page 25


 714              		.cfi_endproc
 715              	.LFE9:
 716              		.size	UART_1_EzI2CGetAddress2, .-UART_1_EzI2CGetAddress2
 717              		.section	.text.UART_1_EzI2CSetBuffer2,"ax",%progbits
 718              		.align	2
 719              		.global	UART_1_EzI2CSetBuffer2
 720              		.code	16
 721              		.thumb_func
 722              		.type	UART_1_EzI2CSetBuffer2, %function
 723              	UART_1_EzI2CSetBuffer2:
 724              	.LFB10:
 564:.\Generated_Source\PSoC4/UART_1_EZI2C.c **** 
 565:.\Generated_Source\PSoC4/UART_1_EZI2C.c **** 
 566:.\Generated_Source\PSoC4/UART_1_EZI2C.c ****     /*******************************************************************************
 567:.\Generated_Source\PSoC4/UART_1_EZI2C.c ****     * Function Name: UART_1_EzI2CSetBuffer2
 568:.\Generated_Source\PSoC4/UART_1_EZI2C.c ****     ********************************************************************************
 569:.\Generated_Source\PSoC4/UART_1_EZI2C.c ****     *
 570:.\Generated_Source\PSoC4/UART_1_EZI2C.c ****     * Summary:
 571:.\Generated_Source\PSoC4/UART_1_EZI2C.c ****     *  Sets up the data buffer to be exposed to the I2C master on a secondary slave
 572:.\Generated_Source\PSoC4/UART_1_EZI2C.c ****     *  address request.
 573:.\Generated_Source\PSoC4/UART_1_EZI2C.c ****     *
 574:.\Generated_Source\PSoC4/UART_1_EZI2C.c ****     * Parameters:
 575:.\Generated_Source\PSoC4/UART_1_EZI2C.c ****     *  bufSize: Size of the buffer in bytes.
 576:.\Generated_Source\PSoC4/UART_1_EZI2C.c ****     *  rwBoundary: Sets how many bytes are writeable in the beginning of the buffer.
 577:.\Generated_Source\PSoC4/UART_1_EZI2C.c ****     *              This value must be less than or equal to the buffer size.
 578:.\Generated_Source\PSoC4/UART_1_EZI2C.c ****     *              Data located at offset rwBoundry and greater are read only.
 579:.\Generated_Source\PSoC4/UART_1_EZI2C.c ****     *  buffer: Pointer to the data buffer.
 580:.\Generated_Source\PSoC4/UART_1_EZI2C.c ****     *
 581:.\Generated_Source\PSoC4/UART_1_EZI2C.c ****     * Return:
 582:.\Generated_Source\PSoC4/UART_1_EZI2C.c ****     *  None
 583:.\Generated_Source\PSoC4/UART_1_EZI2C.c ****     *
 584:.\Generated_Source\PSoC4/UART_1_EZI2C.c ****     *******************************************************************************/
 585:.\Generated_Source\PSoC4/UART_1_EZI2C.c ****     void UART_1_EzI2CSetBuffer2(uint32 bufSize, uint32 rwBoundary, volatile uint8 * buffer)
 586:.\Generated_Source\PSoC4/UART_1_EZI2C.c ****     {
 725              		.loc 1 586 0
 726              		.cfi_startproc
 727              	.LVL46:
 728 0000 70B5     		push	{r4, r5, r6, lr}
 729              		.cfi_def_cfa_offset 16
 730              		.cfi_offset 4, -16
 731              		.cfi_offset 5, -12
 732              		.cfi_offset 6, -8
 733              		.cfi_offset 14, -4
 734 0002 061C     		mov	r6, r0
 735 0004 0D1C     		mov	r5, r1
 736 0006 141E     		sub	r4, r2, #0
 587:.\Generated_Source\PSoC4/UART_1_EZI2C.c ****         if (NULL != buffer)
 737              		.loc 1 587 0
 738 0008 0BD0     		beq	.L58
 588:.\Generated_Source\PSoC4/UART_1_EZI2C.c ****         {
 589:.\Generated_Source\PSoC4/UART_1_EZI2C.c ****             UART_1_DisableInt();  /* Lock from interruption */
 739              		.loc 1 589 0
 740 000a 0B20     		mov	r0, #11
 741              	.LVL47:
 742 000c FFF7FEFF 		bl	CyIntDisable
 743              	.LVL48:
 590:.\Generated_Source\PSoC4/UART_1_EZI2C.c **** 
ARM GAS  C:\Users\marce\AppData\Local\Temp\ccozxPEf.s 			page 26


 591:.\Generated_Source\PSoC4/UART_1_EZI2C.c ****             UART_1_dataBuffer2 =  buffer;
 744              		.loc 1 591 0
 745 0010 044B     		ldr	r3, .L60
 746 0012 1C60     		str	r4, [r3]
 592:.\Generated_Source\PSoC4/UART_1_EZI2C.c ****             UART_1_bufSizeBuf2 = (uint16) bufSize;
 747              		.loc 1 592 0
 748 0014 044B     		ldr	r3, .L60+4
 749 0016 1E80     		strh	r6, [r3]
 593:.\Generated_Source\PSoC4/UART_1_EZI2C.c ****             UART_1_protectBuf2 = (uint16) rwBoundary;
 750              		.loc 1 593 0
 751 0018 044B     		ldr	r3, .L60+8
 752 001a 1D80     		strh	r5, [r3]
 594:.\Generated_Source\PSoC4/UART_1_EZI2C.c **** 
 595:.\Generated_Source\PSoC4/UART_1_EZI2C.c ****             UART_1_EnableInt();   /* Release lock */
 753              		.loc 1 595 0
 754 001c 0B20     		mov	r0, #11
 755 001e FFF7FEFF 		bl	CyIntEnable
 756              	.LVL49:
 757              	.L58:
 596:.\Generated_Source\PSoC4/UART_1_EZI2C.c ****         }
 597:.\Generated_Source\PSoC4/UART_1_EZI2C.c ****     }
 758              		.loc 1 597 0
 759              		@ sp needed
 760              	.LVL50:
 761              	.LVL51:
 762              	.LVL52:
 763 0022 70BD     		pop	{r4, r5, r6, pc}
 764              	.L61:
 765              		.align	2
 766              	.L60:
 767 0024 00000000 		.word	UART_1_dataBuffer2
 768 0028 00000000 		.word	UART_1_bufSizeBuf2
 769 002c 00000000 		.word	UART_1_protectBuf2
 770              		.cfi_endproc
 771              	.LFE10:
 772              		.size	UART_1_EzI2CSetBuffer2, .-UART_1_EzI2CSetBuffer2
 773              		.section	.text.UART_1_EzI2CSetReadBoundaryBuffer2,"ax",%progbits
 774              		.align	2
 775              		.global	UART_1_EzI2CSetReadBoundaryBuffer2
 776              		.code	16
 777              		.thumb_func
 778              		.type	UART_1_EzI2CSetReadBoundaryBuffer2, %function
 779              	UART_1_EzI2CSetReadBoundaryBuffer2:
 780              	.LFB11:
 598:.\Generated_Source\PSoC4/UART_1_EZI2C.c **** 
 599:.\Generated_Source\PSoC4/UART_1_EZI2C.c **** 
 600:.\Generated_Source\PSoC4/UART_1_EZI2C.c ****     /*******************************************************************************
 601:.\Generated_Source\PSoC4/UART_1_EZI2C.c ****     * Function Name: UART_1_EzI2CSetReadBoundaryBuffer2
 602:.\Generated_Source\PSoC4/UART_1_EZI2C.c ****     ********************************************************************************
 603:.\Generated_Source\PSoC4/UART_1_EZI2C.c ****     *
 604:.\Generated_Source\PSoC4/UART_1_EZI2C.c ****     * Summary:
 605:.\Generated_Source\PSoC4/UART_1_EZI2C.c ****     *  Sets the read only boundary in the data buffer to be exposed to the I2C
 606:.\Generated_Source\PSoC4/UART_1_EZI2C.c ****     *  master on a secondary address request.
 607:.\Generated_Source\PSoC4/UART_1_EZI2C.c ****     *
 608:.\Generated_Source\PSoC4/UART_1_EZI2C.c ****     * Parameters:
 609:.\Generated_Source\PSoC4/UART_1_EZI2C.c ****     *  rwBoundary: Sets how many bytes are writeable at the beginning of the buffer.
 610:.\Generated_Source\PSoC4/UART_1_EZI2C.c ****     *              This value must be less than or equal to the buffer size.
ARM GAS  C:\Users\marce\AppData\Local\Temp\ccozxPEf.s 			page 27


 611:.\Generated_Source\PSoC4/UART_1_EZI2C.c ****     *              Data located at offset rwBoundry and greater are read only.
 612:.\Generated_Source\PSoC4/UART_1_EZI2C.c ****     *
 613:.\Generated_Source\PSoC4/UART_1_EZI2C.c ****     * Return:
 614:.\Generated_Source\PSoC4/UART_1_EZI2C.c ****     *  None
 615:.\Generated_Source\PSoC4/UART_1_EZI2C.c ****     *
 616:.\Generated_Source\PSoC4/UART_1_EZI2C.c ****     *******************************************************************************/
 617:.\Generated_Source\PSoC4/UART_1_EZI2C.c ****     void UART_1_EzI2CSetReadBoundaryBuffer2(uint32 rwBoundary)
 618:.\Generated_Source\PSoC4/UART_1_EZI2C.c ****     {
 781              		.loc 1 618 0
 782              		.cfi_startproc
 783              	.LVL53:
 619:.\Generated_Source\PSoC4/UART_1_EZI2C.c ****         UART_1_protectBuf2 = (uint16) rwBoundary;
 784              		.loc 1 619 0
 785 0000 014B     		ldr	r3, .L63
 786 0002 1880     		strh	r0, [r3]
 620:.\Generated_Source\PSoC4/UART_1_EZI2C.c ****     }
 787              		.loc 1 620 0
 788              		@ sp needed
 789 0004 7047     		bx	lr
 790              	.L64:
 791 0006 C046     		.align	2
 792              	.L63:
 793 0008 00000000 		.word	UART_1_protectBuf2
 794              		.cfi_endproc
 795              	.LFE11:
 796              		.size	UART_1_EzI2CSetReadBoundaryBuffer2, .-UART_1_EzI2CSetReadBoundaryBuffer2
 797              		.section	.text.UART_1_EzI2CSaveConfig,"ax",%progbits
 798              		.align	2
 799              		.global	UART_1_EzI2CSaveConfig
 800              		.code	16
 801              		.thumb_func
 802              		.type	UART_1_EzI2CSaveConfig, %function
 803              	UART_1_EzI2CSaveConfig:
 804              	.LFB12:
 621:.\Generated_Source\PSoC4/UART_1_EZI2C.c **** 
 622:.\Generated_Source\PSoC4/UART_1_EZI2C.c **** #endif /* (UART_1_SECONDARY_ADDRESS_ENABLE_CONST) */
 623:.\Generated_Source\PSoC4/UART_1_EZI2C.c **** 
 624:.\Generated_Source\PSoC4/UART_1_EZI2C.c **** 
 625:.\Generated_Source\PSoC4/UART_1_EZI2C.c **** #if(UART_1_EZI2C_WAKE_ENABLE_CONST)
 626:.\Generated_Source\PSoC4/UART_1_EZI2C.c ****     /*******************************************************************************
 627:.\Generated_Source\PSoC4/UART_1_EZI2C.c ****     * Function Name: UART_1_EzI2CSaveConfig
 628:.\Generated_Source\PSoC4/UART_1_EZI2C.c ****     ********************************************************************************
 629:.\Generated_Source\PSoC4/UART_1_EZI2C.c ****     *
 630:.\Generated_Source\PSoC4/UART_1_EZI2C.c ****     * Summary:
 631:.\Generated_Source\PSoC4/UART_1_EZI2C.c ****     *  Clock stretching is  enabled: Enables INTR_I2C_EC.WAKE_UP interrupt source.
 632:.\Generated_Source\PSoC4/UART_1_EZI2C.c ****     *  It triggers on the slave address match.
 633:.\Generated_Source\PSoC4/UART_1_EZI2C.c ****     *  Clock stretching is disabled: Waits until the I2C slave becomes free and
 634:.\Generated_Source\PSoC4/UART_1_EZI2C.c ****     *  disables the block to perform reconfiguration from the active mode operation
 635:.\Generated_Source\PSoC4/UART_1_EZI2C.c ****     *  to deep sleep with wake up on the address match: enables INTR_I2C_EC.WAKE_UP
 636:.\Generated_Source\PSoC4/UART_1_EZI2C.c ****     *  interrupt source and disables the INTR_S and INTR_TX interrupt sources.
 637:.\Generated_Source\PSoC4/UART_1_EZI2C.c ****     *  The block is disabled before reconfiguration and enabled when
 638:.\Generated_Source\PSoC4/UART_1_EZI2C.c ****     *  it is completed.
 639:.\Generated_Source\PSoC4/UART_1_EZI2C.c ****     *
 640:.\Generated_Source\PSoC4/UART_1_EZI2C.c ****     * Parameters:
 641:.\Generated_Source\PSoC4/UART_1_EZI2C.c ****     *  None
 642:.\Generated_Source\PSoC4/UART_1_EZI2C.c ****     *
 643:.\Generated_Source\PSoC4/UART_1_EZI2C.c ****     * Return:
ARM GAS  C:\Users\marce\AppData\Local\Temp\ccozxPEf.s 			page 28


 644:.\Generated_Source\PSoC4/UART_1_EZI2C.c ****     *  None
 645:.\Generated_Source\PSoC4/UART_1_EZI2C.c ****     *
 646:.\Generated_Source\PSoC4/UART_1_EZI2C.c ****     *******************************************************************************/
 647:.\Generated_Source\PSoC4/UART_1_EZI2C.c ****     void UART_1_EzI2CSaveConfig(void)
 648:.\Generated_Source\PSoC4/UART_1_EZI2C.c ****     {
 805              		.loc 1 648 0
 806              		.cfi_startproc
 649:.\Generated_Source\PSoC4/UART_1_EZI2C.c ****     #if(UART_1_CY_SCBIP_V0)
 650:.\Generated_Source\PSoC4/UART_1_EZI2C.c **** 
 651:.\Generated_Source\PSoC4/UART_1_EZI2C.c ****         if(UART_1_EZI2C_SCL_STRETCH_ENABLE)
 807              		.loc 1 651 0
 808 0000 034B     		ldr	r3, .L67
 809 0002 1B68     		ldr	r3, [r3]
 810 0004 5A06     		lsl	r2, r3, #25
 811 0006 02D5     		bpl	.L65
 652:.\Generated_Source\PSoC4/UART_1_EZI2C.c ****         {
 653:.\Generated_Source\PSoC4/UART_1_EZI2C.c ****             /* Enable wakeup interrupt source on address match */
 654:.\Generated_Source\PSoC4/UART_1_EZI2C.c ****             UART_1_SetI2CExtClkInterruptMode(UART_1_INTR_I2C_EC_WAKE_UP);
 812              		.loc 1 654 0
 813 0008 0122     		mov	r2, #1
 814 000a 024B     		ldr	r3, .L67+4
 815 000c 1A60     		str	r2, [r3]
 816              	.L65:
 655:.\Generated_Source\PSoC4/UART_1_EZI2C.c ****         }
 656:.\Generated_Source\PSoC4/UART_1_EZI2C.c ****         
 657:.\Generated_Source\PSoC4/UART_1_EZI2C.c **** 
 658:.\Generated_Source\PSoC4/UART_1_EZI2C.c ****     #else
 659:.\Generated_Source\PSoC4/UART_1_EZI2C.c ****         uint8 enableInt;
 660:.\Generated_Source\PSoC4/UART_1_EZI2C.c **** 
 661:.\Generated_Source\PSoC4/UART_1_EZI2C.c ****         enableInt = (uint8) UART_1_INTR_I2C_EC_WAKE_UP;
 662:.\Generated_Source\PSoC4/UART_1_EZI2C.c **** 
 663:.\Generated_Source\PSoC4/UART_1_EZI2C.c ****         if(UART_1_EZI2C_SCL_STRETCH_ENABLE)
 664:.\Generated_Source\PSoC4/UART_1_EZI2C.c ****         {
 665:.\Generated_Source\PSoC4/UART_1_EZI2C.c ****         #if (UART_1_SCB_CLK_INTERNAL)
 666:.\Generated_Source\PSoC4/UART_1_EZI2C.c ****             /* Disable clock to internal address match logic. Ticket ID #187931 */
 667:.\Generated_Source\PSoC4/UART_1_EZI2C.c ****             UART_1_SCBCLK_Stop();
 668:.\Generated_Source\PSoC4/UART_1_EZI2C.c ****         #endif /* (UART_1_SCB_CLK_INTERNAL) */
 669:.\Generated_Source\PSoC4/UART_1_EZI2C.c **** 
 670:.\Generated_Source\PSoC4/UART_1_EZI2C.c ****             /* Enable interrupt source to wakeup device */
 671:.\Generated_Source\PSoC4/UART_1_EZI2C.c ****             UART_1_SetI2CExtClkInterruptMode(enableInt);
 672:.\Generated_Source\PSoC4/UART_1_EZI2C.c ****         }
 673:.\Generated_Source\PSoC4/UART_1_EZI2C.c ****         else
 674:.\Generated_Source\PSoC4/UART_1_EZI2C.c ****         {
 675:.\Generated_Source\PSoC4/UART_1_EZI2C.c ****             for(;;) /* Wait for end of transaction intended to slave */
 676:.\Generated_Source\PSoC4/UART_1_EZI2C.c ****             {
 677:.\Generated_Source\PSoC4/UART_1_EZI2C.c ****                 if(0u == (UART_1_GetI2CExtClkInterruptSource() & UART_1_INTR_I2C_EC_WAKE_UP))
 678:.\Generated_Source\PSoC4/UART_1_EZI2C.c ****                 {
 679:.\Generated_Source\PSoC4/UART_1_EZI2C.c ****                     enableInt = CyEnterCriticalSection();
 680:.\Generated_Source\PSoC4/UART_1_EZI2C.c **** 
 681:.\Generated_Source\PSoC4/UART_1_EZI2C.c ****                     if(0u == (UART_1_GetI2CExtClkInterruptSource() & UART_1_INTR_I2C_EC_WAKE_UP))
 682:.\Generated_Source\PSoC4/UART_1_EZI2C.c ****                     {
 683:.\Generated_Source\PSoC4/UART_1_EZI2C.c ****                         /* Attempts to set NACK command before disable block */
 684:.\Generated_Source\PSoC4/UART_1_EZI2C.c ****                         UART_1_I2C_SLAVE_GENERATE_NACK;
 685:.\Generated_Source\PSoC4/UART_1_EZI2C.c **** 
 686:.\Generated_Source\PSoC4/UART_1_EZI2C.c ****                         if(0u == (UART_1_GetI2CExtClkInterruptSource() & UART_1_INTR_I2C_EC_WAKE_UP
 687:.\Generated_Source\PSoC4/UART_1_EZI2C.c ****                         {
 688:.\Generated_Source\PSoC4/UART_1_EZI2C.c ****                             /* NACK command was set before. It is safe to disable block */
ARM GAS  C:\Users\marce\AppData\Local\Temp\ccozxPEf.s 			page 29


 689:.\Generated_Source\PSoC4/UART_1_EZI2C.c ****                             UART_1_CTRL_REG &= (uint32) ~UART_1_CTRL_ENABLED;
 690:.\Generated_Source\PSoC4/UART_1_EZI2C.c ****                             UART_1_DisableInt();
 691:.\Generated_Source\PSoC4/UART_1_EZI2C.c **** 
 692:.\Generated_Source\PSoC4/UART_1_EZI2C.c ****                             CyExitCriticalSection(enableInt);
 693:.\Generated_Source\PSoC4/UART_1_EZI2C.c ****                             break;
 694:.\Generated_Source\PSoC4/UART_1_EZI2C.c ****                         }
 695:.\Generated_Source\PSoC4/UART_1_EZI2C.c ****                         else
 696:.\Generated_Source\PSoC4/UART_1_EZI2C.c ****                         {
 697:.\Generated_Source\PSoC4/UART_1_EZI2C.c ****                             /* Clear NACK command to prevent data NACK */
 698:.\Generated_Source\PSoC4/UART_1_EZI2C.c ****                             UART_1_I2C_SLAVE_CLEAR_NACK;
 699:.\Generated_Source\PSoC4/UART_1_EZI2C.c ****                         }
 700:.\Generated_Source\PSoC4/UART_1_EZI2C.c ****                     }
 701:.\Generated_Source\PSoC4/UART_1_EZI2C.c **** 
 702:.\Generated_Source\PSoC4/UART_1_EZI2C.c ****                     CyExitCriticalSection(enableInt);
 703:.\Generated_Source\PSoC4/UART_1_EZI2C.c ****                 }
 704:.\Generated_Source\PSoC4/UART_1_EZI2C.c ****             }
 705:.\Generated_Source\PSoC4/UART_1_EZI2C.c **** 
 706:.\Generated_Source\PSoC4/UART_1_EZI2C.c ****             /* Disable all active mode interrupt sources */
 707:.\Generated_Source\PSoC4/UART_1_EZI2C.c ****             UART_1_SetTxInterruptMode(UART_1_NO_INTR_SOURCES);
 708:.\Generated_Source\PSoC4/UART_1_EZI2C.c ****             UART_1_SetSlaveInterruptMode(UART_1_NO_INTR_SOURCES);
 709:.\Generated_Source\PSoC4/UART_1_EZI2C.c ****             UART_1_ClearPendingInt();
 710:.\Generated_Source\PSoC4/UART_1_EZI2C.c ****             UART_1_EnableInt();
 711:.\Generated_Source\PSoC4/UART_1_EZI2C.c **** 
 712:.\Generated_Source\PSoC4/UART_1_EZI2C.c ****             /* Enable wakeup interrupt on address match */
 713:.\Generated_Source\PSoC4/UART_1_EZI2C.c ****             UART_1_SetI2CExtClkInterruptMode(UART_1_INTR_I2C_EC_WAKE_UP);
 714:.\Generated_Source\PSoC4/UART_1_EZI2C.c **** 
 715:.\Generated_Source\PSoC4/UART_1_EZI2C.c ****             enableInt = CyEnterCriticalSection();
 716:.\Generated_Source\PSoC4/UART_1_EZI2C.c **** 
 717:.\Generated_Source\PSoC4/UART_1_EZI2C.c ****             UART_1_CTRL_REG |= (uint32) UART_1_CTRL_ENABLED;
 718:.\Generated_Source\PSoC4/UART_1_EZI2C.c ****             UART_1_I2C_SLAVE_GENERATE_NACK;
 719:.\Generated_Source\PSoC4/UART_1_EZI2C.c **** 
 720:.\Generated_Source\PSoC4/UART_1_EZI2C.c ****             CyExitCriticalSection(enableInt);
 721:.\Generated_Source\PSoC4/UART_1_EZI2C.c ****         }
 722:.\Generated_Source\PSoC4/UART_1_EZI2C.c ****         
 723:.\Generated_Source\PSoC4/UART_1_EZI2C.c ****     #endif /* (UART_1_CY_SCBIP_V0) */
 724:.\Generated_Source\PSoC4/UART_1_EZI2C.c ****     }
 817              		.loc 1 724 0
 818              		@ sp needed
 819 000e 7047     		bx	lr
 820              	.L68:
 821              		.align	2
 822              	.L67:
 823 0010 480F0740 		.word	1074204488
 824 0014 880E0740 		.word	1074204296
 825              		.cfi_endproc
 826              	.LFE12:
 827              		.size	UART_1_EzI2CSaveConfig, .-UART_1_EzI2CSaveConfig
 828              		.section	.text.UART_1_EzI2CRestoreConfig,"ax",%progbits
 829              		.align	2
 830              		.global	UART_1_EzI2CRestoreConfig
 831              		.code	16
 832              		.thumb_func
 833              		.type	UART_1_EzI2CRestoreConfig, %function
 834              	UART_1_EzI2CRestoreConfig:
 835              	.LFB13:
 725:.\Generated_Source\PSoC4/UART_1_EZI2C.c **** 
 726:.\Generated_Source\PSoC4/UART_1_EZI2C.c **** 
ARM GAS  C:\Users\marce\AppData\Local\Temp\ccozxPEf.s 			page 30


 727:.\Generated_Source\PSoC4/UART_1_EZI2C.c ****     /*******************************************************************************
 728:.\Generated_Source\PSoC4/UART_1_EZI2C.c ****     * Function Name: UART_1_EzI2CRestoreConfig
 729:.\Generated_Source\PSoC4/UART_1_EZI2C.c ****     ********************************************************************************
 730:.\Generated_Source\PSoC4/UART_1_EZI2C.c ****     *
 731:.\Generated_Source\PSoC4/UART_1_EZI2C.c ****     * Summary:
 732:.\Generated_Source\PSoC4/UART_1_EZI2C.c ****     *  Clock stretching is  enabled: Disables the INTR_I2C_EC.WAKE_UP interrupt
 733:.\Generated_Source\PSoC4/UART_1_EZI2C.c ****     *  source.
 734:.\Generated_Source\PSoC4/UART_1_EZI2C.c ****     *  Clock stretching is disabled: Reconfigures the EZI2C component from
 735:.\Generated_Source\PSoC4/UART_1_EZI2C.c ****     *  Deep Sleep (wake up on the address match) to active operation: disables
 736:.\Generated_Source\PSoC4/UART_1_EZI2C.c ****     *  the INTR_I2C_EC.WAKE_UP interrupt source and restores the INTR_S
 737:.\Generated_Source\PSoC4/UART_1_EZI2C.c ****     *  interrupt sources to operate in the active mode.
 738:.\Generated_Source\PSoC4/UART_1_EZI2C.c ****     *  The block is disabled before reconfiguration and enabled when
 739:.\Generated_Source\PSoC4/UART_1_EZI2C.c ****     *  it is completed.
 740:.\Generated_Source\PSoC4/UART_1_EZI2C.c ****     *
 741:.\Generated_Source\PSoC4/UART_1_EZI2C.c ****     * Parameters:
 742:.\Generated_Source\PSoC4/UART_1_EZI2C.c ****     *  None
 743:.\Generated_Source\PSoC4/UART_1_EZI2C.c ****     *
 744:.\Generated_Source\PSoC4/UART_1_EZI2C.c ****     * Return:
 745:.\Generated_Source\PSoC4/UART_1_EZI2C.c ****     *  None
 746:.\Generated_Source\PSoC4/UART_1_EZI2C.c ****     *
 747:.\Generated_Source\PSoC4/UART_1_EZI2C.c ****     *******************************************************************************/
 748:.\Generated_Source\PSoC4/UART_1_EZI2C.c ****     void UART_1_EzI2CRestoreConfig(void)
 749:.\Generated_Source\PSoC4/UART_1_EZI2C.c ****     {
 836              		.loc 1 749 0
 837              		.cfi_startproc
 750:.\Generated_Source\PSoC4/UART_1_EZI2C.c ****     #if(UART_1_CY_SCBIP_V0)
 751:.\Generated_Source\PSoC4/UART_1_EZI2C.c **** 
 752:.\Generated_Source\PSoC4/UART_1_EZI2C.c ****         if(UART_1_EZI2C_SCL_STRETCH_ENABLE)
 838              		.loc 1 752 0
 839 0000 034B     		ldr	r3, .L71
 840 0002 1B68     		ldr	r3, [r3]
 841 0004 5A06     		lsl	r2, r3, #25
 842 0006 02D5     		bpl	.L69
 753:.\Generated_Source\PSoC4/UART_1_EZI2C.c ****         {
 754:.\Generated_Source\PSoC4/UART_1_EZI2C.c ****             /* Disable wakeup interrupt on address match */
 755:.\Generated_Source\PSoC4/UART_1_EZI2C.c ****             UART_1_SetI2CExtClkInterruptMode(UART_1_NO_INTR_SOURCES);
 843              		.loc 1 755 0
 844 0008 0022     		mov	r2, #0
 845 000a 024B     		ldr	r3, .L71+4
 846 000c 1A60     		str	r2, [r3]
 847              	.L69:
 756:.\Generated_Source\PSoC4/UART_1_EZI2C.c ****         }
 757:.\Generated_Source\PSoC4/UART_1_EZI2C.c ****         
 758:.\Generated_Source\PSoC4/UART_1_EZI2C.c **** 
 759:.\Generated_Source\PSoC4/UART_1_EZI2C.c ****     #else
 760:.\Generated_Source\PSoC4/UART_1_EZI2C.c **** 
 761:.\Generated_Source\PSoC4/UART_1_EZI2C.c ****         if(UART_1_EZI2C_SCL_STRETCH_ENABLE)
 762:.\Generated_Source\PSoC4/UART_1_EZI2C.c ****         {
 763:.\Generated_Source\PSoC4/UART_1_EZI2C.c ****             /* Disable wakeup interrupt source on address match */
 764:.\Generated_Source\PSoC4/UART_1_EZI2C.c ****             UART_1_SetI2CExtClkInterruptMode(UART_1_NO_INTR_SOURCES);
 765:.\Generated_Source\PSoC4/UART_1_EZI2C.c **** 
 766:.\Generated_Source\PSoC4/UART_1_EZI2C.c ****         #if (UART_1_SCB_CLK_INTERNAL)
 767:.\Generated_Source\PSoC4/UART_1_EZI2C.c ****             /* Enable clock to internal address match logic. Ticket ID #187931 */
 768:.\Generated_Source\PSoC4/UART_1_EZI2C.c ****             UART_1_SCBCLK_Start();
 769:.\Generated_Source\PSoC4/UART_1_EZI2C.c ****         #endif /* (UART_1_SCB_CLK_INTERNAL) */
 770:.\Generated_Source\PSoC4/UART_1_EZI2C.c ****         }
 771:.\Generated_Source\PSoC4/UART_1_EZI2C.c ****         else
ARM GAS  C:\Users\marce\AppData\Local\Temp\ccozxPEf.s 			page 31


 772:.\Generated_Source\PSoC4/UART_1_EZI2C.c ****         {
 773:.\Generated_Source\PSoC4/UART_1_EZI2C.c ****             /* NACK will be driven on the bus by wakeup or NACK command.
 774:.\Generated_Source\PSoC4/UART_1_EZI2C.c ****             * It is safe to disable block to restore active mode configuration.
 775:.\Generated_Source\PSoC4/UART_1_EZI2C.c ****             */
 776:.\Generated_Source\PSoC4/UART_1_EZI2C.c ****             UART_1_CTRL_REG &= (uint32) ~UART_1_CTRL_ENABLED;
 777:.\Generated_Source\PSoC4/UART_1_EZI2C.c **** 
 778:.\Generated_Source\PSoC4/UART_1_EZI2C.c ****             /* Restore active mode interrupt sources */
 779:.\Generated_Source\PSoC4/UART_1_EZI2C.c ****             UART_1_SetI2CExtClkInterruptMode(UART_1_NO_INTR_SOURCES);
 780:.\Generated_Source\PSoC4/UART_1_EZI2C.c ****             UART_1_SetSlaveInterruptMode(UART_1_EZI2C_INTR_SLAVE_MASK |
 781:.\Generated_Source\PSoC4/UART_1_EZI2C.c ****                                                    UART_1_INTR_SLAVE_I2C_START);
 782:.\Generated_Source\PSoC4/UART_1_EZI2C.c ****             UART_1_ClearPendingInt();
 783:.\Generated_Source\PSoC4/UART_1_EZI2C.c **** 
 784:.\Generated_Source\PSoC4/UART_1_EZI2C.c ****             UART_1_CTRL_REG |= (uint32) UART_1_CTRL_ENABLED;
 785:.\Generated_Source\PSoC4/UART_1_EZI2C.c ****         }
 786:.\Generated_Source\PSoC4/UART_1_EZI2C.c ****         
 787:.\Generated_Source\PSoC4/UART_1_EZI2C.c **** 
 788:.\Generated_Source\PSoC4/UART_1_EZI2C.c ****     #endif /* (UART_1_CY_SCBIP_V0) */
 789:.\Generated_Source\PSoC4/UART_1_EZI2C.c ****     }
 848              		.loc 1 789 0
 849              		@ sp needed
 850 000e 7047     		bx	lr
 851              	.L72:
 852              		.align	2
 853              	.L71:
 854 0010 480F0740 		.word	1074204488
 855 0014 880E0740 		.word	1074204296
 856              		.cfi_endproc
 857              	.LFE13:
 858              		.size	UART_1_EzI2CRestoreConfig, .-UART_1_EzI2CRestoreConfig
 859              		.global	UART_1_configEzI2C
 860              		.comm	UART_1_indexBuf2,2,2
 861              		.comm	UART_1_offsetBuf2,2,2
 862              		.comm	UART_1_protectBuf2,2,2
 863              		.comm	UART_1_bufSizeBuf2,2,2
 864              		.comm	UART_1_dataBuffer2,4,4
 865              		.comm	UART_1_addrBuf2,1,1
 866              		.comm	UART_1_addrBuf1,1,1
 867              		.comm	UART_1_indexBuf1,2,2
 868              		.comm	UART_1_offsetBuf1,2,2
 869              		.comm	UART_1_protectBuf1,2,2
 870              		.comm	UART_1_bufSizeBuf1,2,2
 871              		.comm	UART_1_dataBuffer1,4,4
 872              		.comm	UART_1_fsmState,1,1
 873              		.comm	UART_1_curStatus,1,1
 874              		.section	.rodata
 875              		.align	2
 876              		.type	UART_1_configEzI2C, %object
 877              		.size	UART_1_configEzI2C, 32
 878              	UART_1_configEzI2C:
 879 0000 01000000 		.word	1
 880 0004 01000000 		.word	1
 881 0008 00000000 		.word	0
 882 000c 08000000 		.word	8
 883 0010 09000000 		.word	9
 884 0014 00000000 		.word	0
 885 0018 00000000 		.word	0
 886 001c 00       		.byte	0
ARM GAS  C:\Users\marce\AppData\Local\Temp\ccozxPEf.s 			page 32


 887 001d 000000   		.space	3
 888              		.text
 889              	.Letext0:
 890              		.file 2 "Generated_Source\\PSoC4/cytypes.h"
 891              		.file 3 ".\\Generated_Source\\PSoC4\\UART_1_EZI2C.h"
 892              		.file 4 ".\\Generated_Source\\PSoC4\\UART_1_PVT.h"
 893              		.file 5 "Generated_Source\\PSoC4/CyLib.h"