ARM GAS  C:\Users\Marcelo\AppData\Local\Temp\ccivALbz.s 			page 1


   1              		.cpu cortex-m0
   2              		.fpu softvfp
   3              		.eabi_attribute 20, 1
   4              		.eabi_attribute 21, 1
   5              		.eabi_attribute 23, 3
   6              		.eabi_attribute 24, 1
   7              		.eabi_attribute 25, 1
   8              		.eabi_attribute 26, 1
   9              		.eabi_attribute 30, 1
  10              		.eabi_attribute 34, 0
  11              		.eabi_attribute 18, 4
  12              		.code	16
  13              		.file	"UART_1_UART.c"
  14              		.text
  15              	.Ltext0:
  16              		.cfi_sections	.debug_frame
  17              		.section	.text.UART_1_UartInit,"ax",%progbits
  18              		.align	2
  19              		.global	UART_1_UartInit
  20              		.code	16
  21              		.thumb_func
  22              		.type	UART_1_UartInit, %function
  23              	UART_1_UartInit:
  24              	.LFB0:
  25              		.file 1 ".\\Generated_Source\\PSoC4\\UART_1_UART.c"
   1:.\Generated_Source\PSoC4/UART_1_UART.c **** /*******************************************************************************
   2:.\Generated_Source\PSoC4/UART_1_UART.c **** * File Name: UART_1_UART.c
   3:.\Generated_Source\PSoC4/UART_1_UART.c **** * Version 3.0
   4:.\Generated_Source\PSoC4/UART_1_UART.c **** *
   5:.\Generated_Source\PSoC4/UART_1_UART.c **** * Description:
   6:.\Generated_Source\PSoC4/UART_1_UART.c **** *  This file provides the source code to the API for the SCB Component in
   7:.\Generated_Source\PSoC4/UART_1_UART.c **** *  UART mode.
   8:.\Generated_Source\PSoC4/UART_1_UART.c **** *
   9:.\Generated_Source\PSoC4/UART_1_UART.c **** * Note:
  10:.\Generated_Source\PSoC4/UART_1_UART.c **** *
  11:.\Generated_Source\PSoC4/UART_1_UART.c **** *******************************************************************************
  12:.\Generated_Source\PSoC4/UART_1_UART.c **** * Copyright 2013-2015, Cypress Semiconductor Corporation.  All rights reserved.
  13:.\Generated_Source\PSoC4/UART_1_UART.c **** * You may use this file only in accordance with the license, terms, conditions,
  14:.\Generated_Source\PSoC4/UART_1_UART.c **** * disclaimers, and limitations in the end user license agreement accompanying
  15:.\Generated_Source\PSoC4/UART_1_UART.c **** * the software package with which this file was provided.
  16:.\Generated_Source\PSoC4/UART_1_UART.c **** *******************************************************************************/
  17:.\Generated_Source\PSoC4/UART_1_UART.c **** 
  18:.\Generated_Source\PSoC4/UART_1_UART.c **** #include "UART_1_PVT.h"
  19:.\Generated_Source\PSoC4/UART_1_UART.c **** #include "UART_1_SPI_UART_PVT.h"
  20:.\Generated_Source\PSoC4/UART_1_UART.c **** 
  21:.\Generated_Source\PSoC4/UART_1_UART.c **** 
  22:.\Generated_Source\PSoC4/UART_1_UART.c **** #if(UART_1_SCB_MODE_UNCONFIG_CONST_CFG)
  23:.\Generated_Source\PSoC4/UART_1_UART.c **** 
  24:.\Generated_Source\PSoC4/UART_1_UART.c ****     /***************************************
  25:.\Generated_Source\PSoC4/UART_1_UART.c ****     *  Configuration Structure Initialization
  26:.\Generated_Source\PSoC4/UART_1_UART.c ****     ***************************************/
  27:.\Generated_Source\PSoC4/UART_1_UART.c **** 
  28:.\Generated_Source\PSoC4/UART_1_UART.c ****     const UART_1_UART_INIT_STRUCT UART_1_configUart =
  29:.\Generated_Source\PSoC4/UART_1_UART.c ****     {
  30:.\Generated_Source\PSoC4/UART_1_UART.c ****         UART_1_UART_SUB_MODE,
  31:.\Generated_Source\PSoC4/UART_1_UART.c ****         UART_1_UART_DIRECTION,
  32:.\Generated_Source\PSoC4/UART_1_UART.c ****         UART_1_UART_DATA_BITS_NUM,
ARM GAS  C:\Users\Marcelo\AppData\Local\Temp\ccivALbz.s 			page 2


  33:.\Generated_Source\PSoC4/UART_1_UART.c ****         UART_1_UART_PARITY_TYPE,
  34:.\Generated_Source\PSoC4/UART_1_UART.c ****         UART_1_UART_STOP_BITS_NUM,
  35:.\Generated_Source\PSoC4/UART_1_UART.c ****         UART_1_UART_OVS_FACTOR,
  36:.\Generated_Source\PSoC4/UART_1_UART.c ****         UART_1_UART_IRDA_LOW_POWER,
  37:.\Generated_Source\PSoC4/UART_1_UART.c ****         UART_1_UART_MEDIAN_FILTER_ENABLE,
  38:.\Generated_Source\PSoC4/UART_1_UART.c ****         UART_1_UART_RETRY_ON_NACK,
  39:.\Generated_Source\PSoC4/UART_1_UART.c ****         UART_1_UART_IRDA_POLARITY,
  40:.\Generated_Source\PSoC4/UART_1_UART.c ****         UART_1_UART_DROP_ON_PARITY_ERR,
  41:.\Generated_Source\PSoC4/UART_1_UART.c ****         UART_1_UART_DROP_ON_FRAME_ERR,
  42:.\Generated_Source\PSoC4/UART_1_UART.c ****         UART_1_UART_WAKE_ENABLE,
  43:.\Generated_Source\PSoC4/UART_1_UART.c ****         0u,
  44:.\Generated_Source\PSoC4/UART_1_UART.c ****         NULL,
  45:.\Generated_Source\PSoC4/UART_1_UART.c ****         0u,
  46:.\Generated_Source\PSoC4/UART_1_UART.c ****         NULL,
  47:.\Generated_Source\PSoC4/UART_1_UART.c ****         UART_1_UART_MP_MODE_ENABLE,
  48:.\Generated_Source\PSoC4/UART_1_UART.c ****         UART_1_UART_MP_ACCEPT_ADDRESS,
  49:.\Generated_Source\PSoC4/UART_1_UART.c ****         UART_1_UART_MP_RX_ADDRESS,
  50:.\Generated_Source\PSoC4/UART_1_UART.c ****         UART_1_UART_MP_RX_ADDRESS_MASK,
  51:.\Generated_Source\PSoC4/UART_1_UART.c ****         (uint32) UART_1_SCB_IRQ_INTERNAL,
  52:.\Generated_Source\PSoC4/UART_1_UART.c ****         UART_1_UART_INTR_RX_MASK,
  53:.\Generated_Source\PSoC4/UART_1_UART.c ****         UART_1_UART_RX_TRIGGER_LEVEL,
  54:.\Generated_Source\PSoC4/UART_1_UART.c ****         UART_1_UART_INTR_TX_MASK,
  55:.\Generated_Source\PSoC4/UART_1_UART.c ****         UART_1_UART_TX_TRIGGER_LEVEL,
  56:.\Generated_Source\PSoC4/UART_1_UART.c ****         (uint8) UART_1_UART_BYTE_MODE_ENABLE,
  57:.\Generated_Source\PSoC4/UART_1_UART.c ****         (uint8) UART_1_UART_CTS_ENABLE,
  58:.\Generated_Source\PSoC4/UART_1_UART.c ****         (uint8) UART_1_UART_CTS_POLARITY,
  59:.\Generated_Source\PSoC4/UART_1_UART.c ****         (uint8) UART_1_UART_RTS_POLARITY,
  60:.\Generated_Source\PSoC4/UART_1_UART.c ****         (uint8) UART_1_UART_RTS_FIFO_LEVEL
  61:.\Generated_Source\PSoC4/UART_1_UART.c ****     };
  62:.\Generated_Source\PSoC4/UART_1_UART.c **** 
  63:.\Generated_Source\PSoC4/UART_1_UART.c **** 
  64:.\Generated_Source\PSoC4/UART_1_UART.c ****     /*******************************************************************************
  65:.\Generated_Source\PSoC4/UART_1_UART.c ****     * Function Name: UART_1_UartInit
  66:.\Generated_Source\PSoC4/UART_1_UART.c ****     ********************************************************************************
  67:.\Generated_Source\PSoC4/UART_1_UART.c ****     *
  68:.\Generated_Source\PSoC4/UART_1_UART.c ****     * Summary:
  69:.\Generated_Source\PSoC4/UART_1_UART.c ****     *  Configures the SCB for the UART operation.
  70:.\Generated_Source\PSoC4/UART_1_UART.c ****     *
  71:.\Generated_Source\PSoC4/UART_1_UART.c ****     * Parameters:
  72:.\Generated_Source\PSoC4/UART_1_UART.c ****     *  config:  Pointer to a structure that contains the following ordered list of
  73:.\Generated_Source\PSoC4/UART_1_UART.c ****     *           fields. These fields match the selections available in the
  74:.\Generated_Source\PSoC4/UART_1_UART.c ****     *           customizer.
  75:.\Generated_Source\PSoC4/UART_1_UART.c ****     *
  76:.\Generated_Source\PSoC4/UART_1_UART.c ****     * Return:
  77:.\Generated_Source\PSoC4/UART_1_UART.c ****     *  None
  78:.\Generated_Source\PSoC4/UART_1_UART.c ****     *
  79:.\Generated_Source\PSoC4/UART_1_UART.c ****     *******************************************************************************/
  80:.\Generated_Source\PSoC4/UART_1_UART.c ****     void UART_1_UartInit(const UART_1_UART_INIT_STRUCT *config)
  81:.\Generated_Source\PSoC4/UART_1_UART.c ****     {
  26              		.loc 1 81 0
  27              		.cfi_startproc
  28              	.LVL0:
  29 0000 10B5     		push	{r4, lr}
  30              		.cfi_def_cfa_offset 8
  31              		.cfi_offset 4, -8
  32              		.cfi_offset 14, -4
  33 0002 041E     		sub	r4, r0, #0
ARM GAS  C:\Users\Marcelo\AppData\Local\Temp\ccivALbz.s 			page 3


  82:.\Generated_Source\PSoC4/UART_1_UART.c ****         uint32 pinsConfig;
  83:.\Generated_Source\PSoC4/UART_1_UART.c **** 
  84:.\Generated_Source\PSoC4/UART_1_UART.c ****         if (NULL == config)
  34              		.loc 1 84 0
  35 0004 03D1     		bne	.L2
  85:.\Generated_Source\PSoC4/UART_1_UART.c ****         {
  86:.\Generated_Source\PSoC4/UART_1_UART.c ****             CYASSERT(0u != 0u); /* Halt execution due to bad function parameter */
  36              		.loc 1 86 0 discriminator 1
  37 0006 0020     		mov	r0, #0
  38              	.LVL1:
  39 0008 FFF7FEFF 		bl	CyHalt
  40              	.LVL2:
  41 000c 0FE1     		b	.L1
  42              	.LVL3:
  43              	.L2:
  87:.\Generated_Source\PSoC4/UART_1_UART.c ****         }
  88:.\Generated_Source\PSoC4/UART_1_UART.c ****         else
  89:.\Generated_Source\PSoC4/UART_1_UART.c ****         {
  90:.\Generated_Source\PSoC4/UART_1_UART.c ****             /* Get direction to configure UART pins: TX, RX or TX+RX */
  91:.\Generated_Source\PSoC4/UART_1_UART.c ****             pinsConfig  = config->direction;
  92:.\Generated_Source\PSoC4/UART_1_UART.c **** 
  93:.\Generated_Source\PSoC4/UART_1_UART.c ****         #if !(UART_1_CY_SCBIP_V0 || UART_1_CY_SCBIP_V1)
  94:.\Generated_Source\PSoC4/UART_1_UART.c ****             /* Add RTS and CTS pins to configure */
  95:.\Generated_Source\PSoC4/UART_1_UART.c ****             pinsConfig |= (0u != config->rtsRxFifoLevel) ? (UART_1_UART_RTS_PIN_ENABLE) : (0u);
  96:.\Generated_Source\PSoC4/UART_1_UART.c ****             pinsConfig |= (0u != config->enableCts)      ? (UART_1_UART_CTS_PIN_ENABLE) : (0u);
  97:.\Generated_Source\PSoC4/UART_1_UART.c ****         #endif /* !(UART_1_CY_SCBIP_V0 || UART_1_CY_SCBIP_V1) */
  98:.\Generated_Source\PSoC4/UART_1_UART.c **** 
  99:.\Generated_Source\PSoC4/UART_1_UART.c ****             /* Configure pins */
 100:.\Generated_Source\PSoC4/UART_1_UART.c ****             UART_1_SetPins(UART_1_SCB_MODE_UART, config->mode, pinsConfig);
  44              		.loc 1 100 0
  45 000e 0420     		mov	r0, #4
  46              	.LVL4:
  47 0010 2168     		ldr	r1, [r4]
  48 0012 6268     		ldr	r2, [r4, #4]
  49 0014 FFF7FEFF 		bl	UART_1_SetPins
  50              	.LVL5:
 101:.\Generated_Source\PSoC4/UART_1_UART.c **** 
 102:.\Generated_Source\PSoC4/UART_1_UART.c ****             /* Store internal configuration */
 103:.\Generated_Source\PSoC4/UART_1_UART.c ****             UART_1_scbMode       = (uint8) UART_1_SCB_MODE_UART;
  51              		.loc 1 103 0
  52 0018 0422     		mov	r2, #4
  53 001a 854B     		ldr	r3, .L46
  54 001c 1A70     		strb	r2, [r3]
 104:.\Generated_Source\PSoC4/UART_1_UART.c ****             UART_1_scbEnableWake = (uint8) config->enableWake;
  55              		.loc 1 104 0
  56 001e 854B     		ldr	r3, .L46+4
  57 0020 206B     		ldr	r0, [r4, #48]
  58 0022 1870     		strb	r0, [r3]
 105:.\Generated_Source\PSoC4/UART_1_UART.c ****             UART_1_scbEnableIntr = (uint8) config->enableInterrupt;
  59              		.loc 1 105 0
  60 0024 844B     		ldr	r3, .L46+8
  61 0026 616D     		ldr	r1, [r4, #84]
  62 0028 1970     		strb	r1, [r3]
 106:.\Generated_Source\PSoC4/UART_1_UART.c **** 
 107:.\Generated_Source\PSoC4/UART_1_UART.c ****             /* Set RX direction internal variables */
 108:.\Generated_Source\PSoC4/UART_1_UART.c ****             UART_1_rxBuffer      =         config->rxBuffer;
  63              		.loc 1 108 0
ARM GAS  C:\Users\Marcelo\AppData\Local\Temp\ccivALbz.s 			page 4


  64 002a 844B     		ldr	r3, .L46+12
  65 002c A26B     		ldr	r2, [r4, #56]
  66 002e 1A60     		str	r2, [r3]
 109:.\Generated_Source\PSoC4/UART_1_UART.c ****             UART_1_rxDataBits    = (uint8) config->dataBits;
  67              		.loc 1 109 0
  68 0030 227A     		ldrb	r2, [r4, #8]
  69 0032 834B     		ldr	r3, .L46+16
  70 0034 1A70     		strb	r2, [r3]
 110:.\Generated_Source\PSoC4/UART_1_UART.c ****             UART_1_rxBufferSize  = (uint8) config->rxBufferSize;
  71              		.loc 1 110 0
  72 0036 FF23     		mov	r3, #255
  73 0038 606B     		ldr	r0, [r4, #52]
  74 003a 1840     		and	r0, r3
  75 003c 8149     		ldr	r1, .L46+20
  76 003e 0860     		str	r0, [r1]
 111:.\Generated_Source\PSoC4/UART_1_UART.c **** 
 112:.\Generated_Source\PSoC4/UART_1_UART.c ****             /* Set TX direction internal variables */
 113:.\Generated_Source\PSoC4/UART_1_UART.c ****             UART_1_txBuffer      =         config->txBuffer;
  77              		.loc 1 113 0
  78 0040 8149     		ldr	r1, .L46+24
  79 0042 206C     		ldr	r0, [r4, #64]
  80 0044 0860     		str	r0, [r1]
 114:.\Generated_Source\PSoC4/UART_1_UART.c ****             UART_1_txDataBits    = (uint8) config->dataBits;
  81              		.loc 1 114 0
  82 0046 8149     		ldr	r1, .L46+28
  83 0048 0A70     		strb	r2, [r1]
 115:.\Generated_Source\PSoC4/UART_1_UART.c ****             UART_1_txBufferSize  = (uint8) config->txBufferSize;
  84              		.loc 1 115 0
  85 004a E16B     		ldr	r1, [r4, #60]
  86 004c 0B40     		and	r3, r1
  87 004e 804A     		ldr	r2, .L46+32
  88 0050 1360     		str	r3, [r2]
 116:.\Generated_Source\PSoC4/UART_1_UART.c **** 
 117:.\Generated_Source\PSoC4/UART_1_UART.c ****             /* Configure UART interface */
 118:.\Generated_Source\PSoC4/UART_1_UART.c ****             if(UART_1_UART_MODE_IRDA == config->mode)
  89              		.loc 1 118 0
  90 0052 2268     		ldr	r2, [r4]
  91 0054 022A     		cmp	r2, #2
  92 0056 29D1     		bne	.L4
 119:.\Generated_Source\PSoC4/UART_1_UART.c ****             {
 120:.\Generated_Source\PSoC4/UART_1_UART.c ****                 /* OVS settings: IrDA */
 121:.\Generated_Source\PSoC4/UART_1_UART.c ****                 UART_1_CTRL_REG  = ((0u != config->enableIrdaLowPower) ?
  93              		.loc 1 121 0
  94 0058 A369     		ldr	r3, [r4, #24]
  95 005a 002B     		cmp	r3, #0
  96 005c 22D0     		beq	.L27
 122:.\Generated_Source\PSoC4/UART_1_UART.c ****                                                 (UART_1_UART_GET_CTRL_OVS_IRDA_LP(config->oversampl
  97              		.loc 1 122 0 discriminator 1
  98 005e 6369     		ldr	r3, [r4, #20]
 121:.\Generated_Source\PSoC4/UART_1_UART.c ****                 UART_1_CTRL_REG  = ((0u != config->enableIrdaLowPower) ?
  99              		.loc 1 121 0 discriminator 1
 100 0060 102B     		cmp	r3, #16
 101 0062 1DD0     		beq	.L28
 121:.\Generated_Source\PSoC4/UART_1_UART.c ****                 UART_1_CTRL_REG  = ((0u != config->enableIrdaLowPower) ?
 102              		.loc 1 121 0 is_stmt 0 discriminator 3
 103 0064 202B     		cmp	r3, #32
 104 0066 19D0     		beq	.L29
ARM GAS  C:\Users\Marcelo\AppData\Local\Temp\ccivALbz.s 			page 5


 121:.\Generated_Source\PSoC4/UART_1_UART.c ****                 UART_1_CTRL_REG  = ((0u != config->enableIrdaLowPower) ?
 105              		.loc 1 121 0 discriminator 5
 106 0068 302B     		cmp	r3, #48
 107 006a 15D0     		beq	.L30
 121:.\Generated_Source\PSoC4/UART_1_UART.c ****                 UART_1_CTRL_REG  = ((0u != config->enableIrdaLowPower) ?
 108              		.loc 1 121 0 discriminator 7
 109 006c 602B     		cmp	r3, #96
 110 006e 11D0     		beq	.L31
 121:.\Generated_Source\PSoC4/UART_1_UART.c ****                 UART_1_CTRL_REG  = ((0u != config->enableIrdaLowPower) ?
 111              		.loc 1 121 0 discriminator 9
 112 0070 C02B     		cmp	r3, #192
 113 0072 0DD0     		beq	.L32
 121:.\Generated_Source\PSoC4/UART_1_UART.c ****                 UART_1_CTRL_REG  = ((0u != config->enableIrdaLowPower) ?
 114              		.loc 1 121 0 discriminator 11
 115 0074 C022     		mov	r2, #192
 116 0076 9200     		lsl	r2, r2, #2
 117 0078 9342     		cmp	r3, r2
 118 007a 07D0     		beq	.L33
 121:.\Generated_Source\PSoC4/UART_1_UART.c ****                 UART_1_CTRL_REG  = ((0u != config->enableIrdaLowPower) ?
 119              		.loc 1 121 0 discriminator 13
 120 007c C022     		mov	r2, #192
 121 007e D200     		lsl	r2, r2, #3
 122 0080 9342     		cmp	r3, r2
 123 0082 01D1     		bne	.L34
 121:.\Generated_Source\PSoC4/UART_1_UART.c ****                 UART_1_CTRL_REG  = ((0u != config->enableIrdaLowPower) ?
 124              		.loc 1 121 0
 125 0084 0622     		mov	r2, #6
 126 0086 0EE0     		b	.L5
 127              	.L34:
 128 0088 0022     		mov	r2, #0
 129 008a 0CE0     		b	.L5
 130              	.L33:
 131 008c 0522     		mov	r2, #5
 132 008e 0AE0     		b	.L5
 133              	.L32:
 134 0090 0422     		mov	r2, #4
 135 0092 08E0     		b	.L5
 136              	.L31:
 137 0094 0322     		mov	r2, #3
 138 0096 06E0     		b	.L5
 139              	.L30:
 140 0098 0222     		mov	r2, #2
 141 009a 04E0     		b	.L5
 142              	.L29:
 143 009c 0122     		mov	r2, #1
 144 009e 02E0     		b	.L5
 145              	.L28:
 146 00a0 0022     		mov	r2, #0
 147 00a2 00E0     		b	.L5
 148              	.L27:
 149 00a4 1022     		mov	r2, #16
 150              	.L5:
 121:.\Generated_Source\PSoC4/UART_1_UART.c ****                 UART_1_CTRL_REG  = ((0u != config->enableIrdaLowPower) ?
 151              		.loc 1 121 0 discriminator 8
 152 00a6 6B4B     		ldr	r3, .L46+36
 153 00a8 1A60     		str	r2, [r3]
 154 00aa 05E0     		b	.L13
ARM GAS  C:\Users\Marcelo\AppData\Local\Temp\ccivALbz.s 			page 6


 155              	.L4:
 123:.\Generated_Source\PSoC4/UART_1_UART.c ****                                                 (UART_1_CTRL_OVS_IRDA_OVS16));
 124:.\Generated_Source\PSoC4/UART_1_UART.c ****             }
 125:.\Generated_Source\PSoC4/UART_1_UART.c ****             else
 126:.\Generated_Source\PSoC4/UART_1_UART.c ****             {
 127:.\Generated_Source\PSoC4/UART_1_UART.c ****                 /* OVS settings: UART and SmartCard */
 128:.\Generated_Source\PSoC4/UART_1_UART.c ****                 UART_1_CTRL_REG  = UART_1_GET_CTRL_OVS(config->oversample);
 156              		.loc 1 128 0 is_stmt 1
 157 00ac 6369     		ldr	r3, [r4, #20]
 158 00ae 013B     		sub	r3, r3, #1
 159 00b0 0F22     		mov	r2, #15
 160 00b2 1A40     		and	r2, r3
 161 00b4 674B     		ldr	r3, .L46+36
 162 00b6 1A60     		str	r2, [r3]
 163              	.L13:
 129:.\Generated_Source\PSoC4/UART_1_UART.c ****             }
 130:.\Generated_Source\PSoC4/UART_1_UART.c **** 
 131:.\Generated_Source\PSoC4/UART_1_UART.c ****             UART_1_CTRL_REG     |= UART_1_GET_CTRL_BYTE_MODE  (config->enableByteMode)      |
 164              		.loc 1 131 0
 165 00b8 664B     		ldr	r3, .L46+36
 166 00ba 1B68     		ldr	r3, [r3]
 132:.\Generated_Source\PSoC4/UART_1_UART.c ****                                              UART_1_GET_CTRL_ADDR_ACCEPT(config->multiprocAcceptAdd
 167              		.loc 1 132 0
 168 00bc A06C     		ldr	r0, [r4, #72]
 169 00be 0028     		cmp	r0, #0
 170 00c0 01D0     		beq	.L35
 171 00c2 654A     		ldr	r2, .L46+40
 172 00c4 01E0     		b	.L14
 173              	.L35:
 174 00c6 8022     		mov	r2, #128
 175 00c8 9204     		lsl	r2, r2, #18
 176              	.L14:
 131:.\Generated_Source\PSoC4/UART_1_UART.c ****             UART_1_CTRL_REG     |= UART_1_GET_CTRL_BYTE_MODE  (config->enableByteMode)      |
 177              		.loc 1 131 0
 178 00ca 1A43     		orr	r2, r3
 179 00cc 614B     		ldr	r3, .L46+36
 180 00ce 1A60     		str	r2, [r3]
 133:.\Generated_Source\PSoC4/UART_1_UART.c ****                                              UART_1_CTRL_UART;
 134:.\Generated_Source\PSoC4/UART_1_UART.c **** 
 135:.\Generated_Source\PSoC4/UART_1_UART.c ****             /* Configure sub-mode: UART, SmartCard or IrDA */
 136:.\Generated_Source\PSoC4/UART_1_UART.c ****             UART_1_UART_CTRL_REG = UART_1_GET_UART_CTRL_MODE(config->mode);
 181              		.loc 1 136 0
 182 00d0 2168     		ldr	r1, [r4]
 183 00d2 0B06     		lsl	r3, r1, #24
 184 00d4 C022     		mov	r2, #192
 185 00d6 9204     		lsl	r2, r2, #18
 186 00d8 1A40     		and	r2, r3
 187 00da 604B     		ldr	r3, .L46+44
 188 00dc 1A60     		str	r2, [r3]
 137:.\Generated_Source\PSoC4/UART_1_UART.c **** 
 138:.\Generated_Source\PSoC4/UART_1_UART.c ****             /* Configure RX direction */
 139:.\Generated_Source\PSoC4/UART_1_UART.c ****             UART_1_UART_RX_CTRL_REG = UART_1_GET_UART_RX_CTRL_MODE(config->stopBits)              |
 189              		.loc 1 139 0
 190 00de 2369     		ldr	r3, [r4, #16]
 191 00e0 013B     		sub	r3, r3, #1
 192 00e2 0722     		mov	r2, #7
 193 00e4 1A40     		and	r2, r3
ARM GAS  C:\Users\Marcelo\AppData\Local\Temp\ccivALbz.s 			page 7


 140:.\Generated_Source\PSoC4/UART_1_UART.c ****                                         UART_1_GET_UART_RX_CTRL_POLARITY(config->enableInvertedRx) 
 194              		.loc 1 140 0
 195 00e6 636A     		ldr	r3, [r4, #36]
 196 00e8 002B     		cmp	r3, #0
 197 00ea 01D0     		beq	.L36
 198 00ec 4023     		mov	r3, #64
 199 00ee 00E0     		b	.L15
 200              	.L36:
 201 00f0 0023     		mov	r3, #0
 202              	.L15:
 139:.\Generated_Source\PSoC4/UART_1_UART.c ****             UART_1_UART_RX_CTRL_REG = UART_1_GET_UART_RX_CTRL_MODE(config->stopBits)              |
 203              		.loc 1 139 0
 204 00f2 1A43     		orr	r2, r3
 141:.\Generated_Source\PSoC4/UART_1_UART.c ****                                         UART_1_GET_UART_RX_CTRL_MP_MODE(config->enableMultiproc)   
 205              		.loc 1 141 0
 206 00f4 606C     		ldr	r0, [r4, #68]
 207 00f6 0028     		cmp	r0, #0
 208 00f8 02D0     		beq	.L37
 209 00fa 8023     		mov	r3, #128
 210 00fc DB00     		lsl	r3, r3, #3
 211 00fe 00E0     		b	.L16
 212              	.L37:
 213 0100 0023     		mov	r3, #0
 214              	.L16:
 140:.\Generated_Source\PSoC4/UART_1_UART.c ****                                         UART_1_GET_UART_RX_CTRL_POLARITY(config->enableInvertedRx) 
 215              		.loc 1 140 0
 216 0102 1A43     		orr	r2, r3
 142:.\Generated_Source\PSoC4/UART_1_UART.c ****                                         UART_1_GET_UART_RX_CTRL_DROP_ON_PARITY_ERR(config->dropOnPa
 217              		.loc 1 142 0
 218 0104 A16A     		ldr	r1, [r4, #40]
 219 0106 0029     		cmp	r1, #0
 220 0108 02D0     		beq	.L38
 221 010a 8023     		mov	r3, #128
 222 010c 5B00     		lsl	r3, r3, #1
 223 010e 00E0     		b	.L17
 224              	.L38:
 225 0110 0023     		mov	r3, #0
 226              	.L17:
 141:.\Generated_Source\PSoC4/UART_1_UART.c ****                                         UART_1_GET_UART_RX_CTRL_MP_MODE(config->enableMultiproc)   
 227              		.loc 1 141 0
 228 0112 1A43     		orr	r2, r3
 143:.\Generated_Source\PSoC4/UART_1_UART.c ****                                         UART_1_GET_UART_RX_CTRL_DROP_ON_FRAME_ERR(config->dropOnFra
 229              		.loc 1 143 0
 230 0114 E36A     		ldr	r3, [r4, #44]
 231 0116 002B     		cmp	r3, #0
 232 0118 02D0     		beq	.L39
 233 011a 8023     		mov	r3, #128
 234 011c 9B00     		lsl	r3, r3, #2
 235 011e 00E0     		b	.L18
 236              	.L39:
 237 0120 0023     		mov	r3, #0
 238              	.L18:
 142:.\Generated_Source\PSoC4/UART_1_UART.c ****                                         UART_1_GET_UART_RX_CTRL_DROP_ON_PARITY_ERR(config->dropOnPa
 239              		.loc 1 142 0
 240 0122 1A43     		orr	r2, r3
 139:.\Generated_Source\PSoC4/UART_1_UART.c ****             UART_1_UART_RX_CTRL_REG = UART_1_GET_UART_RX_CTRL_MODE(config->stopBits)              |
 241              		.loc 1 139 0
ARM GAS  C:\Users\Marcelo\AppData\Local\Temp\ccivALbz.s 			page 8


 242 0124 4E4B     		ldr	r3, .L46+48
 243 0126 1A60     		str	r2, [r3]
 144:.\Generated_Source\PSoC4/UART_1_UART.c **** 
 145:.\Generated_Source\PSoC4/UART_1_UART.c ****             if(UART_1_UART_PARITY_NONE != config->parity)
 244              		.loc 1 145 0
 245 0128 E368     		ldr	r3, [r4, #12]
 246 012a 022B     		cmp	r3, #2
 247 012c 09D0     		beq	.L19
 146:.\Generated_Source\PSoC4/UART_1_UART.c ****             {
 147:.\Generated_Source\PSoC4/UART_1_UART.c ****                UART_1_UART_RX_CTRL_REG |= UART_1_GET_UART_RX_CTRL_PARITY(config->parity) |
 248              		.loc 1 147 0
 249 012e 4C4A     		ldr	r2, .L46+48
 250 0130 1268     		ldr	r2, [r2]
 251 0132 002B     		cmp	r3, #0
 252 0134 01D0     		beq	.L40
 253 0136 3023     		mov	r3, #48
 254 0138 00E0     		b	.L20
 255              	.L40:
 256 013a 2023     		mov	r3, #32
 257              	.L20:
 258              		.loc 1 147 0 is_stmt 0 discriminator 3
 259 013c 1A43     		orr	r2, r3
 260 013e 484B     		ldr	r3, .L46+48
 261 0140 1A60     		str	r2, [r3]
 262              	.L19:
 148:.\Generated_Source\PSoC4/UART_1_UART.c ****                                                     UART_1_UART_RX_CTRL_PARITY_ENABLED;
 149:.\Generated_Source\PSoC4/UART_1_UART.c ****             }
 150:.\Generated_Source\PSoC4/UART_1_UART.c **** 
 151:.\Generated_Source\PSoC4/UART_1_UART.c ****             UART_1_RX_CTRL_REG      = UART_1_GET_RX_CTRL_DATA_WIDTH(config->dataBits)       |
 263              		.loc 1 151 0 is_stmt 1
 264 0142 A368     		ldr	r3, [r4, #8]
 265 0144 013B     		sub	r3, r3, #1
 266 0146 0F22     		mov	r2, #15
 267 0148 1A40     		and	r2, r3
 152:.\Generated_Source\PSoC4/UART_1_UART.c ****                                                 UART_1_GET_RX_CTRL_MEDIAN(config->enableMedianFilte
 268              		.loc 1 152 0
 269 014a E069     		ldr	r0, [r4, #28]
 270 014c 0028     		cmp	r0, #0
 271 014e 02D0     		beq	.L41
 272 0150 8023     		mov	r3, #128
 273 0152 9B00     		lsl	r3, r3, #2
 274 0154 00E0     		b	.L21
 275              	.L41:
 276 0156 0023     		mov	r3, #0
 277              	.L21:
 151:.\Generated_Source\PSoC4/UART_1_UART.c ****             UART_1_RX_CTRL_REG      = UART_1_GET_RX_CTRL_DATA_WIDTH(config->dataBits)       |
 278              		.loc 1 151 0
 279 0158 1A43     		orr	r2, r3
 153:.\Generated_Source\PSoC4/UART_1_UART.c ****                                                 UART_1_GET_UART_RX_CTRL_ENABLED(config->direction);
 280              		.loc 1 153 0
 281 015a 6168     		ldr	r1, [r4, #4]
 282 015c C907     		lsl	r1, r1, #31
 283 015e 02D5     		bpl	.L42
 284 0160 8023     		mov	r3, #128
 285 0162 1B06     		lsl	r3, r3, #24
 286 0164 00E0     		b	.L22
 287              	.L42:
ARM GAS  C:\Users\Marcelo\AppData\Local\Temp\ccivALbz.s 			page 9


 288 0166 0023     		mov	r3, #0
 289              	.L22:
 152:.\Generated_Source\PSoC4/UART_1_UART.c ****                                                 UART_1_GET_RX_CTRL_MEDIAN(config->enableMedianFilte
 290              		.loc 1 152 0
 291 0168 1A43     		orr	r2, r3
 151:.\Generated_Source\PSoC4/UART_1_UART.c ****             UART_1_RX_CTRL_REG      = UART_1_GET_RX_CTRL_DATA_WIDTH(config->dataBits)       |
 292              		.loc 1 151 0
 293 016a 3E4B     		ldr	r3, .L46+52
 294 016c 1A60     		str	r2, [r3]
 154:.\Generated_Source\PSoC4/UART_1_UART.c **** 
 155:.\Generated_Source\PSoC4/UART_1_UART.c ****             UART_1_RX_FIFO_CTRL_REG = UART_1_GET_RX_FIFO_CTRL_TRIGGER_LEVEL(config->rxTriggerLevel)
 295              		.loc 1 155 0
 296 016e 0723     		mov	r3, #7
 297 0170 E16D     		ldr	r1, [r4, #92]
 298 0172 1940     		and	r1, r3
 299 0174 3C4A     		ldr	r2, .L46+56
 300 0176 1160     		str	r1, [r2]
 156:.\Generated_Source\PSoC4/UART_1_UART.c **** 
 157:.\Generated_Source\PSoC4/UART_1_UART.c ****             /* Configure MP address */
 158:.\Generated_Source\PSoC4/UART_1_UART.c ****             UART_1_RX_MATCH_REG     = UART_1_GET_RX_MATCH_ADDR(config->multiprocAddr) |
 301              		.loc 1 158 0
 302 0178 FF22     		mov	r2, #255
 303 017a E06C     		ldr	r0, [r4, #76]
 304 017c 0240     		and	r2, r0
 159:.\Generated_Source\PSoC4/UART_1_UART.c ****                                                 UART_1_GET_RX_MATCH_MASK(config->multiprocAddrMask)
 305              		.loc 1 159 0
 306 017e 216D     		ldr	r1, [r4, #80]
 307 0180 0804     		lsl	r0, r1, #16
 308 0182 FF21     		mov	r1, #255
 309 0184 0904     		lsl	r1, r1, #16
 310 0186 0140     		and	r1, r0
 158:.\Generated_Source\PSoC4/UART_1_UART.c ****             UART_1_RX_MATCH_REG     = UART_1_GET_RX_MATCH_ADDR(config->multiprocAddr) |
 311              		.loc 1 158 0
 312 0188 1143     		orr	r1, r2
 313 018a 384A     		ldr	r2, .L46+60
 314 018c 1160     		str	r1, [r2]
 160:.\Generated_Source\PSoC4/UART_1_UART.c **** 
 161:.\Generated_Source\PSoC4/UART_1_UART.c ****             /* Configure RX direction */
 162:.\Generated_Source\PSoC4/UART_1_UART.c ****             UART_1_UART_TX_CTRL_REG = UART_1_GET_UART_TX_CTRL_MODE(config->stopBits) |
 315              		.loc 1 162 0
 316 018e 2269     		ldr	r2, [r4, #16]
 317 0190 013A     		sub	r2, r2, #1
 318 0192 1340     		and	r3, r2
 163:.\Generated_Source\PSoC4/UART_1_UART.c ****                                                 UART_1_GET_UART_TX_CTRL_RETRY_NACK(config->enableRe
 319              		.loc 1 163 0
 320 0194 226A     		ldr	r2, [r4, #32]
 321 0196 002A     		cmp	r2, #0
 322 0198 02D0     		beq	.L43
 323 019a 8022     		mov	r2, #128
 324 019c 5200     		lsl	r2, r2, #1
 325 019e 00E0     		b	.L23
 326              	.L43:
 327 01a0 0022     		mov	r2, #0
 328              	.L23:
 162:.\Generated_Source\PSoC4/UART_1_UART.c ****             UART_1_UART_TX_CTRL_REG = UART_1_GET_UART_TX_CTRL_MODE(config->stopBits) |
 329              		.loc 1 162 0
 330 01a2 1343     		orr	r3, r2
ARM GAS  C:\Users\Marcelo\AppData\Local\Temp\ccivALbz.s 			page 10


 331 01a4 324A     		ldr	r2, .L46+64
 332 01a6 1360     		str	r3, [r2]
 164:.\Generated_Source\PSoC4/UART_1_UART.c **** 
 165:.\Generated_Source\PSoC4/UART_1_UART.c ****             if(UART_1_UART_PARITY_NONE != config->parity)
 333              		.loc 1 165 0
 334 01a8 E368     		ldr	r3, [r4, #12]
 335 01aa 022B     		cmp	r3, #2
 336 01ac 08D0     		beq	.L24
 166:.\Generated_Source\PSoC4/UART_1_UART.c ****             {
 167:.\Generated_Source\PSoC4/UART_1_UART.c ****                UART_1_UART_TX_CTRL_REG |= UART_1_GET_UART_TX_CTRL_PARITY(config->parity) |
 337              		.loc 1 167 0
 338 01ae 1268     		ldr	r2, [r2]
 339 01b0 002B     		cmp	r3, #0
 340 01b2 01D0     		beq	.L44
 341 01b4 3023     		mov	r3, #48
 342 01b6 00E0     		b	.L25
 343              	.L44:
 344 01b8 2023     		mov	r3, #32
 345              	.L25:
 346              		.loc 1 167 0 is_stmt 0 discriminator 3
 347 01ba 1A43     		orr	r2, r3
 348 01bc 2C4B     		ldr	r3, .L46+64
 349 01be 1A60     		str	r2, [r3]
 350              	.L24:
 168:.\Generated_Source\PSoC4/UART_1_UART.c ****                                                     UART_1_UART_TX_CTRL_PARITY_ENABLED;
 169:.\Generated_Source\PSoC4/UART_1_UART.c ****             }
 170:.\Generated_Source\PSoC4/UART_1_UART.c **** 
 171:.\Generated_Source\PSoC4/UART_1_UART.c ****             UART_1_TX_CTRL_REG      = UART_1_GET_TX_CTRL_DATA_WIDTH(config->dataBits)    |
 351              		.loc 1 171 0 is_stmt 1
 352 01c0 A368     		ldr	r3, [r4, #8]
 353 01c2 013B     		sub	r3, r3, #1
 354 01c4 0F22     		mov	r2, #15
 355 01c6 1A40     		and	r2, r3
 172:.\Generated_Source\PSoC4/UART_1_UART.c ****                                                 UART_1_GET_UART_TX_CTRL_ENABLED(config->direction);
 356              		.loc 1 172 0
 357 01c8 6368     		ldr	r3, [r4, #4]
 358 01ca 9B07     		lsl	r3, r3, #30
 359 01cc 02D5     		bpl	.L45
 360 01ce 8023     		mov	r3, #128
 361 01d0 1B06     		lsl	r3, r3, #24
 362 01d2 00E0     		b	.L26
 363              	.L45:
 364 01d4 0023     		mov	r3, #0
 365              	.L26:
 171:.\Generated_Source\PSoC4/UART_1_UART.c ****             UART_1_TX_CTRL_REG      = UART_1_GET_TX_CTRL_DATA_WIDTH(config->dataBits)    |
 366              		.loc 1 171 0
 367 01d6 1A43     		orr	r2, r3
 368 01d8 264B     		ldr	r3, .L46+68
 369 01da 1A60     		str	r2, [r3]
 173:.\Generated_Source\PSoC4/UART_1_UART.c **** 
 174:.\Generated_Source\PSoC4/UART_1_UART.c ****             UART_1_TX_FIFO_CTRL_REG = UART_1_GET_TX_FIFO_CTRL_TRIGGER_LEVEL(config->txTriggerLevel)
 370              		.loc 1 174 0
 371 01dc 0722     		mov	r2, #7
 372 01de 606E     		ldr	r0, [r4, #100]
 373 01e0 0240     		and	r2, r0
 374 01e2 254B     		ldr	r3, .L46+72
 375 01e4 1A60     		str	r2, [r3]
ARM GAS  C:\Users\Marcelo\AppData\Local\Temp\ccivALbz.s 			page 11


 175:.\Generated_Source\PSoC4/UART_1_UART.c **** 
 176:.\Generated_Source\PSoC4/UART_1_UART.c ****         #if !(UART_1_CY_SCBIP_V0 || UART_1_CY_SCBIP_V1)
 177:.\Generated_Source\PSoC4/UART_1_UART.c ****             UART_1_UART_FLOW_CTRL_REG = UART_1_GET_UART_FLOW_CTRL_CTS_ENABLE(config->enableCts) | \
 178:.\Generated_Source\PSoC4/UART_1_UART.c ****                                             UART_1_GET_UART_FLOW_CTRL_CTS_POLARITY (config->ctsPola
 179:.\Generated_Source\PSoC4/UART_1_UART.c ****                                             UART_1_GET_UART_FLOW_CTRL_RTS_POLARITY (config->rtsPola
 180:.\Generated_Source\PSoC4/UART_1_UART.c ****                                             UART_1_GET_UART_FLOW_CTRL_TRIGGER_LEVEL(config->rtsRxFi
 181:.\Generated_Source\PSoC4/UART_1_UART.c ****         #endif /* !(UART_1_CY_SCBIP_V0 || UART_1_CY_SCBIP_V1) */
 182:.\Generated_Source\PSoC4/UART_1_UART.c **** 
 183:.\Generated_Source\PSoC4/UART_1_UART.c ****             /* Configure interrupt with UART handler but do not enable it */
 184:.\Generated_Source\PSoC4/UART_1_UART.c ****             CyIntDisable    (UART_1_ISR_NUMBER);
 376              		.loc 1 184 0
 377 01e6 0B20     		mov	r0, #11
 378 01e8 FFF7FEFF 		bl	CyIntDisable
 379              	.LVL6:
 185:.\Generated_Source\PSoC4/UART_1_UART.c ****             CyIntSetPriority(UART_1_ISR_NUMBER, UART_1_ISR_PRIORITY);
 380              		.loc 1 185 0
 381 01ec 0B20     		mov	r0, #11
 382 01ee 0321     		mov	r1, #3
 383 01f0 FFF7FEFF 		bl	CyIntSetPriority
 384              	.LVL7:
 186:.\Generated_Source\PSoC4/UART_1_UART.c ****             (void) CyIntSetVector(UART_1_ISR_NUMBER, &UART_1_SPI_UART_ISR);
 385              		.loc 1 186 0
 386 01f4 0B20     		mov	r0, #11
 387 01f6 2149     		ldr	r1, .L46+76
 388 01f8 FFF7FEFF 		bl	CyIntSetVector
 389              	.LVL8:
 187:.\Generated_Source\PSoC4/UART_1_UART.c **** 
 188:.\Generated_Source\PSoC4/UART_1_UART.c ****             /* Configure WAKE interrupt */
 189:.\Generated_Source\PSoC4/UART_1_UART.c ****         #if(UART_1_UART_RX_WAKEUP_IRQ)
 190:.\Generated_Source\PSoC4/UART_1_UART.c ****             CyIntDisable    (UART_1_RX_WAKE_ISR_NUMBER);
 191:.\Generated_Source\PSoC4/UART_1_UART.c ****             CyIntSetPriority(UART_1_RX_WAKE_ISR_NUMBER, UART_1_RX_WAKE_ISR_PRIORITY);
 192:.\Generated_Source\PSoC4/UART_1_UART.c ****             (void) CyIntSetVector(UART_1_RX_WAKE_ISR_NUMBER, &UART_1_UART_WAKEUP_ISR);
 193:.\Generated_Source\PSoC4/UART_1_UART.c ****         #endif /* (UART_1_UART_RX_WAKEUP_IRQ) */
 194:.\Generated_Source\PSoC4/UART_1_UART.c **** 
 195:.\Generated_Source\PSoC4/UART_1_UART.c ****             /* Configure interrupt sources */
 196:.\Generated_Source\PSoC4/UART_1_UART.c ****             UART_1_INTR_I2C_EC_MASK_REG = UART_1_NO_INTR_SOURCES;
 390              		.loc 1 196 0
 391 01fc 0023     		mov	r3, #0
 392 01fe 204A     		ldr	r2, .L46+80
 393 0200 1360     		str	r3, [r2]
 197:.\Generated_Source\PSoC4/UART_1_UART.c ****             UART_1_INTR_SPI_EC_MASK_REG = UART_1_NO_INTR_SOURCES;
 394              		.loc 1 197 0
 395 0202 204A     		ldr	r2, .L46+84
 396 0204 1360     		str	r3, [r2]
 198:.\Generated_Source\PSoC4/UART_1_UART.c ****             UART_1_INTR_SLAVE_MASK_REG  = UART_1_NO_INTR_SOURCES;
 397              		.loc 1 198 0
 398 0206 204A     		ldr	r2, .L46+88
 399 0208 1360     		str	r3, [r2]
 199:.\Generated_Source\PSoC4/UART_1_UART.c ****             UART_1_INTR_MASTER_MASK_REG = UART_1_NO_INTR_SOURCES;
 400              		.loc 1 199 0
 401 020a 204A     		ldr	r2, .L46+92
 402 020c 1360     		str	r3, [r2]
 200:.\Generated_Source\PSoC4/UART_1_UART.c ****             UART_1_INTR_RX_MASK_REG     = config->rxInterruptMask;
 403              		.loc 1 200 0
 404 020e 204A     		ldr	r2, .L46+96
 405 0210 A16D     		ldr	r1, [r4, #88]
 406 0212 1160     		str	r1, [r2]
ARM GAS  C:\Users\Marcelo\AppData\Local\Temp\ccivALbz.s 			page 12


 201:.\Generated_Source\PSoC4/UART_1_UART.c ****             UART_1_INTR_TX_MASK_REG     = config->txInterruptMask;
 407              		.loc 1 201 0
 408 0214 216E     		ldr	r1, [r4, #96]
 409 0216 1F4A     		ldr	r2, .L46+100
 410 0218 1160     		str	r1, [r2]
 202:.\Generated_Source\PSoC4/UART_1_UART.c **** 
 203:.\Generated_Source\PSoC4/UART_1_UART.c ****             /* Clear RX buffer indexes */
 204:.\Generated_Source\PSoC4/UART_1_UART.c ****             UART_1_rxBufferHead     = 0u;
 411              		.loc 1 204 0
 412 021a 1F4A     		ldr	r2, .L46+104
 413 021c 1360     		str	r3, [r2]
 205:.\Generated_Source\PSoC4/UART_1_UART.c ****             UART_1_rxBufferTail     = 0u;
 414              		.loc 1 205 0
 415 021e 1F4A     		ldr	r2, .L46+108
 416 0220 1360     		str	r3, [r2]
 206:.\Generated_Source\PSoC4/UART_1_UART.c ****             UART_1_rxBufferOverflow = 0u;
 417              		.loc 1 206 0
 418 0222 1F4A     		ldr	r2, .L46+112
 419 0224 1370     		strb	r3, [r2]
 207:.\Generated_Source\PSoC4/UART_1_UART.c **** 
 208:.\Generated_Source\PSoC4/UART_1_UART.c ****             /* Clear TX buffer indexes */
 209:.\Generated_Source\PSoC4/UART_1_UART.c ****             UART_1_txBufferHead = 0u;
 420              		.loc 1 209 0
 421 0226 1F4A     		ldr	r2, .L46+116
 422 0228 1360     		str	r3, [r2]
 210:.\Generated_Source\PSoC4/UART_1_UART.c ****             UART_1_txBufferTail = 0u;
 423              		.loc 1 210 0
 424 022a 1F4A     		ldr	r2, .L46+120
 425 022c 1360     		str	r3, [r2]
 426              	.L1:
 211:.\Generated_Source\PSoC4/UART_1_UART.c ****         }
 212:.\Generated_Source\PSoC4/UART_1_UART.c ****     }
 427              		.loc 1 212 0
 428              		@ sp needed
 429              	.LVL9:
 430 022e 10BD     		pop	{r4, pc}
 431              	.L47:
 432              		.align	2
 433              	.L46:
 434 0230 00000000 		.word	UART_1_scbMode
 435 0234 00000000 		.word	UART_1_scbEnableWake
 436 0238 00000000 		.word	UART_1_scbEnableIntr
 437 023c 00000000 		.word	UART_1_rxBuffer
 438 0240 00000000 		.word	UART_1_rxDataBits
 439 0244 00000000 		.word	UART_1_rxBufferSize
 440 0248 00000000 		.word	UART_1_txBuffer
 441 024c 00000000 		.word	UART_1_txDataBits
 442 0250 00000000 		.word	UART_1_txBufferSize
 443 0254 00000740 		.word	1074200576
 444 0258 00000102 		.word	33619968
 445 025c 40000740 		.word	1074200640
 446 0260 48000740 		.word	1074200648
 447 0264 00030740 		.word	1074201344
 448 0268 04030740 		.word	1074201348
 449 026c 10030740 		.word	1074201360
 450 0270 44000740 		.word	1074200644
 451 0274 00020740 		.word	1074201088
ARM GAS  C:\Users\Marcelo\AppData\Local\Temp\ccivALbz.s 			page 13


 452 0278 04020740 		.word	1074201092
 453 027c 00000000 		.word	UART_1_SPI_UART_ISR
 454 0280 880E0740 		.word	1074204296
 455 0284 C80E0740 		.word	1074204360
 456 0288 480F0740 		.word	1074204488
 457 028c 080F0740 		.word	1074204424
 458 0290 C80F0740 		.word	1074204616
 459 0294 880F0740 		.word	1074204552
 460 0298 00000000 		.word	UART_1_rxBufferHead
 461 029c 00000000 		.word	UART_1_rxBufferTail
 462 02a0 00000000 		.word	UART_1_rxBufferOverflow
 463 02a4 00000000 		.word	UART_1_txBufferHead
 464 02a8 00000000 		.word	UART_1_txBufferTail
 465              		.cfi_endproc
 466              	.LFE0:
 467              		.size	UART_1_UartInit, .-UART_1_UartInit
 468              		.section	.text.UART_1_UartPostEnable,"ax",%progbits
 469              		.align	2
 470              		.global	UART_1_UartPostEnable
 471              		.code	16
 472              		.thumb_func
 473              		.type	UART_1_UartPostEnable, %function
 474              	UART_1_UartPostEnable:
 475              	.LFB1:
 213:.\Generated_Source\PSoC4/UART_1_UART.c **** 
 214:.\Generated_Source\PSoC4/UART_1_UART.c **** #else
 215:.\Generated_Source\PSoC4/UART_1_UART.c **** 
 216:.\Generated_Source\PSoC4/UART_1_UART.c ****     /*******************************************************************************
 217:.\Generated_Source\PSoC4/UART_1_UART.c ****     * Function Name: UART_1_UartInit
 218:.\Generated_Source\PSoC4/UART_1_UART.c ****     ********************************************************************************
 219:.\Generated_Source\PSoC4/UART_1_UART.c ****     *
 220:.\Generated_Source\PSoC4/UART_1_UART.c ****     * Summary:
 221:.\Generated_Source\PSoC4/UART_1_UART.c ****     *  Configures the SCB for the UART operation.
 222:.\Generated_Source\PSoC4/UART_1_UART.c ****     *
 223:.\Generated_Source\PSoC4/UART_1_UART.c ****     * Parameters:
 224:.\Generated_Source\PSoC4/UART_1_UART.c ****     *  None
 225:.\Generated_Source\PSoC4/UART_1_UART.c ****     *
 226:.\Generated_Source\PSoC4/UART_1_UART.c ****     * Return:
 227:.\Generated_Source\PSoC4/UART_1_UART.c ****     *  None
 228:.\Generated_Source\PSoC4/UART_1_UART.c ****     *
 229:.\Generated_Source\PSoC4/UART_1_UART.c ****     *******************************************************************************/
 230:.\Generated_Source\PSoC4/UART_1_UART.c ****     void UART_1_UartInit(void)
 231:.\Generated_Source\PSoC4/UART_1_UART.c ****     {
 232:.\Generated_Source\PSoC4/UART_1_UART.c ****         /* Configure UART interface */
 233:.\Generated_Source\PSoC4/UART_1_UART.c ****         UART_1_CTRL_REG = UART_1_UART_DEFAULT_CTRL;
 234:.\Generated_Source\PSoC4/UART_1_UART.c **** 
 235:.\Generated_Source\PSoC4/UART_1_UART.c ****         /* Configure sub-mode: UART, SmartCard or IrDA */
 236:.\Generated_Source\PSoC4/UART_1_UART.c ****         UART_1_UART_CTRL_REG = UART_1_UART_DEFAULT_UART_CTRL;
 237:.\Generated_Source\PSoC4/UART_1_UART.c **** 
 238:.\Generated_Source\PSoC4/UART_1_UART.c ****         /* Configure RX direction */
 239:.\Generated_Source\PSoC4/UART_1_UART.c ****         UART_1_UART_RX_CTRL_REG = UART_1_UART_DEFAULT_UART_RX_CTRL;
 240:.\Generated_Source\PSoC4/UART_1_UART.c ****         UART_1_RX_CTRL_REG      = UART_1_UART_DEFAULT_RX_CTRL;
 241:.\Generated_Source\PSoC4/UART_1_UART.c ****         UART_1_RX_FIFO_CTRL_REG = UART_1_UART_DEFAULT_RX_FIFO_CTRL;
 242:.\Generated_Source\PSoC4/UART_1_UART.c ****         UART_1_RX_MATCH_REG     = UART_1_UART_DEFAULT_RX_MATCH_REG;
 243:.\Generated_Source\PSoC4/UART_1_UART.c **** 
 244:.\Generated_Source\PSoC4/UART_1_UART.c ****         /* Configure TX direction */
 245:.\Generated_Source\PSoC4/UART_1_UART.c ****         UART_1_UART_TX_CTRL_REG = UART_1_UART_DEFAULT_UART_TX_CTRL;
ARM GAS  C:\Users\Marcelo\AppData\Local\Temp\ccivALbz.s 			page 14


 246:.\Generated_Source\PSoC4/UART_1_UART.c ****         UART_1_TX_CTRL_REG      = UART_1_UART_DEFAULT_TX_CTRL;
 247:.\Generated_Source\PSoC4/UART_1_UART.c ****         UART_1_TX_FIFO_CTRL_REG = UART_1_UART_DEFAULT_TX_FIFO_CTRL;
 248:.\Generated_Source\PSoC4/UART_1_UART.c **** 
 249:.\Generated_Source\PSoC4/UART_1_UART.c ****     #if !(UART_1_CY_SCBIP_V0 || UART_1_CY_SCBIP_V1)
 250:.\Generated_Source\PSoC4/UART_1_UART.c ****         UART_1_UART_FLOW_CTRL_REG = UART_1_UART_DEFAULT_FLOW_CTRL;
 251:.\Generated_Source\PSoC4/UART_1_UART.c ****     #endif /* !(UART_1_CY_SCBIP_V0 || UART_1_CY_SCBIP_V1) */
 252:.\Generated_Source\PSoC4/UART_1_UART.c **** 
 253:.\Generated_Source\PSoC4/UART_1_UART.c ****         /* Configure interrupt with UART handler but do not enable it */
 254:.\Generated_Source\PSoC4/UART_1_UART.c ****     #if(UART_1_SCB_IRQ_INTERNAL)
 255:.\Generated_Source\PSoC4/UART_1_UART.c ****         CyIntDisable    (UART_1_ISR_NUMBER);
 256:.\Generated_Source\PSoC4/UART_1_UART.c ****         CyIntSetPriority(UART_1_ISR_NUMBER, UART_1_ISR_PRIORITY);
 257:.\Generated_Source\PSoC4/UART_1_UART.c ****         (void) CyIntSetVector(UART_1_ISR_NUMBER, &UART_1_SPI_UART_ISR);
 258:.\Generated_Source\PSoC4/UART_1_UART.c ****     #endif /* (UART_1_SCB_IRQ_INTERNAL) */
 259:.\Generated_Source\PSoC4/UART_1_UART.c **** 
 260:.\Generated_Source\PSoC4/UART_1_UART.c ****         /* Configure WAKE interrupt */
 261:.\Generated_Source\PSoC4/UART_1_UART.c ****     #if(UART_1_UART_RX_WAKEUP_IRQ)
 262:.\Generated_Source\PSoC4/UART_1_UART.c ****         CyIntDisable    (UART_1_RX_WAKE_ISR_NUMBER);
 263:.\Generated_Source\PSoC4/UART_1_UART.c ****         CyIntSetPriority(UART_1_RX_WAKE_ISR_NUMBER, UART_1_RX_WAKE_ISR_PRIORITY);
 264:.\Generated_Source\PSoC4/UART_1_UART.c ****         (void) CyIntSetVector(UART_1_RX_WAKE_ISR_NUMBER, &UART_1_UART_WAKEUP_ISR);
 265:.\Generated_Source\PSoC4/UART_1_UART.c ****     #endif /* (UART_1_UART_RX_WAKEUP_IRQ) */
 266:.\Generated_Source\PSoC4/UART_1_UART.c **** 
 267:.\Generated_Source\PSoC4/UART_1_UART.c ****         /* Configure interrupt sources */
 268:.\Generated_Source\PSoC4/UART_1_UART.c ****         UART_1_INTR_I2C_EC_MASK_REG = UART_1_UART_DEFAULT_INTR_I2C_EC_MASK;
 269:.\Generated_Source\PSoC4/UART_1_UART.c ****         UART_1_INTR_SPI_EC_MASK_REG = UART_1_UART_DEFAULT_INTR_SPI_EC_MASK;
 270:.\Generated_Source\PSoC4/UART_1_UART.c ****         UART_1_INTR_SLAVE_MASK_REG  = UART_1_UART_DEFAULT_INTR_SLAVE_MASK;
 271:.\Generated_Source\PSoC4/UART_1_UART.c ****         UART_1_INTR_MASTER_MASK_REG = UART_1_UART_DEFAULT_INTR_MASTER_MASK;
 272:.\Generated_Source\PSoC4/UART_1_UART.c ****         UART_1_INTR_RX_MASK_REG     = UART_1_UART_DEFAULT_INTR_RX_MASK;
 273:.\Generated_Source\PSoC4/UART_1_UART.c ****         UART_1_INTR_TX_MASK_REG     = UART_1_UART_DEFAULT_INTR_TX_MASK;
 274:.\Generated_Source\PSoC4/UART_1_UART.c **** 
 275:.\Generated_Source\PSoC4/UART_1_UART.c ****     #if(UART_1_INTERNAL_RX_SW_BUFFER_CONST)
 276:.\Generated_Source\PSoC4/UART_1_UART.c ****         UART_1_rxBufferHead     = 0u;
 277:.\Generated_Source\PSoC4/UART_1_UART.c ****         UART_1_rxBufferTail     = 0u;
 278:.\Generated_Source\PSoC4/UART_1_UART.c ****         UART_1_rxBufferOverflow = 0u;
 279:.\Generated_Source\PSoC4/UART_1_UART.c ****     #endif /* (UART_1_INTERNAL_RX_SW_BUFFER_CONST) */
 280:.\Generated_Source\PSoC4/UART_1_UART.c **** 
 281:.\Generated_Source\PSoC4/UART_1_UART.c ****     #if(UART_1_INTERNAL_TX_SW_BUFFER_CONST)
 282:.\Generated_Source\PSoC4/UART_1_UART.c ****         UART_1_txBufferHead = 0u;
 283:.\Generated_Source\PSoC4/UART_1_UART.c ****         UART_1_txBufferTail = 0u;
 284:.\Generated_Source\PSoC4/UART_1_UART.c ****     #endif /* (UART_1_INTERNAL_TX_SW_BUFFER_CONST) */
 285:.\Generated_Source\PSoC4/UART_1_UART.c ****     }
 286:.\Generated_Source\PSoC4/UART_1_UART.c **** #endif /* (UART_1_SCB_MODE_UNCONFIG_CONST_CFG) */
 287:.\Generated_Source\PSoC4/UART_1_UART.c **** 
 288:.\Generated_Source\PSoC4/UART_1_UART.c **** 
 289:.\Generated_Source\PSoC4/UART_1_UART.c **** /*******************************************************************************
 290:.\Generated_Source\PSoC4/UART_1_UART.c **** * Function Name: UART_1_UartPostEnable
 291:.\Generated_Source\PSoC4/UART_1_UART.c **** ********************************************************************************
 292:.\Generated_Source\PSoC4/UART_1_UART.c **** *
 293:.\Generated_Source\PSoC4/UART_1_UART.c **** * Summary:
 294:.\Generated_Source\PSoC4/UART_1_UART.c **** *  Restores HSIOM settings for the UART output pins (TX and/or RTS) to be 
 295:.\Generated_Source\PSoC4/UART_1_UART.c **** *  controlled by the SCB UART.
 296:.\Generated_Source\PSoC4/UART_1_UART.c **** *
 297:.\Generated_Source\PSoC4/UART_1_UART.c **** * Parameters:
 298:.\Generated_Source\PSoC4/UART_1_UART.c **** *  None
 299:.\Generated_Source\PSoC4/UART_1_UART.c **** *
 300:.\Generated_Source\PSoC4/UART_1_UART.c **** * Return:
 301:.\Generated_Source\PSoC4/UART_1_UART.c **** *  None
 302:.\Generated_Source\PSoC4/UART_1_UART.c **** *
ARM GAS  C:\Users\Marcelo\AppData\Local\Temp\ccivALbz.s 			page 15


 303:.\Generated_Source\PSoC4/UART_1_UART.c **** *******************************************************************************/
 304:.\Generated_Source\PSoC4/UART_1_UART.c **** void UART_1_UartPostEnable(void)
 305:.\Generated_Source\PSoC4/UART_1_UART.c **** {
 476              		.loc 1 305 0
 477              		.cfi_startproc
 306:.\Generated_Source\PSoC4/UART_1_UART.c **** #if (UART_1_SCB_MODE_UNCONFIG_CONST_CFG)
 307:.\Generated_Source\PSoC4/UART_1_UART.c **** 
 308:.\Generated_Source\PSoC4/UART_1_UART.c **** #if (UART_1_TX_SDA_MISO_PIN)
 309:.\Generated_Source\PSoC4/UART_1_UART.c ****     if (UART_1_CHECK_TX_SDA_MISO_PIN_USED)
 478              		.loc 1 309 0
 479 0000 064B     		ldr	r3, .L50
 480 0002 1B68     		ldr	r3, [r3]
 481 0004 9B03     		lsl	r3, r3, #14
 482 0006 5B0F     		lsr	r3, r3, #29
 483 0008 07D0     		beq	.L48
 310:.\Generated_Source\PSoC4/UART_1_UART.c ****     {
 311:.\Generated_Source\PSoC4/UART_1_UART.c ****         /* Set SCB UART to drive the output pin */
 312:.\Generated_Source\PSoC4/UART_1_UART.c ****         UART_1_SET_HSIOM_SEL(UART_1_TX_SDA_MISO_HSIOM_REG, UART_1_TX_SDA_MISO_HSIOM_MASK,
 484              		.loc 1 312 0
 485 000a 054B     		ldr	r3, .L50+4
 486 000c 1968     		ldr	r1, [r3]
 487 000e 054A     		ldr	r2, .L50+8
 488 0010 0A40     		and	r2, r1
 489 0012 9021     		mov	r1, #144
 490 0014 0904     		lsl	r1, r1, #16
 491 0016 0A43     		orr	r2, r1
 492 0018 1A60     		str	r2, [r3]
 493              	.L48:
 313:.\Generated_Source\PSoC4/UART_1_UART.c ****                                        UART_1_TX_SDA_MISO_HSIOM_POS, UART_1_HSIOM_UART_SEL);
 314:.\Generated_Source\PSoC4/UART_1_UART.c ****     }
 315:.\Generated_Source\PSoC4/UART_1_UART.c **** #endif /* (UART_1_TX_SDA_MISO_PIN_PIN) */
 316:.\Generated_Source\PSoC4/UART_1_UART.c **** 
 317:.\Generated_Source\PSoC4/UART_1_UART.c **** #if (UART_1_SS0_PIN)
 318:.\Generated_Source\PSoC4/UART_1_UART.c ****     if (UART_1_CHECK_SS0_PIN_USED)
 319:.\Generated_Source\PSoC4/UART_1_UART.c ****     {
 320:.\Generated_Source\PSoC4/UART_1_UART.c ****         /* Set SCB UART to drive the output pin */
 321:.\Generated_Source\PSoC4/UART_1_UART.c ****         UART_1_SET_HSIOM_SEL(UART_1_SS0_HSIOM_REG, UART_1_SS0_HSIOM_MASK,
 322:.\Generated_Source\PSoC4/UART_1_UART.c ****                                        UART_1_SS0_HSIOM_POS, UART_1_HSIOM_UART_SEL);
 323:.\Generated_Source\PSoC4/UART_1_UART.c ****     }
 324:.\Generated_Source\PSoC4/UART_1_UART.c **** #endif /* (UART_1_SS0_PIN) */
 325:.\Generated_Source\PSoC4/UART_1_UART.c **** 
 326:.\Generated_Source\PSoC4/UART_1_UART.c **** #else
 327:.\Generated_Source\PSoC4/UART_1_UART.c **** #if (UART_1_UART_TX_PIN)
 328:.\Generated_Source\PSoC4/UART_1_UART.c ****      /* Set SCB UART to drive the output pin */
 329:.\Generated_Source\PSoC4/UART_1_UART.c ****     UART_1_SET_HSIOM_SEL(UART_1_TX_HSIOM_REG, UART_1_TX_HSIOM_MASK,
 330:.\Generated_Source\PSoC4/UART_1_UART.c ****                                    UART_1_TX_HSIOM_POS, UART_1_HSIOM_UART_SEL);
 331:.\Generated_Source\PSoC4/UART_1_UART.c **** #endif /* (UART_1_UART_TX_PIN) */
 332:.\Generated_Source\PSoC4/UART_1_UART.c **** 
 333:.\Generated_Source\PSoC4/UART_1_UART.c **** #if (UART_1_UART_RTS_PIN)
 334:.\Generated_Source\PSoC4/UART_1_UART.c ****     /* Set SCB UART to drive the output pin */
 335:.\Generated_Source\PSoC4/UART_1_UART.c ****     UART_1_SET_HSIOM_SEL(UART_1_RTS_HSIOM_REG, UART_1_RTS_HSIOM_MASK,
 336:.\Generated_Source\PSoC4/UART_1_UART.c ****                                    UART_1_RTS_HSIOM_POS, UART_1_HSIOM_UART_SEL);
 337:.\Generated_Source\PSoC4/UART_1_UART.c **** #endif /* (UART_1_UART_RTS_PIN) */
 338:.\Generated_Source\PSoC4/UART_1_UART.c **** 
 339:.\Generated_Source\PSoC4/UART_1_UART.c **** #endif /* (UART_1_SCB_MODE_UNCONFIG_CONST_CFG) */
 340:.\Generated_Source\PSoC4/UART_1_UART.c **** }
 494              		.loc 1 340 0
ARM GAS  C:\Users\Marcelo\AppData\Local\Temp\ccivALbz.s 			page 16


 495              		@ sp needed
 496 001a 7047     		bx	lr
 497              	.L51:
 498              		.align	2
 499              	.L50:
 500 001c 08000440 		.word	1074003976
 501 0020 00000140 		.word	1073807360
 502 0024 FFFF0FFF 		.word	-15728641
 503              		.cfi_endproc
 504              	.LFE1:
 505              		.size	UART_1_UartPostEnable, .-UART_1_UartPostEnable
 506              		.section	.text.UART_1_UartStop,"ax",%progbits
 507              		.align	2
 508              		.global	UART_1_UartStop
 509              		.code	16
 510              		.thumb_func
 511              		.type	UART_1_UartStop, %function
 512              	UART_1_UartStop:
 513              	.LFB2:
 341:.\Generated_Source\PSoC4/UART_1_UART.c **** 
 342:.\Generated_Source\PSoC4/UART_1_UART.c **** 
 343:.\Generated_Source\PSoC4/UART_1_UART.c **** /*******************************************************************************
 344:.\Generated_Source\PSoC4/UART_1_UART.c **** * Function Name: UART_1_UartStop
 345:.\Generated_Source\PSoC4/UART_1_UART.c **** ********************************************************************************
 346:.\Generated_Source\PSoC4/UART_1_UART.c **** *
 347:.\Generated_Source\PSoC4/UART_1_UART.c **** * Summary:
 348:.\Generated_Source\PSoC4/UART_1_UART.c **** *  Changes the HSIOM settings for the UART output pins (TX and/or RTS) to keep
 349:.\Generated_Source\PSoC4/UART_1_UART.c **** *  them inactive after the block is disabled. The output pins are controlled by
 350:.\Generated_Source\PSoC4/UART_1_UART.c **** *  the GPIO data register. Also, the function disables the skip start feature to
 351:.\Generated_Source\PSoC4/UART_1_UART.c **** *  not cause it to trigger after the component is enabled.
 352:.\Generated_Source\PSoC4/UART_1_UART.c **** *
 353:.\Generated_Source\PSoC4/UART_1_UART.c **** * Parameters:
 354:.\Generated_Source\PSoC4/UART_1_UART.c **** *  None
 355:.\Generated_Source\PSoC4/UART_1_UART.c **** *
 356:.\Generated_Source\PSoC4/UART_1_UART.c **** * Return:
 357:.\Generated_Source\PSoC4/UART_1_UART.c **** *  None
 358:.\Generated_Source\PSoC4/UART_1_UART.c **** *
 359:.\Generated_Source\PSoC4/UART_1_UART.c **** *******************************************************************************/
 360:.\Generated_Source\PSoC4/UART_1_UART.c **** void UART_1_UartStop(void)
 361:.\Generated_Source\PSoC4/UART_1_UART.c **** {
 514              		.loc 1 361 0
 515              		.cfi_startproc
 362:.\Generated_Source\PSoC4/UART_1_UART.c **** #if(UART_1_SCB_MODE_UNCONFIG_CONST_CFG)
 363:.\Generated_Source\PSoC4/UART_1_UART.c ****     #if (UART_1_TX_SDA_MISO_PIN)
 364:.\Generated_Source\PSoC4/UART_1_UART.c ****         if (UART_1_CHECK_TX_SDA_MISO_PIN_USED)
 516              		.loc 1 364 0
 517 0000 074B     		ldr	r3, .L54
 518 0002 1B68     		ldr	r3, [r3]
 519 0004 9B03     		lsl	r3, r3, #14
 520 0006 5B0F     		lsr	r3, r3, #29
 521 0008 04D0     		beq	.L53
 365:.\Generated_Source\PSoC4/UART_1_UART.c ****         {
 366:.\Generated_Source\PSoC4/UART_1_UART.c ****             /* Set GPIO to drive output pin */
 367:.\Generated_Source\PSoC4/UART_1_UART.c ****             UART_1_SET_HSIOM_SEL(UART_1_TX_SDA_MISO_HSIOM_REG, UART_1_TX_SDA_MISO_HSIOM_MASK,
 522              		.loc 1 367 0
 523 000a 064B     		ldr	r3, .L54+4
 524 000c 1968     		ldr	r1, [r3]
ARM GAS  C:\Users\Marcelo\AppData\Local\Temp\ccivALbz.s 			page 17


 525 000e 064A     		ldr	r2, .L54+8
 526 0010 0A40     		and	r2, r1
 527 0012 1A60     		str	r2, [r3]
 528              	.L53:
 368:.\Generated_Source\PSoC4/UART_1_UART.c ****                                            UART_1_TX_SDA_MISO_HSIOM_POS, UART_1_HSIOM_GPIO_SEL);
 369:.\Generated_Source\PSoC4/UART_1_UART.c ****         }
 370:.\Generated_Source\PSoC4/UART_1_UART.c ****     #endif /* (UART_1_TX_SDA_MISO_PIN_PIN) */
 371:.\Generated_Source\PSoC4/UART_1_UART.c **** 
 372:.\Generated_Source\PSoC4/UART_1_UART.c ****     #if (UART_1_SS0_PIN)
 373:.\Generated_Source\PSoC4/UART_1_UART.c ****         if (UART_1_CHECK_SS0_PIN_USED)
 374:.\Generated_Source\PSoC4/UART_1_UART.c ****         {
 375:.\Generated_Source\PSoC4/UART_1_UART.c ****             /* Set output pin state after block is disabled */
 376:.\Generated_Source\PSoC4/UART_1_UART.c ****             UART_1_spi_ss0_Write(UART_1_GET_UART_RTS_INACTIVE);
 377:.\Generated_Source\PSoC4/UART_1_UART.c **** 
 378:.\Generated_Source\PSoC4/UART_1_UART.c ****             /* Set GPIO to drive output pin */
 379:.\Generated_Source\PSoC4/UART_1_UART.c ****             UART_1_SET_HSIOM_SEL(UART_1_SS0_HSIOM_REG, UART_1_SS0_HSIOM_MASK,
 380:.\Generated_Source\PSoC4/UART_1_UART.c ****                                            UART_1_SS0_HSIOM_POS, UART_1_HSIOM_GPIO_SEL);
 381:.\Generated_Source\PSoC4/UART_1_UART.c ****         }
 382:.\Generated_Source\PSoC4/UART_1_UART.c ****     #endif /* (UART_1_SS0_PIN) */
 383:.\Generated_Source\PSoC4/UART_1_UART.c **** 
 384:.\Generated_Source\PSoC4/UART_1_UART.c **** #else
 385:.\Generated_Source\PSoC4/UART_1_UART.c ****     #if (UART_1_UART_TX_PIN)
 386:.\Generated_Source\PSoC4/UART_1_UART.c ****         /* Set GPIO to drive output pin */
 387:.\Generated_Source\PSoC4/UART_1_UART.c ****         UART_1_SET_HSIOM_SEL(UART_1_TX_HSIOM_REG, UART_1_TX_HSIOM_MASK,
 388:.\Generated_Source\PSoC4/UART_1_UART.c ****                                        UART_1_TX_HSIOM_POS, UART_1_HSIOM_GPIO_SEL);
 389:.\Generated_Source\PSoC4/UART_1_UART.c ****     #endif /* (UART_1_UART_TX_PIN) */
 390:.\Generated_Source\PSoC4/UART_1_UART.c **** 
 391:.\Generated_Source\PSoC4/UART_1_UART.c ****     #if (UART_1_UART_RTS_PIN)
 392:.\Generated_Source\PSoC4/UART_1_UART.c ****         /* Set output pin state after block is disabled */
 393:.\Generated_Source\PSoC4/UART_1_UART.c ****         UART_1_rts_Write(UART_1_GET_UART_RTS_INACTIVE);
 394:.\Generated_Source\PSoC4/UART_1_UART.c **** 
 395:.\Generated_Source\PSoC4/UART_1_UART.c ****         /* Set GPIO to drive output pin */
 396:.\Generated_Source\PSoC4/UART_1_UART.c ****         UART_1_SET_HSIOM_SEL(UART_1_RTS_HSIOM_REG, UART_1_RTS_HSIOM_MASK,
 397:.\Generated_Source\PSoC4/UART_1_UART.c ****                                        UART_1_RTS_HSIOM_POS, UART_1_HSIOM_GPIO_SEL);
 398:.\Generated_Source\PSoC4/UART_1_UART.c ****     #endif /* (UART_1_UART_RTS_PIN) */
 399:.\Generated_Source\PSoC4/UART_1_UART.c **** 
 400:.\Generated_Source\PSoC4/UART_1_UART.c **** #endif /* (UART_1_SCB_MODE_UNCONFIG_CONST_CFG) */
 401:.\Generated_Source\PSoC4/UART_1_UART.c **** 
 402:.\Generated_Source\PSoC4/UART_1_UART.c **** #if (UART_1_UART_WAKE_ENABLE_CONST)
 403:.\Generated_Source\PSoC4/UART_1_UART.c ****     /* Disable skip start feature used for wakeup */
 404:.\Generated_Source\PSoC4/UART_1_UART.c ****     UART_1_UART_RX_CTRL_REG &= (uint32) ~UART_1_UART_RX_CTRL_SKIP_START;
 529              		.loc 1 404 0
 530 0014 054B     		ldr	r3, .L54+12
 531 0016 1968     		ldr	r1, [r3]
 532 0018 054A     		ldr	r2, .L54+16
 533 001a 0A40     		and	r2, r1
 534 001c 1A60     		str	r2, [r3]
 405:.\Generated_Source\PSoC4/UART_1_UART.c **** #endif /* (UART_1_UART_WAKE_ENABLE_CONST) */
 406:.\Generated_Source\PSoC4/UART_1_UART.c **** }
 535              		.loc 1 406 0
 536              		@ sp needed
 537 001e 7047     		bx	lr
 538              	.L55:
 539              		.align	2
 540              	.L54:
 541 0020 08000440 		.word	1074003976
 542 0024 00000140 		.word	1073807360
ARM GAS  C:\Users\Marcelo\AppData\Local\Temp\ccivALbz.s 			page 18


 543 0028 FFFF0FFF 		.word	-15728641
 544 002c 48000740 		.word	1074200648
 545 0030 FFDFFFFF 		.word	-8193
 546              		.cfi_endproc
 547              	.LFE2:
 548              		.size	UART_1_UartStop, .-UART_1_UartStop
 549              		.section	.text.UART_1_UartSetRxAddress,"ax",%progbits
 550              		.align	2
 551              		.global	UART_1_UartSetRxAddress
 552              		.code	16
 553              		.thumb_func
 554              		.type	UART_1_UartSetRxAddress, %function
 555              	UART_1_UartSetRxAddress:
 556              	.LFB3:
 407:.\Generated_Source\PSoC4/UART_1_UART.c **** 
 408:.\Generated_Source\PSoC4/UART_1_UART.c **** 
 409:.\Generated_Source\PSoC4/UART_1_UART.c **** /*******************************************************************************
 410:.\Generated_Source\PSoC4/UART_1_UART.c **** * Function Name: UART_1_UartSetRxAddress
 411:.\Generated_Source\PSoC4/UART_1_UART.c **** ********************************************************************************
 412:.\Generated_Source\PSoC4/UART_1_UART.c **** *
 413:.\Generated_Source\PSoC4/UART_1_UART.c **** * Summary:
 414:.\Generated_Source\PSoC4/UART_1_UART.c **** *  Sets the hardware detectable receiver address for the UART in the
 415:.\Generated_Source\PSoC4/UART_1_UART.c **** *  Multiprocessor mode.
 416:.\Generated_Source\PSoC4/UART_1_UART.c **** *
 417:.\Generated_Source\PSoC4/UART_1_UART.c **** * Parameters:
 418:.\Generated_Source\PSoC4/UART_1_UART.c **** *  address: Address for hardware address detection.
 419:.\Generated_Source\PSoC4/UART_1_UART.c **** *
 420:.\Generated_Source\PSoC4/UART_1_UART.c **** * Return:
 421:.\Generated_Source\PSoC4/UART_1_UART.c **** *  None
 422:.\Generated_Source\PSoC4/UART_1_UART.c **** *
 423:.\Generated_Source\PSoC4/UART_1_UART.c **** *******************************************************************************/
 424:.\Generated_Source\PSoC4/UART_1_UART.c **** void UART_1_UartSetRxAddress(uint32 address)
 425:.\Generated_Source\PSoC4/UART_1_UART.c **** {
 557              		.loc 1 425 0
 558              		.cfi_startproc
 559              	.LVL10:
 426:.\Generated_Source\PSoC4/UART_1_UART.c ****      uint32 matchReg;
 427:.\Generated_Source\PSoC4/UART_1_UART.c **** 
 428:.\Generated_Source\PSoC4/UART_1_UART.c ****     matchReg = UART_1_RX_MATCH_REG;
 560              		.loc 1 428 0
 561 0000 034B     		ldr	r3, .L57
 562 0002 1968     		ldr	r1, [r3]
 563              	.LVL11:
 429:.\Generated_Source\PSoC4/UART_1_UART.c **** 
 430:.\Generated_Source\PSoC4/UART_1_UART.c ****     matchReg &= ((uint32) ~UART_1_RX_MATCH_ADDR_MASK); /* Clear address bits */
 564              		.loc 1 430 0
 565 0004 FF22     		mov	r2, #255
 566 0006 9143     		bic	r1, r2
 567              	.LVL12:
 431:.\Generated_Source\PSoC4/UART_1_UART.c ****     matchReg |= ((uint32)  (address & UART_1_RX_MATCH_ADDR_MASK)); /* Set address  */
 568              		.loc 1 431 0
 569 0008 0240     		and	r2, r0
 570 000a 0A43     		orr	r2, r1
 571              	.LVL13:
 432:.\Generated_Source\PSoC4/UART_1_UART.c **** 
 433:.\Generated_Source\PSoC4/UART_1_UART.c ****     UART_1_RX_MATCH_REG = matchReg;
 572              		.loc 1 433 0
ARM GAS  C:\Users\Marcelo\AppData\Local\Temp\ccivALbz.s 			page 19


 573 000c 1A60     		str	r2, [r3]
 434:.\Generated_Source\PSoC4/UART_1_UART.c **** }
 574              		.loc 1 434 0
 575              		@ sp needed
 576 000e 7047     		bx	lr
 577              	.L58:
 578              		.align	2
 579              	.L57:
 580 0010 10030740 		.word	1074201360
 581              		.cfi_endproc
 582              	.LFE3:
 583              		.size	UART_1_UartSetRxAddress, .-UART_1_UartSetRxAddress
 584              		.section	.text.UART_1_UartSetRxAddressMask,"ax",%progbits
 585              		.align	2
 586              		.global	UART_1_UartSetRxAddressMask
 587              		.code	16
 588              		.thumb_func
 589              		.type	UART_1_UartSetRxAddressMask, %function
 590              	UART_1_UartSetRxAddressMask:
 591              	.LFB4:
 435:.\Generated_Source\PSoC4/UART_1_UART.c **** 
 436:.\Generated_Source\PSoC4/UART_1_UART.c **** 
 437:.\Generated_Source\PSoC4/UART_1_UART.c **** /*******************************************************************************
 438:.\Generated_Source\PSoC4/UART_1_UART.c **** * Function Name: UART_1_UartSetRxAddressMask
 439:.\Generated_Source\PSoC4/UART_1_UART.c **** ********************************************************************************
 440:.\Generated_Source\PSoC4/UART_1_UART.c **** *
 441:.\Generated_Source\PSoC4/UART_1_UART.c **** * Summary:
 442:.\Generated_Source\PSoC4/UART_1_UART.c **** *  Sets the hardware address mask for the UART in the Multiprocessor mode.
 443:.\Generated_Source\PSoC4/UART_1_UART.c **** *
 444:.\Generated_Source\PSoC4/UART_1_UART.c **** * Parameters:
 445:.\Generated_Source\PSoC4/UART_1_UART.c **** *  addressMask: Address mask.
 446:.\Generated_Source\PSoC4/UART_1_UART.c **** *   0 - address bit does not care while comparison.
 447:.\Generated_Source\PSoC4/UART_1_UART.c **** *   1 - address bit is significant while comparison.
 448:.\Generated_Source\PSoC4/UART_1_UART.c **** *
 449:.\Generated_Source\PSoC4/UART_1_UART.c **** * Return:
 450:.\Generated_Source\PSoC4/UART_1_UART.c **** *  None
 451:.\Generated_Source\PSoC4/UART_1_UART.c **** *
 452:.\Generated_Source\PSoC4/UART_1_UART.c **** *******************************************************************************/
 453:.\Generated_Source\PSoC4/UART_1_UART.c **** void UART_1_UartSetRxAddressMask(uint32 addressMask)
 454:.\Generated_Source\PSoC4/UART_1_UART.c **** {
 592              		.loc 1 454 0
 593              		.cfi_startproc
 594              	.LVL14:
 455:.\Generated_Source\PSoC4/UART_1_UART.c ****     uint32 matchReg;
 456:.\Generated_Source\PSoC4/UART_1_UART.c **** 
 457:.\Generated_Source\PSoC4/UART_1_UART.c ****     matchReg = UART_1_RX_MATCH_REG;
 595              		.loc 1 457 0
 596 0000 034B     		ldr	r3, .L60
 597 0002 1968     		ldr	r1, [r3]
 598              	.LVL15:
 458:.\Generated_Source\PSoC4/UART_1_UART.c **** 
 459:.\Generated_Source\PSoC4/UART_1_UART.c ****     matchReg &= ((uint32) ~UART_1_RX_MATCH_MASK_MASK); /* Clear address mask bits */
 599              		.loc 1 459 0
 600 0004 034A     		ldr	r2, .L60+4
 601 0006 0A40     		and	r2, r1
 602              	.LVL16:
 460:.\Generated_Source\PSoC4/UART_1_UART.c ****     matchReg |= ((uint32) (addressMask << UART_1_RX_MATCH_MASK_POS));
ARM GAS  C:\Users\Marcelo\AppData\Local\Temp\ccivALbz.s 			page 20


 603              		.loc 1 460 0
 604 0008 0004     		lsl	r0, r0, #16
 605              	.LVL17:
 606 000a 1043     		orr	r0, r2
 607              	.LVL18:
 461:.\Generated_Source\PSoC4/UART_1_UART.c **** 
 462:.\Generated_Source\PSoC4/UART_1_UART.c ****     UART_1_RX_MATCH_REG = matchReg;
 608              		.loc 1 462 0
 609 000c 1860     		str	r0, [r3]
 463:.\Generated_Source\PSoC4/UART_1_UART.c **** }
 610              		.loc 1 463 0
 611              		@ sp needed
 612 000e 7047     		bx	lr
 613              	.L61:
 614              		.align	2
 615              	.L60:
 616 0010 10030740 		.word	1074201360
 617 0014 FFFF00FF 		.word	-16711681
 618              		.cfi_endproc
 619              	.LFE4:
 620              		.size	UART_1_UartSetRxAddressMask, .-UART_1_UartSetRxAddressMask
 621              		.section	.text.UART_1_UartGetChar,"ax",%progbits
 622              		.align	2
 623              		.global	UART_1_UartGetChar
 624              		.code	16
 625              		.thumb_func
 626              		.type	UART_1_UartGetChar, %function
 627              	UART_1_UartGetChar:
 628              	.LFB5:
 464:.\Generated_Source\PSoC4/UART_1_UART.c **** 
 465:.\Generated_Source\PSoC4/UART_1_UART.c **** 
 466:.\Generated_Source\PSoC4/UART_1_UART.c **** #if(UART_1_UART_RX_DIRECTION)
 467:.\Generated_Source\PSoC4/UART_1_UART.c ****     /*******************************************************************************
 468:.\Generated_Source\PSoC4/UART_1_UART.c ****     * Function Name: UART_1_UartGetChar
 469:.\Generated_Source\PSoC4/UART_1_UART.c ****     ********************************************************************************
 470:.\Generated_Source\PSoC4/UART_1_UART.c ****     *
 471:.\Generated_Source\PSoC4/UART_1_UART.c ****     * Summary:
 472:.\Generated_Source\PSoC4/UART_1_UART.c ****     *  Retrieves the next data element from the receive buffer.
 473:.\Generated_Source\PSoC4/UART_1_UART.c ****     *  This function is designed for ASCII characters and returns a char
 474:.\Generated_Source\PSoC4/UART_1_UART.c ****     *  where 1 to 255 are valid characters and 0 indicates an error occurred or
 475:.\Generated_Source\PSoC4/UART_1_UART.c ****     *  no data present.
 476:.\Generated_Source\PSoC4/UART_1_UART.c ****     *  - The RX software buffer is disabled: returns the data element
 477:.\Generated_Source\PSoC4/UART_1_UART.c ****     *    retrieved from the RX FIFO.
 478:.\Generated_Source\PSoC4/UART_1_UART.c ****     *    Undefined data will be returned if the RX FIFO is empty.
 479:.\Generated_Source\PSoC4/UART_1_UART.c ****     *  - The RX software buffer is enabled: returns the data element from
 480:.\Generated_Source\PSoC4/UART_1_UART.c ****     *    the software receive buffer.
 481:.\Generated_Source\PSoC4/UART_1_UART.c ****     *
 482:.\Generated_Source\PSoC4/UART_1_UART.c ****     * Parameters:
 483:.\Generated_Source\PSoC4/UART_1_UART.c ****     *  None
 484:.\Generated_Source\PSoC4/UART_1_UART.c ****     *
 485:.\Generated_Source\PSoC4/UART_1_UART.c ****     * Return:
 486:.\Generated_Source\PSoC4/UART_1_UART.c ****     *  The next data element from the receive buffer.
 487:.\Generated_Source\PSoC4/UART_1_UART.c ****     *  ASCII character values from 1 to 255 are valid.
 488:.\Generated_Source\PSoC4/UART_1_UART.c ****     *  A returned zero signifies an error condition or no data available.
 489:.\Generated_Source\PSoC4/UART_1_UART.c ****     *
 490:.\Generated_Source\PSoC4/UART_1_UART.c ****     * Side Effects:
 491:.\Generated_Source\PSoC4/UART_1_UART.c ****     *  The errors bits may not correspond with reading characters due to RX FIFO
ARM GAS  C:\Users\Marcelo\AppData\Local\Temp\ccivALbz.s 			page 21


 492:.\Generated_Source\PSoC4/UART_1_UART.c ****     *  and software buffer usage.
 493:.\Generated_Source\PSoC4/UART_1_UART.c ****     *  RX software buffer is enabled: The internal software buffer overflow
 494:.\Generated_Source\PSoC4/UART_1_UART.c ****     *  does not treat as an error condition.
 495:.\Generated_Source\PSoC4/UART_1_UART.c ****     *  Check SCB_rxBufferOverflow to capture that error condition.
 496:.\Generated_Source\PSoC4/UART_1_UART.c ****     *
 497:.\Generated_Source\PSoC4/UART_1_UART.c ****     *******************************************************************************/
 498:.\Generated_Source\PSoC4/UART_1_UART.c ****     uint32 UART_1_UartGetChar(void)
 499:.\Generated_Source\PSoC4/UART_1_UART.c ****     {
 629              		.loc 1 499 0
 630              		.cfi_startproc
 631 0000 08B5     		push	{r3, lr}
 632              		.cfi_def_cfa_offset 8
 633              		.cfi_offset 3, -8
 634              		.cfi_offset 14, -4
 635              	.LVL19:
 500:.\Generated_Source\PSoC4/UART_1_UART.c ****         uint32 rxData = 0u;
 501:.\Generated_Source\PSoC4/UART_1_UART.c **** 
 502:.\Generated_Source\PSoC4/UART_1_UART.c ****         /* Reads data only if there is data to read */
 503:.\Generated_Source\PSoC4/UART_1_UART.c ****         if (0u != UART_1_SpiUartGetRxBufferSize())
 636              		.loc 1 503 0
 637 0002 FFF7FEFF 		bl	UART_1_SpiUartGetRxBufferSize
 638              	.LVL20:
 639 0006 0028     		cmp	r0, #0
 640 0008 02D0     		beq	.L65
 504:.\Generated_Source\PSoC4/UART_1_UART.c ****         {
 505:.\Generated_Source\PSoC4/UART_1_UART.c ****             rxData = UART_1_SpiUartReadRxData();
 641              		.loc 1 505 0
 642 000a FFF7FEFF 		bl	UART_1_SpiUartReadRxData
 643              	.LVL21:
 644 000e 00E0     		b	.L63
 645              	.LVL22:
 646              	.L65:
 500:.\Generated_Source\PSoC4/UART_1_UART.c ****         uint32 rxData = 0u;
 647              		.loc 1 500 0
 648 0010 0020     		mov	r0, #0
 649              	.LVL23:
 650              	.L63:
 506:.\Generated_Source\PSoC4/UART_1_UART.c ****         }
 507:.\Generated_Source\PSoC4/UART_1_UART.c **** 
 508:.\Generated_Source\PSoC4/UART_1_UART.c ****         if (UART_1_CHECK_INTR_RX(UART_1_INTR_RX_ERR))
 651              		.loc 1 508 0
 652 0012 054B     		ldr	r3, .L66
 653 0014 1A68     		ldr	r2, [r3]
 654 0016 D823     		mov	r3, #216
 655 0018 9B00     		lsl	r3, r3, #2
 656 001a 1A42     		tst	r2, r3
 657 001c 03D0     		beq	.L64
 658              	.LVL24:
 509:.\Generated_Source\PSoC4/UART_1_UART.c ****         {
 510:.\Generated_Source\PSoC4/UART_1_UART.c ****             rxData = 0u; /* Error occurred: returns zero */
 511:.\Generated_Source\PSoC4/UART_1_UART.c ****             UART_1_ClearRxInterruptSource(UART_1_INTR_RX_ERR);
 659              		.loc 1 511 0
 660 001e 1A1C     		mov	r2, r3
 661 0020 014B     		ldr	r3, .L66
 662 0022 1A60     		str	r2, [r3]
 510:.\Generated_Source\PSoC4/UART_1_UART.c ****             rxData = 0u; /* Error occurred: returns zero */
 663              		.loc 1 510 0
ARM GAS  C:\Users\Marcelo\AppData\Local\Temp\ccivALbz.s 			page 22


 664 0024 0020     		mov	r0, #0
 665              	.LVL25:
 666              	.L64:
 512:.\Generated_Source\PSoC4/UART_1_UART.c ****         }
 513:.\Generated_Source\PSoC4/UART_1_UART.c **** 
 514:.\Generated_Source\PSoC4/UART_1_UART.c ****         return (rxData);
 515:.\Generated_Source\PSoC4/UART_1_UART.c ****     }
 667              		.loc 1 515 0
 668              		@ sp needed
 669 0026 08BD     		pop	{r3, pc}
 670              	.L67:
 671              		.align	2
 672              	.L66:
 673 0028 C00F0740 		.word	1074204608
 674              		.cfi_endproc
 675              	.LFE5:
 676              		.size	UART_1_UartGetChar, .-UART_1_UartGetChar
 677              		.section	.text.UART_1_UartGetByte,"ax",%progbits
 678              		.align	2
 679              		.global	UART_1_UartGetByte
 680              		.code	16
 681              		.thumb_func
 682              		.type	UART_1_UartGetByte, %function
 683              	UART_1_UartGetByte:
 684              	.LFB6:
 516:.\Generated_Source\PSoC4/UART_1_UART.c **** 
 517:.\Generated_Source\PSoC4/UART_1_UART.c **** 
 518:.\Generated_Source\PSoC4/UART_1_UART.c ****     /*******************************************************************************
 519:.\Generated_Source\PSoC4/UART_1_UART.c ****     * Function Name: UART_1_UartGetByte
 520:.\Generated_Source\PSoC4/UART_1_UART.c ****     ********************************************************************************
 521:.\Generated_Source\PSoC4/UART_1_UART.c ****     *
 522:.\Generated_Source\PSoC4/UART_1_UART.c ****     * Summary:
 523:.\Generated_Source\PSoC4/UART_1_UART.c ****     *  Retrieves the next data element from the receive buffer, returns the
 524:.\Generated_Source\PSoC4/UART_1_UART.c ****     *  received byte and error condition.
 525:.\Generated_Source\PSoC4/UART_1_UART.c ****     *   - The RX software buffer is disabled: returns the data element retrieved
 526:.\Generated_Source\PSoC4/UART_1_UART.c ****     *     from the RX FIFO. Undefined data will be returned if the RX FIFO is
 527:.\Generated_Source\PSoC4/UART_1_UART.c ****     *     empty.
 528:.\Generated_Source\PSoC4/UART_1_UART.c ****     *   - The RX software buffer is enabled: returns data element from the
 529:.\Generated_Source\PSoC4/UART_1_UART.c ****     *     software receive buffer.
 530:.\Generated_Source\PSoC4/UART_1_UART.c ****     *
 531:.\Generated_Source\PSoC4/UART_1_UART.c ****     * Parameters:
 532:.\Generated_Source\PSoC4/UART_1_UART.c ****     *  None
 533:.\Generated_Source\PSoC4/UART_1_UART.c ****     *
 534:.\Generated_Source\PSoC4/UART_1_UART.c ****     * Return:
 535:.\Generated_Source\PSoC4/UART_1_UART.c ****     *  Bits 7-0 contain the next data element from the receive buffer and
 536:.\Generated_Source\PSoC4/UART_1_UART.c ****     *  other bits contain the error condition.
 537:.\Generated_Source\PSoC4/UART_1_UART.c ****     *
 538:.\Generated_Source\PSoC4/UART_1_UART.c ****     * Side Effects:
 539:.\Generated_Source\PSoC4/UART_1_UART.c ****     *  The errors bits may not correspond with reading characters due to RX FIFO
 540:.\Generated_Source\PSoC4/UART_1_UART.c ****     *  and software buffer usage.
 541:.\Generated_Source\PSoC4/UART_1_UART.c ****     *  RX software buffer is disabled: The internal software buffer overflow
 542:.\Generated_Source\PSoC4/UART_1_UART.c ****     *  is not returned as status by this function.
 543:.\Generated_Source\PSoC4/UART_1_UART.c ****     *  Check SCB_rxBufferOverflow to capture that error condition.
 544:.\Generated_Source\PSoC4/UART_1_UART.c ****     *
 545:.\Generated_Source\PSoC4/UART_1_UART.c ****     *******************************************************************************/
 546:.\Generated_Source\PSoC4/UART_1_UART.c ****     uint32 UART_1_UartGetByte(void)
 547:.\Generated_Source\PSoC4/UART_1_UART.c ****     {
ARM GAS  C:\Users\Marcelo\AppData\Local\Temp\ccivALbz.s 			page 23


 685              		.loc 1 547 0
 686              		.cfi_startproc
 687 0000 10B5     		push	{r4, lr}
 688              		.cfi_def_cfa_offset 8
 689              		.cfi_offset 4, -8
 690              		.cfi_offset 14, -4
 548:.\Generated_Source\PSoC4/UART_1_UART.c ****         uint32 rxData;
 549:.\Generated_Source\PSoC4/UART_1_UART.c ****         uint32 tmpStatus;
 550:.\Generated_Source\PSoC4/UART_1_UART.c **** 
 551:.\Generated_Source\PSoC4/UART_1_UART.c ****         if (UART_1_CHECK_RX_SW_BUFFER)
 691              		.loc 1 551 0
 692 0002 144B     		ldr	r3, .L73
 693 0004 1B68     		ldr	r3, [r3]
 694 0006 002B     		cmp	r3, #0
 695 0008 02D0     		beq	.L69
 552:.\Generated_Source\PSoC4/UART_1_UART.c ****         {
 553:.\Generated_Source\PSoC4/UART_1_UART.c ****             UART_1_DisableInt();
 696              		.loc 1 553 0
 697 000a 0B20     		mov	r0, #11
 698 000c FFF7FEFF 		bl	CyIntDisable
 699              	.LVL26:
 700              	.L69:
 554:.\Generated_Source\PSoC4/UART_1_UART.c ****         }
 555:.\Generated_Source\PSoC4/UART_1_UART.c ****         
 556:.\Generated_Source\PSoC4/UART_1_UART.c **** 
 557:.\Generated_Source\PSoC4/UART_1_UART.c ****         if (0u != UART_1_SpiUartGetRxBufferSize())
 701              		.loc 1 557 0
 702 0010 FFF7FEFF 		bl	UART_1_SpiUartGetRxBufferSize
 703              	.LVL27:
 704 0014 0028     		cmp	r0, #0
 705 0016 0AD0     		beq	.L70
 558:.\Generated_Source\PSoC4/UART_1_UART.c ****         {
 559:.\Generated_Source\PSoC4/UART_1_UART.c ****             /* Enables interrupt to receive more bytes: at least one byte is in
 560:.\Generated_Source\PSoC4/UART_1_UART.c ****             * buffer.
 561:.\Generated_Source\PSoC4/UART_1_UART.c ****             */
 562:.\Generated_Source\PSoC4/UART_1_UART.c ****             if (UART_1_CHECK_RX_SW_BUFFER)
 706              		.loc 1 562 0
 707 0018 0E4B     		ldr	r3, .L73
 708 001a 1B68     		ldr	r3, [r3]
 709 001c 002B     		cmp	r3, #0
 710 001e 02D0     		beq	.L71
 563:.\Generated_Source\PSoC4/UART_1_UART.c ****             {            
 564:.\Generated_Source\PSoC4/UART_1_UART.c ****                 UART_1_EnableInt();
 711              		.loc 1 564 0
 712 0020 0B20     		mov	r0, #11
 713 0022 FFF7FEFF 		bl	CyIntEnable
 714              	.LVL28:
 715              	.L71:
 565:.\Generated_Source\PSoC4/UART_1_UART.c ****             }
 566:.\Generated_Source\PSoC4/UART_1_UART.c ****             
 567:.\Generated_Source\PSoC4/UART_1_UART.c **** 
 568:.\Generated_Source\PSoC4/UART_1_UART.c ****             /* Get received byte */
 569:.\Generated_Source\PSoC4/UART_1_UART.c ****             rxData = UART_1_SpiUartReadRxData();
 716              		.loc 1 569 0
 717 0026 FFF7FEFF 		bl	UART_1_SpiUartReadRxData
 718              	.LVL29:
 719 002a 041C     		mov	r4, r0
ARM GAS  C:\Users\Marcelo\AppData\Local\Temp\ccivALbz.s 			page 24


 720              	.LVL30:
 721 002c 08E0     		b	.L72
 722              	.LVL31:
 723              	.L70:
 570:.\Generated_Source\PSoC4/UART_1_UART.c ****         }
 571:.\Generated_Source\PSoC4/UART_1_UART.c ****         else
 572:.\Generated_Source\PSoC4/UART_1_UART.c ****         {
 573:.\Generated_Source\PSoC4/UART_1_UART.c ****             /* Reads a byte directly from RX FIFO: underflow is raised in the case
 574:.\Generated_Source\PSoC4/UART_1_UART.c ****             * of empty. Otherwise the first received byte will be read.
 575:.\Generated_Source\PSoC4/UART_1_UART.c ****             */
 576:.\Generated_Source\PSoC4/UART_1_UART.c ****             rxData = UART_1_RX_FIFO_RD_REG;
 724              		.loc 1 576 0
 725 002e 0A4B     		ldr	r3, .L73+4
 726 0030 1C68     		ldr	r4, [r3]
 727              	.LVL32:
 577:.\Generated_Source\PSoC4/UART_1_UART.c **** 
 578:.\Generated_Source\PSoC4/UART_1_UART.c ****             /* Enables interrupt to receive more bytes.
 579:.\Generated_Source\PSoC4/UART_1_UART.c ****             * The RX_NOT_EMPTY interrupt is cleared by the interrupt routine
 580:.\Generated_Source\PSoC4/UART_1_UART.c ****             * in case the byte was received and read by code above.
 581:.\Generated_Source\PSoC4/UART_1_UART.c ****             */
 582:.\Generated_Source\PSoC4/UART_1_UART.c ****             if (UART_1_CHECK_RX_SW_BUFFER)
 728              		.loc 1 582 0
 729 0032 084B     		ldr	r3, .L73
 730 0034 1B68     		ldr	r3, [r3]
 731 0036 002B     		cmp	r3, #0
 732 0038 02D0     		beq	.L72
 583:.\Generated_Source\PSoC4/UART_1_UART.c ****             {
 584:.\Generated_Source\PSoC4/UART_1_UART.c ****                 UART_1_EnableInt();
 733              		.loc 1 584 0
 734 003a 0B20     		mov	r0, #11
 735 003c FFF7FEFF 		bl	CyIntEnable
 736              	.LVL33:
 737              	.L72:
 585:.\Generated_Source\PSoC4/UART_1_UART.c ****             }
 586:.\Generated_Source\PSoC4/UART_1_UART.c ****             
 587:.\Generated_Source\PSoC4/UART_1_UART.c ****         }
 588:.\Generated_Source\PSoC4/UART_1_UART.c **** 
 589:.\Generated_Source\PSoC4/UART_1_UART.c ****         /* Get and clear RX error mask */
 590:.\Generated_Source\PSoC4/UART_1_UART.c ****         tmpStatus = (UART_1_GetRxInterruptSource() & UART_1_INTR_RX_ERR);
 738              		.loc 1 590 0
 739 0040 064B     		ldr	r3, .L73+8
 740 0042 1868     		ldr	r0, [r3]
 741 0044 D822     		mov	r2, #216
 742 0046 9200     		lsl	r2, r2, #2
 743 0048 1040     		and	r0, r2
 744              	.LVL34:
 591:.\Generated_Source\PSoC4/UART_1_UART.c ****         UART_1_ClearRxInterruptSource(UART_1_INTR_RX_ERR);
 745              		.loc 1 591 0
 746 004a 1A60     		str	r2, [r3]
 592:.\Generated_Source\PSoC4/UART_1_UART.c **** 
 593:.\Generated_Source\PSoC4/UART_1_UART.c ****         /* Puts together data and error status:
 594:.\Generated_Source\PSoC4/UART_1_UART.c ****         * MP mode and accept address: 9th bit is set to notify mark.
 595:.\Generated_Source\PSoC4/UART_1_UART.c ****         */
 596:.\Generated_Source\PSoC4/UART_1_UART.c ****         rxData |= ((uint32) (tmpStatus << 8u));
 747              		.loc 1 596 0
 748 004c 0002     		lsl	r0, r0, #8
 749              	.LVL35:
ARM GAS  C:\Users\Marcelo\AppData\Local\Temp\ccivALbz.s 			page 25


 750 004e 2043     		orr	r0, r4
 751              	.LVL36:
 597:.\Generated_Source\PSoC4/UART_1_UART.c **** 
 598:.\Generated_Source\PSoC4/UART_1_UART.c ****         return (rxData);
 599:.\Generated_Source\PSoC4/UART_1_UART.c ****     }
 752              		.loc 1 599 0
 753              		@ sp needed
 754 0050 10BD     		pop	{r4, pc}
 755              	.L74:
 756 0052 C046     		.align	2
 757              	.L73:
 758 0054 00000000 		.word	UART_1_rxBuffer
 759 0058 40030740 		.word	1074201408
 760 005c C00F0740 		.word	1074204608
 761              		.cfi_endproc
 762              	.LFE6:
 763              		.size	UART_1_UartGetByte, .-UART_1_UartGetByte
 764              		.section	.text.UART_1_UartPutString,"ax",%progbits
 765              		.align	2
 766              		.global	UART_1_UartPutString
 767              		.code	16
 768              		.thumb_func
 769              		.type	UART_1_UartPutString, %function
 770              	UART_1_UartPutString:
 771              	.LFB7:
 600:.\Generated_Source\PSoC4/UART_1_UART.c **** 
 601:.\Generated_Source\PSoC4/UART_1_UART.c **** 
 602:.\Generated_Source\PSoC4/UART_1_UART.c ****     #if !(UART_1_CY_SCBIP_V0 || UART_1_CY_SCBIP_V1)
 603:.\Generated_Source\PSoC4/UART_1_UART.c ****         /*******************************************************************************
 604:.\Generated_Source\PSoC4/UART_1_UART.c ****         * Function Name: UART_1_UartSetRtsPolarity
 605:.\Generated_Source\PSoC4/UART_1_UART.c ****         ********************************************************************************
 606:.\Generated_Source\PSoC4/UART_1_UART.c ****         *
 607:.\Generated_Source\PSoC4/UART_1_UART.c ****         * Summary:
 608:.\Generated_Source\PSoC4/UART_1_UART.c ****         *  Sets active polarity of RTS output signal.
 609:.\Generated_Source\PSoC4/UART_1_UART.c ****         *
 610:.\Generated_Source\PSoC4/UART_1_UART.c ****         * Parameters:
 611:.\Generated_Source\PSoC4/UART_1_UART.c ****         *  polarity: Active polarity of RTS output signal.
 612:.\Generated_Source\PSoC4/UART_1_UART.c ****         *   UART_1_UART_RTS_ACTIVE_LOW  - RTS signal is active low.
 613:.\Generated_Source\PSoC4/UART_1_UART.c ****         *   UART_1_UART_RTS_ACTIVE_HIGH - RTS signal is active high.
 614:.\Generated_Source\PSoC4/UART_1_UART.c ****         *
 615:.\Generated_Source\PSoC4/UART_1_UART.c ****         * Return:
 616:.\Generated_Source\PSoC4/UART_1_UART.c ****         *  None
 617:.\Generated_Source\PSoC4/UART_1_UART.c ****         *
 618:.\Generated_Source\PSoC4/UART_1_UART.c ****         *******************************************************************************/
 619:.\Generated_Source\PSoC4/UART_1_UART.c ****         void UART_1_UartSetRtsPolarity(uint32 polarity)
 620:.\Generated_Source\PSoC4/UART_1_UART.c ****         {
 621:.\Generated_Source\PSoC4/UART_1_UART.c ****             if(0u != polarity)
 622:.\Generated_Source\PSoC4/UART_1_UART.c ****             {
 623:.\Generated_Source\PSoC4/UART_1_UART.c ****                 UART_1_UART_FLOW_CTRL_REG |= (uint32)  UART_1_UART_FLOW_CTRL_RTS_POLARITY;
 624:.\Generated_Source\PSoC4/UART_1_UART.c ****             }
 625:.\Generated_Source\PSoC4/UART_1_UART.c ****             else
 626:.\Generated_Source\PSoC4/UART_1_UART.c ****             {
 627:.\Generated_Source\PSoC4/UART_1_UART.c ****                 UART_1_UART_FLOW_CTRL_REG &= (uint32) ~UART_1_UART_FLOW_CTRL_RTS_POLARITY;
 628:.\Generated_Source\PSoC4/UART_1_UART.c ****             }
 629:.\Generated_Source\PSoC4/UART_1_UART.c ****         }
 630:.\Generated_Source\PSoC4/UART_1_UART.c **** 
 631:.\Generated_Source\PSoC4/UART_1_UART.c **** 
ARM GAS  C:\Users\Marcelo\AppData\Local\Temp\ccivALbz.s 			page 26


 632:.\Generated_Source\PSoC4/UART_1_UART.c ****         /*******************************************************************************
 633:.\Generated_Source\PSoC4/UART_1_UART.c ****         * Function Name: UART_1_UartSetRtsFifoLevel
 634:.\Generated_Source\PSoC4/UART_1_UART.c ****         ********************************************************************************
 635:.\Generated_Source\PSoC4/UART_1_UART.c ****         *
 636:.\Generated_Source\PSoC4/UART_1_UART.c ****         * Summary:
 637:.\Generated_Source\PSoC4/UART_1_UART.c ****         *  Sets level in the RX FIFO for RTS signal activation.
 638:.\Generated_Source\PSoC4/UART_1_UART.c ****         *  While the RX FIFO has fewer entries than the RX FIFO level the RTS signal
 639:.\Generated_Source\PSoC4/UART_1_UART.c ****         *  remains active, otherwise the RTS signal becomes inactive.
 640:.\Generated_Source\PSoC4/UART_1_UART.c ****         *
 641:.\Generated_Source\PSoC4/UART_1_UART.c ****         * Parameters:
 642:.\Generated_Source\PSoC4/UART_1_UART.c ****         *  level: Level in the RX FIFO for RTS signal activation.
 643:.\Generated_Source\PSoC4/UART_1_UART.c ****         *         The range of valid level values is between 0 and RX FIFO depth - 1.
 644:.\Generated_Source\PSoC4/UART_1_UART.c ****         *         Setting level value to 0 disables RTS signal activation.
 645:.\Generated_Source\PSoC4/UART_1_UART.c ****         *
 646:.\Generated_Source\PSoC4/UART_1_UART.c ****         * Return:
 647:.\Generated_Source\PSoC4/UART_1_UART.c ****         *  None
 648:.\Generated_Source\PSoC4/UART_1_UART.c ****         *
 649:.\Generated_Source\PSoC4/UART_1_UART.c ****         *******************************************************************************/
 650:.\Generated_Source\PSoC4/UART_1_UART.c ****         void UART_1_UartSetRtsFifoLevel(uint32 level)
 651:.\Generated_Source\PSoC4/UART_1_UART.c ****         {
 652:.\Generated_Source\PSoC4/UART_1_UART.c ****             uint32 uartFlowCtrl;
 653:.\Generated_Source\PSoC4/UART_1_UART.c **** 
 654:.\Generated_Source\PSoC4/UART_1_UART.c ****             uartFlowCtrl = UART_1_UART_FLOW_CTRL_REG;
 655:.\Generated_Source\PSoC4/UART_1_UART.c **** 
 656:.\Generated_Source\PSoC4/UART_1_UART.c ****             uartFlowCtrl &= ((uint32) ~UART_1_UART_FLOW_CTRL_TRIGGER_LEVEL_MASK); /* Clear level ma
 657:.\Generated_Source\PSoC4/UART_1_UART.c ****             uartFlowCtrl |= ((uint32) (UART_1_UART_FLOW_CTRL_TRIGGER_LEVEL_MASK & level));
 658:.\Generated_Source\PSoC4/UART_1_UART.c **** 
 659:.\Generated_Source\PSoC4/UART_1_UART.c ****             UART_1_UART_FLOW_CTRL_REG = uartFlowCtrl;
 660:.\Generated_Source\PSoC4/UART_1_UART.c ****         }
 661:.\Generated_Source\PSoC4/UART_1_UART.c ****     #endif /* !(UART_1_CY_SCBIP_V0 || UART_1_CY_SCBIP_V1) */
 662:.\Generated_Source\PSoC4/UART_1_UART.c **** 
 663:.\Generated_Source\PSoC4/UART_1_UART.c **** #endif /* (UART_1_UART_RX_DIRECTION) */
 664:.\Generated_Source\PSoC4/UART_1_UART.c **** 
 665:.\Generated_Source\PSoC4/UART_1_UART.c **** 
 666:.\Generated_Source\PSoC4/UART_1_UART.c **** #if(UART_1_UART_TX_DIRECTION)
 667:.\Generated_Source\PSoC4/UART_1_UART.c ****     /*******************************************************************************
 668:.\Generated_Source\PSoC4/UART_1_UART.c ****     * Function Name: UART_1_UartPutString
 669:.\Generated_Source\PSoC4/UART_1_UART.c ****     ********************************************************************************
 670:.\Generated_Source\PSoC4/UART_1_UART.c ****     *
 671:.\Generated_Source\PSoC4/UART_1_UART.c ****     * Summary:
 672:.\Generated_Source\PSoC4/UART_1_UART.c ****     *  Places a NULL terminated string in the transmit buffer to be sent at the
 673:.\Generated_Source\PSoC4/UART_1_UART.c ****     *  next available bus time.
 674:.\Generated_Source\PSoC4/UART_1_UART.c ****     *  This function is blocking and waits until there is space available to put
 675:.\Generated_Source\PSoC4/UART_1_UART.c ****     *  all the requested data into the  transmit buffer.
 676:.\Generated_Source\PSoC4/UART_1_UART.c ****     *
 677:.\Generated_Source\PSoC4/UART_1_UART.c ****     * Parameters:
 678:.\Generated_Source\PSoC4/UART_1_UART.c ****     *  string: pointer to the null terminated string array to be placed in the
 679:.\Generated_Source\PSoC4/UART_1_UART.c ****     *          transmit buffer.
 680:.\Generated_Source\PSoC4/UART_1_UART.c ****     *
 681:.\Generated_Source\PSoC4/UART_1_UART.c ****     * Return:
 682:.\Generated_Source\PSoC4/UART_1_UART.c ****     *  None
 683:.\Generated_Source\PSoC4/UART_1_UART.c ****     *
 684:.\Generated_Source\PSoC4/UART_1_UART.c ****     *******************************************************************************/
 685:.\Generated_Source\PSoC4/UART_1_UART.c ****     void UART_1_UartPutString(const char8 string[])
 686:.\Generated_Source\PSoC4/UART_1_UART.c ****     {
 772              		.loc 1 686 0
 773              		.cfi_startproc
ARM GAS  C:\Users\Marcelo\AppData\Local\Temp\ccivALbz.s 			page 27


 774              	.LVL37:
 775 0000 38B5     		push	{r3, r4, r5, lr}
 776              		.cfi_def_cfa_offset 16
 777              		.cfi_offset 3, -16
 778              		.cfi_offset 4, -12
 779              		.cfi_offset 5, -8
 780              		.cfi_offset 14, -4
 781 0002 051C     		mov	r5, r0
 782              	.LVL38:
 687:.\Generated_Source\PSoC4/UART_1_UART.c ****         uint32 bufIndex;
 688:.\Generated_Source\PSoC4/UART_1_UART.c **** 
 689:.\Generated_Source\PSoC4/UART_1_UART.c ****         bufIndex = 0u;
 783              		.loc 1 689 0
 784 0004 0024     		mov	r4, #0
 690:.\Generated_Source\PSoC4/UART_1_UART.c **** 
 691:.\Generated_Source\PSoC4/UART_1_UART.c ****         /* Blocks the control flow until all data has been sent */
 692:.\Generated_Source\PSoC4/UART_1_UART.c ****         while(string[bufIndex] != ((char8) 0))
 785              		.loc 1 692 0
 786 0006 02E0     		b	.L76
 787              	.LVL39:
 788              	.L77:
 693:.\Generated_Source\PSoC4/UART_1_UART.c ****         {
 694:.\Generated_Source\PSoC4/UART_1_UART.c ****             UART_1_UartPutChar((uint32) string[bufIndex]);
 789              		.loc 1 694 0
 790 0008 FFF7FEFF 		bl	UART_1_SpiUartWriteTxData
 791              	.LVL40:
 695:.\Generated_Source\PSoC4/UART_1_UART.c ****             bufIndex++;
 792              		.loc 1 695 0
 793 000c 0134     		add	r4, r4, #1
 794              	.LVL41:
 795              	.L76:
 692:.\Generated_Source\PSoC4/UART_1_UART.c ****         while(string[bufIndex] != ((char8) 0))
 796              		.loc 1 692 0 discriminator 1
 797 000e 285D     		ldrb	r0, [r5, r4]
 798 0010 0028     		cmp	r0, #0
 799 0012 F9D1     		bne	.L77
 696:.\Generated_Source\PSoC4/UART_1_UART.c ****         }
 697:.\Generated_Source\PSoC4/UART_1_UART.c ****     }
 800              		.loc 1 697 0
 801              		@ sp needed
 802              	.LVL42:
 803              	.LVL43:
 804 0014 38BD     		pop	{r3, r4, r5, pc}
 805              		.cfi_endproc
 806              	.LFE7:
 807              		.size	UART_1_UartPutString, .-UART_1_UartPutString
 808 0016 C046     		.section	.text.UART_1_UartPutCRLF,"ax",%progbits
 809              		.align	2
 810              		.global	UART_1_UartPutCRLF
 811              		.code	16
 812              		.thumb_func
 813              		.type	UART_1_UartPutCRLF, %function
 814              	UART_1_UartPutCRLF:
 815              	.LFB8:
 698:.\Generated_Source\PSoC4/UART_1_UART.c **** 
 699:.\Generated_Source\PSoC4/UART_1_UART.c **** 
 700:.\Generated_Source\PSoC4/UART_1_UART.c ****     /*******************************************************************************
ARM GAS  C:\Users\Marcelo\AppData\Local\Temp\ccivALbz.s 			page 28


 701:.\Generated_Source\PSoC4/UART_1_UART.c ****     * Function Name: UART_1_UartPutCRLF
 702:.\Generated_Source\PSoC4/UART_1_UART.c ****     ********************************************************************************
 703:.\Generated_Source\PSoC4/UART_1_UART.c ****     *
 704:.\Generated_Source\PSoC4/UART_1_UART.c ****     * Summary:
 705:.\Generated_Source\PSoC4/UART_1_UART.c ****     *  Places a byte of data followed by a carriage return (0x0D) and
 706:.\Generated_Source\PSoC4/UART_1_UART.c ****     *  line feed (0x0A) into the transmit buffer.
 707:.\Generated_Source\PSoC4/UART_1_UART.c ****     *  This function is blocking and waits until there is space available to put
 708:.\Generated_Source\PSoC4/UART_1_UART.c ****     *  all the requested data into the  transmit buffer.
 709:.\Generated_Source\PSoC4/UART_1_UART.c ****     *
 710:.\Generated_Source\PSoC4/UART_1_UART.c ****     * Parameters:
 711:.\Generated_Source\PSoC4/UART_1_UART.c ****     *  txDataByte : the data to be transmitted.
 712:.\Generated_Source\PSoC4/UART_1_UART.c ****     *
 713:.\Generated_Source\PSoC4/UART_1_UART.c ****     * Return:
 714:.\Generated_Source\PSoC4/UART_1_UART.c ****     *  None
 715:.\Generated_Source\PSoC4/UART_1_UART.c ****     *
 716:.\Generated_Source\PSoC4/UART_1_UART.c ****     *******************************************************************************/
 717:.\Generated_Source\PSoC4/UART_1_UART.c ****     void UART_1_UartPutCRLF(uint32 txDataByte)
 718:.\Generated_Source\PSoC4/UART_1_UART.c ****     {
 816              		.loc 1 718 0
 817              		.cfi_startproc
 818              	.LVL44:
 819 0000 08B5     		push	{r3, lr}
 820              		.cfi_def_cfa_offset 8
 821              		.cfi_offset 3, -8
 822              		.cfi_offset 14, -4
 719:.\Generated_Source\PSoC4/UART_1_UART.c ****         UART_1_UartPutChar(txDataByte);  /* Blocks control flow until all data has been sent */
 823              		.loc 1 719 0
 824 0002 FFF7FEFF 		bl	UART_1_SpiUartWriteTxData
 825              	.LVL45:
 720:.\Generated_Source\PSoC4/UART_1_UART.c ****         UART_1_UartPutChar(0x0Du);       /* Blocks control flow until all data has been sent */
 826              		.loc 1 720 0
 827 0006 0D20     		mov	r0, #13
 828 0008 FFF7FEFF 		bl	UART_1_SpiUartWriteTxData
 829              	.LVL46:
 721:.\Generated_Source\PSoC4/UART_1_UART.c ****         UART_1_UartPutChar(0x0Au);       /* Blocks control flow until all data has been sent */
 830              		.loc 1 721 0
 831 000c 0A20     		mov	r0, #10
 832 000e FFF7FEFF 		bl	UART_1_SpiUartWriteTxData
 833              	.LVL47:
 722:.\Generated_Source\PSoC4/UART_1_UART.c ****     }
 834              		.loc 1 722 0
 835              		@ sp needed
 836 0012 08BD     		pop	{r3, pc}
 837              		.cfi_endproc
 838              	.LFE8:
 839              		.size	UART_1_UartPutCRLF, .-UART_1_UartPutCRLF
 840              		.section	.text.UART_1_UartSaveConfig,"ax",%progbits
 841              		.align	2
 842              		.global	UART_1_UartSaveConfig
 843              		.code	16
 844              		.thumb_func
 845              		.type	UART_1_UartSaveConfig, %function
 846              	UART_1_UartSaveConfig:
 847              	.LFB9:
 723:.\Generated_Source\PSoC4/UART_1_UART.c **** 
 724:.\Generated_Source\PSoC4/UART_1_UART.c **** 
 725:.\Generated_Source\PSoC4/UART_1_UART.c ****     #if !(UART_1_CY_SCBIP_V0 || UART_1_CY_SCBIP_V1)
ARM GAS  C:\Users\Marcelo\AppData\Local\Temp\ccivALbz.s 			page 29


 726:.\Generated_Source\PSoC4/UART_1_UART.c ****         /*******************************************************************************
 727:.\Generated_Source\PSoC4/UART_1_UART.c ****         * Function Name: UART_1SCB_UartEnableCts
 728:.\Generated_Source\PSoC4/UART_1_UART.c ****         ********************************************************************************
 729:.\Generated_Source\PSoC4/UART_1_UART.c ****         *
 730:.\Generated_Source\PSoC4/UART_1_UART.c ****         * Summary:
 731:.\Generated_Source\PSoC4/UART_1_UART.c ****         *  Enables usage of CTS input signal by the UART transmitter.
 732:.\Generated_Source\PSoC4/UART_1_UART.c ****         *
 733:.\Generated_Source\PSoC4/UART_1_UART.c ****         * Parameters:
 734:.\Generated_Source\PSoC4/UART_1_UART.c ****         *  None
 735:.\Generated_Source\PSoC4/UART_1_UART.c ****         *
 736:.\Generated_Source\PSoC4/UART_1_UART.c ****         * Return:
 737:.\Generated_Source\PSoC4/UART_1_UART.c ****         *  None
 738:.\Generated_Source\PSoC4/UART_1_UART.c ****         *
 739:.\Generated_Source\PSoC4/UART_1_UART.c ****         *******************************************************************************/
 740:.\Generated_Source\PSoC4/UART_1_UART.c ****         void UART_1_UartEnableCts(void)
 741:.\Generated_Source\PSoC4/UART_1_UART.c ****         {
 742:.\Generated_Source\PSoC4/UART_1_UART.c ****             UART_1_UART_FLOW_CTRL_REG |= (uint32)  UART_1_UART_FLOW_CTRL_CTS_ENABLE;
 743:.\Generated_Source\PSoC4/UART_1_UART.c ****         }
 744:.\Generated_Source\PSoC4/UART_1_UART.c **** 
 745:.\Generated_Source\PSoC4/UART_1_UART.c **** 
 746:.\Generated_Source\PSoC4/UART_1_UART.c ****         /*******************************************************************************
 747:.\Generated_Source\PSoC4/UART_1_UART.c ****         * Function Name: UART_1_UartDisableCts
 748:.\Generated_Source\PSoC4/UART_1_UART.c ****         ********************************************************************************
 749:.\Generated_Source\PSoC4/UART_1_UART.c ****         *
 750:.\Generated_Source\PSoC4/UART_1_UART.c ****         * Summary:
 751:.\Generated_Source\PSoC4/UART_1_UART.c ****         *  Disables usage of CTS input signal by the UART transmitter.
 752:.\Generated_Source\PSoC4/UART_1_UART.c ****         *
 753:.\Generated_Source\PSoC4/UART_1_UART.c ****         * Parameters:
 754:.\Generated_Source\PSoC4/UART_1_UART.c ****         *  None
 755:.\Generated_Source\PSoC4/UART_1_UART.c ****         *
 756:.\Generated_Source\PSoC4/UART_1_UART.c ****         * Return:
 757:.\Generated_Source\PSoC4/UART_1_UART.c ****         *  None
 758:.\Generated_Source\PSoC4/UART_1_UART.c ****         *
 759:.\Generated_Source\PSoC4/UART_1_UART.c ****         *******************************************************************************/
 760:.\Generated_Source\PSoC4/UART_1_UART.c ****         void UART_1_UartDisableCts(void)
 761:.\Generated_Source\PSoC4/UART_1_UART.c ****         {
 762:.\Generated_Source\PSoC4/UART_1_UART.c ****             UART_1_UART_FLOW_CTRL_REG &= (uint32) ~UART_1_UART_FLOW_CTRL_CTS_ENABLE;
 763:.\Generated_Source\PSoC4/UART_1_UART.c ****         }
 764:.\Generated_Source\PSoC4/UART_1_UART.c **** 
 765:.\Generated_Source\PSoC4/UART_1_UART.c **** 
 766:.\Generated_Source\PSoC4/UART_1_UART.c ****         /*******************************************************************************
 767:.\Generated_Source\PSoC4/UART_1_UART.c ****         * Function Name: UART_1_UartSetCtsPolarity
 768:.\Generated_Source\PSoC4/UART_1_UART.c ****         ********************************************************************************
 769:.\Generated_Source\PSoC4/UART_1_UART.c ****         *
 770:.\Generated_Source\PSoC4/UART_1_UART.c ****         * Summary:
 771:.\Generated_Source\PSoC4/UART_1_UART.c ****         *  Sets active polarity of CTS input signal.
 772:.\Generated_Source\PSoC4/UART_1_UART.c ****         *
 773:.\Generated_Source\PSoC4/UART_1_UART.c ****         * Parameters:
 774:.\Generated_Source\PSoC4/UART_1_UART.c ****         *  polarity: Active polarity of CTS output signal.
 775:.\Generated_Source\PSoC4/UART_1_UART.c ****         *   UART_1_UART_CTS_ACTIVE_LOW  - CTS signal is active low.
 776:.\Generated_Source\PSoC4/UART_1_UART.c ****         *   UART_1_UART_CTS_ACTIVE_HIGH - CTS signal is active high.
 777:.\Generated_Source\PSoC4/UART_1_UART.c ****         *
 778:.\Generated_Source\PSoC4/UART_1_UART.c ****         * Return:
 779:.\Generated_Source\PSoC4/UART_1_UART.c ****         *  None
 780:.\Generated_Source\PSoC4/UART_1_UART.c ****         *
 781:.\Generated_Source\PSoC4/UART_1_UART.c ****         *******************************************************************************/
 782:.\Generated_Source\PSoC4/UART_1_UART.c ****         void UART_1_UartSetCtsPolarity(uint32 polarity)
ARM GAS  C:\Users\Marcelo\AppData\Local\Temp\ccivALbz.s 			page 30


 783:.\Generated_Source\PSoC4/UART_1_UART.c ****         {
 784:.\Generated_Source\PSoC4/UART_1_UART.c ****             if (0u != polarity)
 785:.\Generated_Source\PSoC4/UART_1_UART.c ****             {
 786:.\Generated_Source\PSoC4/UART_1_UART.c ****                 UART_1_UART_FLOW_CTRL_REG |= (uint32)  UART_1_UART_FLOW_CTRL_CTS_POLARITY;
 787:.\Generated_Source\PSoC4/UART_1_UART.c ****             }
 788:.\Generated_Source\PSoC4/UART_1_UART.c ****             else
 789:.\Generated_Source\PSoC4/UART_1_UART.c ****             {
 790:.\Generated_Source\PSoC4/UART_1_UART.c ****                 UART_1_UART_FLOW_CTRL_REG &= (uint32) ~UART_1_UART_FLOW_CTRL_CTS_POLARITY;
 791:.\Generated_Source\PSoC4/UART_1_UART.c ****             }
 792:.\Generated_Source\PSoC4/UART_1_UART.c ****         }
 793:.\Generated_Source\PSoC4/UART_1_UART.c ****     #endif /* !(UART_1_CY_SCBIP_V0 || UART_1_CY_SCBIP_V1) */
 794:.\Generated_Source\PSoC4/UART_1_UART.c **** 
 795:.\Generated_Source\PSoC4/UART_1_UART.c **** #endif /* (UART_1_UART_TX_DIRECTION) */
 796:.\Generated_Source\PSoC4/UART_1_UART.c **** 
 797:.\Generated_Source\PSoC4/UART_1_UART.c **** 
 798:.\Generated_Source\PSoC4/UART_1_UART.c **** #if(UART_1_UART_WAKE_ENABLE_CONST)
 799:.\Generated_Source\PSoC4/UART_1_UART.c ****     /*******************************************************************************
 800:.\Generated_Source\PSoC4/UART_1_UART.c ****     * Function Name: UART_1_UartSaveConfig
 801:.\Generated_Source\PSoC4/UART_1_UART.c ****     ********************************************************************************
 802:.\Generated_Source\PSoC4/UART_1_UART.c ****     *
 803:.\Generated_Source\PSoC4/UART_1_UART.c ****     * Summary:
 804:.\Generated_Source\PSoC4/UART_1_UART.c ****     *  Clears and enables interrupt on a falling edge of the Rx input. The GPIO
 805:.\Generated_Source\PSoC4/UART_1_UART.c ****     *  event wakes up the device and SKIP_START feature allows the UART continue
 806:.\Generated_Source\PSoC4/UART_1_UART.c ****     *  receiving data bytes properly. The GPIO interrupt does not track in the
 807:.\Generated_Source\PSoC4/UART_1_UART.c ****     *  active mode therefore requires to be cleared by this API.
 808:.\Generated_Source\PSoC4/UART_1_UART.c ****     *
 809:.\Generated_Source\PSoC4/UART_1_UART.c ****     * Parameters:
 810:.\Generated_Source\PSoC4/UART_1_UART.c ****     *  None
 811:.\Generated_Source\PSoC4/UART_1_UART.c ****     *
 812:.\Generated_Source\PSoC4/UART_1_UART.c ****     * Return:
 813:.\Generated_Source\PSoC4/UART_1_UART.c ****     *  None
 814:.\Generated_Source\PSoC4/UART_1_UART.c ****     *
 815:.\Generated_Source\PSoC4/UART_1_UART.c ****     *******************************************************************************/
 816:.\Generated_Source\PSoC4/UART_1_UART.c ****     void UART_1_UartSaveConfig(void)
 817:.\Generated_Source\PSoC4/UART_1_UART.c ****     {
 848              		.loc 1 817 0
 849              		.cfi_startproc
 818:.\Generated_Source\PSoC4/UART_1_UART.c ****         /* Clear interrupt activity:
 819:.\Generated_Source\PSoC4/UART_1_UART.c ****         *  - set skip start and disable RX. At GPIO wakeup RX will be enabled.
 820:.\Generated_Source\PSoC4/UART_1_UART.c ****         *  - clear rx_wake interrupt source as it triggers during normal operation.
 821:.\Generated_Source\PSoC4/UART_1_UART.c ****         *  - clear wake interrupt pending state as it becomes pending in active mode.
 822:.\Generated_Source\PSoC4/UART_1_UART.c ****         */
 823:.\Generated_Source\PSoC4/UART_1_UART.c **** 
 824:.\Generated_Source\PSoC4/UART_1_UART.c ****         UART_1_UART_RX_CTRL_REG |= UART_1_UART_RX_CTRL_SKIP_START;
 850              		.loc 1 824 0
 851 0000 034B     		ldr	r3, .L80
 852 0002 1968     		ldr	r1, [r3]
 853 0004 8022     		mov	r2, #128
 854 0006 9201     		lsl	r2, r2, #6
 855 0008 0A43     		orr	r2, r1
 856 000a 1A60     		str	r2, [r3]
 825:.\Generated_Source\PSoC4/UART_1_UART.c **** 
 826:.\Generated_Source\PSoC4/UART_1_UART.c ****     #if(UART_1_SCB_MODE_UNCONFIG_CONST_CFG)
 827:.\Generated_Source\PSoC4/UART_1_UART.c ****         #if(UART_1_MOSI_SCL_RX_WAKE_PIN)
 828:.\Generated_Source\PSoC4/UART_1_UART.c ****             (void) UART_1_uart_rx_wake_i2c_scl_spi_mosi_ClearInterrupt();
 829:.\Generated_Source\PSoC4/UART_1_UART.c ****         #endif /* (UART_1_MOSI_SCL_RX_WAKE_PIN) */
 830:.\Generated_Source\PSoC4/UART_1_UART.c ****     #else
ARM GAS  C:\Users\Marcelo\AppData\Local\Temp\ccivALbz.s 			page 31


 831:.\Generated_Source\PSoC4/UART_1_UART.c ****         #if(UART_1_UART_RX_WAKE_PIN)
 832:.\Generated_Source\PSoC4/UART_1_UART.c ****             (void) UART_1_rx_wake_ClearInterrupt();
 833:.\Generated_Source\PSoC4/UART_1_UART.c ****         #endif /* (UART_1_UART_RX_WAKE_PIN) */
 834:.\Generated_Source\PSoC4/UART_1_UART.c ****     #endif /* (UART_1_SCB_MODE_UNCONFIG_CONST_CFG) */
 835:.\Generated_Source\PSoC4/UART_1_UART.c **** 
 836:.\Generated_Source\PSoC4/UART_1_UART.c ****     #if(UART_1_UART_RX_WAKEUP_IRQ)
 837:.\Generated_Source\PSoC4/UART_1_UART.c ****         UART_1_RxWakeClearPendingInt();
 838:.\Generated_Source\PSoC4/UART_1_UART.c ****         UART_1_RxWakeEnableInt();
 839:.\Generated_Source\PSoC4/UART_1_UART.c ****     #endif /* (UART_1_UART_RX_WAKEUP_IRQ) */
 840:.\Generated_Source\PSoC4/UART_1_UART.c ****     }
 857              		.loc 1 840 0
 858              		@ sp needed
 859 000c 7047     		bx	lr
 860              	.L81:
 861 000e C046     		.align	2
 862              	.L80:
 863 0010 48000740 		.word	1074200648
 864              		.cfi_endproc
 865              	.LFE9:
 866              		.size	UART_1_UartSaveConfig, .-UART_1_UartSaveConfig
 867              		.section	.text.UART_1_UartRestoreConfig,"ax",%progbits
 868              		.align	2
 869              		.global	UART_1_UartRestoreConfig
 870              		.code	16
 871              		.thumb_func
 872              		.type	UART_1_UartRestoreConfig, %function
 873              	UART_1_UartRestoreConfig:
 874              	.LFB10:
 841:.\Generated_Source\PSoC4/UART_1_UART.c **** 
 842:.\Generated_Source\PSoC4/UART_1_UART.c **** 
 843:.\Generated_Source\PSoC4/UART_1_UART.c ****     /*******************************************************************************
 844:.\Generated_Source\PSoC4/UART_1_UART.c ****     * Function Name: UART_1_UartRestoreConfig
 845:.\Generated_Source\PSoC4/UART_1_UART.c ****     ********************************************************************************
 846:.\Generated_Source\PSoC4/UART_1_UART.c ****     *
 847:.\Generated_Source\PSoC4/UART_1_UART.c ****     * Summary:
 848:.\Generated_Source\PSoC4/UART_1_UART.c ****     *  Disables the RX GPIO interrupt. Until this function is called the interrupt
 849:.\Generated_Source\PSoC4/UART_1_UART.c ****     *  remains active and triggers on every falling edge of the UART RX line.
 850:.\Generated_Source\PSoC4/UART_1_UART.c ****     *
 851:.\Generated_Source\PSoC4/UART_1_UART.c ****     * Parameters:
 852:.\Generated_Source\PSoC4/UART_1_UART.c ****     *  None
 853:.\Generated_Source\PSoC4/UART_1_UART.c ****     *
 854:.\Generated_Source\PSoC4/UART_1_UART.c ****     * Return:
 855:.\Generated_Source\PSoC4/UART_1_UART.c ****     *  None
 856:.\Generated_Source\PSoC4/UART_1_UART.c ****     *
 857:.\Generated_Source\PSoC4/UART_1_UART.c ****     *******************************************************************************/
 858:.\Generated_Source\PSoC4/UART_1_UART.c ****     void UART_1_UartRestoreConfig(void)
 859:.\Generated_Source\PSoC4/UART_1_UART.c ****     {
 875              		.loc 1 859 0
 876              		.cfi_startproc
 860:.\Generated_Source\PSoC4/UART_1_UART.c ****     /* Disable RX GPIO interrupt: no more triggers in active mode */
 861:.\Generated_Source\PSoC4/UART_1_UART.c ****     #if(UART_1_UART_RX_WAKEUP_IRQ)
 862:.\Generated_Source\PSoC4/UART_1_UART.c ****         UART_1_RxWakeDisableInt();
 863:.\Generated_Source\PSoC4/UART_1_UART.c ****     #endif /* (UART_1_UART_RX_WAKEUP_IRQ) */
 864:.\Generated_Source\PSoC4/UART_1_UART.c ****     }
 877              		.loc 1 864 0
 878              		@ sp needed
 879 0000 7047     		bx	lr
ARM GAS  C:\Users\Marcelo\AppData\Local\Temp\ccivALbz.s 			page 32


 880              		.cfi_endproc
 881              	.LFE10:
 882              		.size	UART_1_UartRestoreConfig, .-UART_1_UartRestoreConfig
 883              		.global	UART_1_configUart
 884 0002 C046     		.section	.rodata
 885              		.align	2
 886              		.type	UART_1_configUart, %object
 887              		.size	UART_1_configUart, 112
 888              	UART_1_configUart:
 889 0000 00000000 		.word	0
 890 0004 03000000 		.word	3
 891 0008 08000000 		.word	8
 892 000c 02000000 		.word	2
 893 0010 02000000 		.word	2
 894 0014 0C000000 		.word	12
 895 0018 00000000 		.word	0
 896 001c 00000000 		.word	0
 897 0020 00000000 		.word	0
 898 0024 00000000 		.word	0
 899 0028 00000000 		.word	0
 900 002c 00000000 		.word	0
 901 0030 00000000 		.word	0
 902 0034 00000000 		.word	0
 903 0038 00000000 		.word	0
 904 003c 00000000 		.word	0
 905 0040 00000000 		.word	0
 906 0044 00000000 		.word	0
 907 0048 00000000 		.word	0
 908 004c 02000000 		.word	2
 909 0050 FF000000 		.word	255
 910 0054 01000000 		.word	1
 911 0058 00000000 		.word	0
 912 005c 07000000 		.word	7
 913 0060 00000000 		.word	0
 914 0064 00000000 		.word	0
 915 0068 00       		.byte	0
 916 0069 00       		.byte	0
 917 006a 00       		.byte	0
 918 006b 00       		.byte	0
 919 006c 04       		.byte	4
 920 006d 000000   		.space	3
 921              		.text
 922              	.Letext0:
 923              		.file 2 "Generated_Source\\PSoC4/cytypes.h"
 924              		.file 3 ".\\Generated_Source\\PSoC4\\UART_1_SPI_UART.h"
 925              		.file 4 ".\\Generated_Source\\PSoC4\\UART_1_PVT.h"
 926              		.file 5 ".\\Generated_Source\\PSoC4\\UART_1_SPI_UART_PVT.h"
 927              		.file 6 "Generated_Source\\PSoC4/CyLib.h"