ARM GAS  C:\Users\Marcelo\AppData\Local\Temp\ccX2zZUc.s 			page 1


   1              		.cpu cortex-m0
   2              		.fpu softvfp
   3              		.eabi_attribute 20, 1
   4              		.eabi_attribute 21, 1
   5              		.eabi_attribute 23, 3
   6              		.eabi_attribute 24, 1
   7              		.eabi_attribute 25, 1
   8              		.eabi_attribute 26, 1
   9              		.eabi_attribute 30, 1
  10              		.eabi_attribute 34, 0
  11              		.eabi_attribute 18, 4
  12              		.code	16
  13              		.file	"UART_1_I2C_SLAVE.c"
  14              		.text
  15              	.Ltext0:
  16              		.cfi_sections	.debug_frame
  17              		.section	.text.UART_1_SetI2cAddressCustomInterruptHandler,"ax",%progbits
  18              		.align	2
  19              		.global	UART_1_SetI2cAddressCustomInterruptHandler
  20              		.code	16
  21              		.thumb_func
  22              		.type	UART_1_SetI2cAddressCustomInterruptHandler, %function
  23              	UART_1_SetI2cAddressCustomInterruptHandler:
  24              	.LFB0:
  25              		.file 1 ".\\Generated_Source\\PSoC4\\UART_1_I2C_SLAVE.c"
   1:.\Generated_Source\PSoC4/UART_1_I2C_SLAVE.c **** /*******************************************************************************
   2:.\Generated_Source\PSoC4/UART_1_I2C_SLAVE.c **** * File Name: UART_1_I2C_SLAVE.c
   3:.\Generated_Source\PSoC4/UART_1_I2C_SLAVE.c **** * Version 3.0
   4:.\Generated_Source\PSoC4/UART_1_I2C_SLAVE.c **** *
   5:.\Generated_Source\PSoC4/UART_1_I2C_SLAVE.c **** * Description:
   6:.\Generated_Source\PSoC4/UART_1_I2C_SLAVE.c **** *  This file provides the source code to the API for the SCB Component in
   7:.\Generated_Source\PSoC4/UART_1_I2C_SLAVE.c **** *  I2C Slave mode.
   8:.\Generated_Source\PSoC4/UART_1_I2C_SLAVE.c **** *
   9:.\Generated_Source\PSoC4/UART_1_I2C_SLAVE.c **** * Note:
  10:.\Generated_Source\PSoC4/UART_1_I2C_SLAVE.c **** *
  11:.\Generated_Source\PSoC4/UART_1_I2C_SLAVE.c **** *******************************************************************************
  12:.\Generated_Source\PSoC4/UART_1_I2C_SLAVE.c **** * Copyright 2013-2015, Cypress Semiconductor Corporation.  All rights reserved.
  13:.\Generated_Source\PSoC4/UART_1_I2C_SLAVE.c **** * You may use this file only in accordance with the license, terms, conditions,
  14:.\Generated_Source\PSoC4/UART_1_I2C_SLAVE.c **** * disclaimers, and limitations in the end user license agreement accompanying
  15:.\Generated_Source\PSoC4/UART_1_I2C_SLAVE.c **** * the software package with which this file was provided.
  16:.\Generated_Source\PSoC4/UART_1_I2C_SLAVE.c **** *******************************************************************************/
  17:.\Generated_Source\PSoC4/UART_1_I2C_SLAVE.c **** 
  18:.\Generated_Source\PSoC4/UART_1_I2C_SLAVE.c **** #include "UART_1_I2C_PVT.h"
  19:.\Generated_Source\PSoC4/UART_1_I2C_SLAVE.c **** 
  20:.\Generated_Source\PSoC4/UART_1_I2C_SLAVE.c **** #if(UART_1_I2C_SLAVE_CONST)
  21:.\Generated_Source\PSoC4/UART_1_I2C_SLAVE.c **** 
  22:.\Generated_Source\PSoC4/UART_1_I2C_SLAVE.c **** /***************************************
  23:.\Generated_Source\PSoC4/UART_1_I2C_SLAVE.c **** *      I2C Slave Private Vars
  24:.\Generated_Source\PSoC4/UART_1_I2C_SLAVE.c **** ***************************************/
  25:.\Generated_Source\PSoC4/UART_1_I2C_SLAVE.c **** 
  26:.\Generated_Source\PSoC4/UART_1_I2C_SLAVE.c **** volatile uint8 UART_1_slStatus;          /* Slave Status */
  27:.\Generated_Source\PSoC4/UART_1_I2C_SLAVE.c **** 
  28:.\Generated_Source\PSoC4/UART_1_I2C_SLAVE.c **** /* Receive buffer variables */
  29:.\Generated_Source\PSoC4/UART_1_I2C_SLAVE.c **** volatile uint8 * UART_1_slWrBufPtr;      /* Pointer to Receive buffer  */
  30:.\Generated_Source\PSoC4/UART_1_I2C_SLAVE.c **** volatile uint32  UART_1_slWrBufSize;     /* Slave Receive buffer size  */
  31:.\Generated_Source\PSoC4/UART_1_I2C_SLAVE.c **** volatile uint32  UART_1_slWrBufIndex;    /* Slave Receive buffer Index */
  32:.\Generated_Source\PSoC4/UART_1_I2C_SLAVE.c **** 
ARM GAS  C:\Users\Marcelo\AppData\Local\Temp\ccX2zZUc.s 			page 2


  33:.\Generated_Source\PSoC4/UART_1_I2C_SLAVE.c **** /* Transmit buffer variables */
  34:.\Generated_Source\PSoC4/UART_1_I2C_SLAVE.c **** volatile uint8 * UART_1_slRdBufPtr;      /* Pointer to Transmit buffer  */
  35:.\Generated_Source\PSoC4/UART_1_I2C_SLAVE.c **** volatile uint32  UART_1_slRdBufSize;     /* Slave Transmit buffer size  */
  36:.\Generated_Source\PSoC4/UART_1_I2C_SLAVE.c **** volatile uint32  UART_1_slRdBufIndex;    /* Slave Transmit buffer Index */
  37:.\Generated_Source\PSoC4/UART_1_I2C_SLAVE.c **** volatile uint32  UART_1_slRdBufIndexTmp; /* Slave Transmit buffer Index Tmp */
  38:.\Generated_Source\PSoC4/UART_1_I2C_SLAVE.c **** volatile uint8   UART_1_slOverFlowCount; /* Slave Transmit Overflow counter */
  39:.\Generated_Source\PSoC4/UART_1_I2C_SLAVE.c **** 
  40:.\Generated_Source\PSoC4/UART_1_I2C_SLAVE.c **** #if (UART_1_I2C_CUSTOM_ADDRESS_HANDLER_CONST)
  41:.\Generated_Source\PSoC4/UART_1_I2C_SLAVE.c **** 
  42:.\Generated_Source\PSoC4/UART_1_I2C_SLAVE.c ****     uint32 (*UART_1_customAddressHandler)(void) = NULL;
  43:.\Generated_Source\PSoC4/UART_1_I2C_SLAVE.c **** 
  44:.\Generated_Source\PSoC4/UART_1_I2C_SLAVE.c **** 
  45:.\Generated_Source\PSoC4/UART_1_I2C_SLAVE.c ****     /*******************************************************************************
  46:.\Generated_Source\PSoC4/UART_1_I2C_SLAVE.c ****     * Function Name: UART_1_SetI2cAddressCustomInterruptHandler
  47:.\Generated_Source\PSoC4/UART_1_I2C_SLAVE.c ****     ********************************************************************************
  48:.\Generated_Source\PSoC4/UART_1_I2C_SLAVE.c ****     *
  49:.\Generated_Source\PSoC4/UART_1_I2C_SLAVE.c ****     * Summary:
  50:.\Generated_Source\PSoC4/UART_1_I2C_SLAVE.c ****     *  Registers a function to be called by the I2C slave interrupt handler during
  51:.\Generated_Source\PSoC4/UART_1_I2C_SLAVE.c ****     *  the I2C interrupt address processing. This function should be used when
  52:.\Generated_Source\PSoC4/UART_1_I2C_SLAVE.c ****     *  multiple I2C addresses need to be decoded or general call address supported.
  53:.\Generated_Source\PSoC4/UART_1_I2C_SLAVE.c ****     *  The registered function must return decision whether to ACK or NACK address.
  54:.\Generated_Source\PSoC4/UART_1_I2C_SLAVE.c ****     *  Only one I2C address handler is supported, which is the function provided
  55:.\Generated_Source\PSoC4/UART_1_I2C_SLAVE.c ****     *  by the most recent call.
  56:.\Generated_Source\PSoC4/UART_1_I2C_SLAVE.c ****     *  At initialization time no I2C address handler is registered.
  57:.\Generated_Source\PSoC4/UART_1_I2C_SLAVE.c ****     *
  58:.\Generated_Source\PSoC4/UART_1_I2C_SLAVE.c ****     * Parameters:
  59:.\Generated_Source\PSoC4/UART_1_I2C_SLAVE.c ****     *  func: Pointer to the function to register.
  60:.\Generated_Source\PSoC4/UART_1_I2C_SLAVE.c ****     *        The value NULL indicates to remove the current custom interrupt
  61:.\Generated_Source\PSoC4/UART_1_I2C_SLAVE.c ****     *        handler.
  62:.\Generated_Source\PSoC4/UART_1_I2C_SLAVE.c ****     *
  63:.\Generated_Source\PSoC4/UART_1_I2C_SLAVE.c ****     * Return:
  64:.\Generated_Source\PSoC4/UART_1_I2C_SLAVE.c ****     *  None
  65:.\Generated_Source\PSoC4/UART_1_I2C_SLAVE.c ****     *
  66:.\Generated_Source\PSoC4/UART_1_I2C_SLAVE.c ****     *******************************************************************************/
  67:.\Generated_Source\PSoC4/UART_1_I2C_SLAVE.c ****     void UART_1_SetI2cAddressCustomInterruptHandler(uint32 (*func) (void))
  68:.\Generated_Source\PSoC4/UART_1_I2C_SLAVE.c ****     {
  26              		.loc 1 68 0
  27              		.cfi_startproc
  28              	.LVL0:
  69:.\Generated_Source\PSoC4/UART_1_I2C_SLAVE.c ****         /* Register custom address handler */
  70:.\Generated_Source\PSoC4/UART_1_I2C_SLAVE.c ****         UART_1_customAddressHandler = func;
  29              		.loc 1 70 0
  30 0000 014B     		ldr	r3, .L2
  31 0002 1860     		str	r0, [r3]
  71:.\Generated_Source\PSoC4/UART_1_I2C_SLAVE.c ****     }
  32              		.loc 1 71 0
  33              		@ sp needed
  34 0004 7047     		bx	lr
  35              	.L3:
  36 0006 C046     		.align	2
  37              	.L2:
  38 0008 00000000 		.word	.LANCHOR0
  39              		.cfi_endproc
  40              	.LFE0:
  41              		.size	UART_1_SetI2cAddressCustomInterruptHandler, .-UART_1_SetI2cAddressCustomInterruptHandler
  42              		.section	.text.UART_1_I2CSlaveStatus,"ax",%progbits
  43              		.align	2
ARM GAS  C:\Users\Marcelo\AppData\Local\Temp\ccX2zZUc.s 			page 3


  44              		.global	UART_1_I2CSlaveStatus
  45              		.code	16
  46              		.thumb_func
  47              		.type	UART_1_I2CSlaveStatus, %function
  48              	UART_1_I2CSlaveStatus:
  49              	.LFB1:
  72:.\Generated_Source\PSoC4/UART_1_I2C_SLAVE.c **** #endif /* (UART_1_I2C_CUSTOM_ADDRESS_HANDLER_CONST) */
  73:.\Generated_Source\PSoC4/UART_1_I2C_SLAVE.c **** 
  74:.\Generated_Source\PSoC4/UART_1_I2C_SLAVE.c **** 
  75:.\Generated_Source\PSoC4/UART_1_I2C_SLAVE.c **** /*******************************************************************************
  76:.\Generated_Source\PSoC4/UART_1_I2C_SLAVE.c **** * Function Name: UART_1_I2CSlaveStatus
  77:.\Generated_Source\PSoC4/UART_1_I2C_SLAVE.c **** ********************************************************************************
  78:.\Generated_Source\PSoC4/UART_1_I2C_SLAVE.c **** *
  79:.\Generated_Source\PSoC4/UART_1_I2C_SLAVE.c **** * Summary:
  80:.\Generated_Source\PSoC4/UART_1_I2C_SLAVE.c **** *  Returns the I2C slave's communication status.
  81:.\Generated_Source\PSoC4/UART_1_I2C_SLAVE.c **** *
  82:.\Generated_Source\PSoC4/UART_1_I2C_SLAVE.c **** * Parameters:
  83:.\Generated_Source\PSoC4/UART_1_I2C_SLAVE.c **** *  None
  84:.\Generated_Source\PSoC4/UART_1_I2C_SLAVE.c **** *
  85:.\Generated_Source\PSoC4/UART_1_I2C_SLAVE.c **** * Return:
  86:.\Generated_Source\PSoC4/UART_1_I2C_SLAVE.c **** *  Current status of I2C slave.
  87:.\Generated_Source\PSoC4/UART_1_I2C_SLAVE.c **** *
  88:.\Generated_Source\PSoC4/UART_1_I2C_SLAVE.c **** * Global variables:
  89:.\Generated_Source\PSoC4/UART_1_I2C_SLAVE.c **** *  UART_1_slStatus - used to store current status of I2C slave.
  90:.\Generated_Source\PSoC4/UART_1_I2C_SLAVE.c **** *
  91:.\Generated_Source\PSoC4/UART_1_I2C_SLAVE.c **** *******************************************************************************/
  92:.\Generated_Source\PSoC4/UART_1_I2C_SLAVE.c **** uint32 UART_1_I2CSlaveStatus(void)
  93:.\Generated_Source\PSoC4/UART_1_I2C_SLAVE.c **** {
  50              		.loc 1 93 0
  51              		.cfi_startproc
  94:.\Generated_Source\PSoC4/UART_1_I2C_SLAVE.c ****     return((uint32) UART_1_slStatus);
  52              		.loc 1 94 0
  53 0000 014B     		ldr	r3, .L5
  54 0002 1878     		ldrb	r0, [r3]
  55 0004 C0B2     		uxtb	r0, r0
  95:.\Generated_Source\PSoC4/UART_1_I2C_SLAVE.c **** }
  56              		.loc 1 95 0
  57              		@ sp needed
  58 0006 7047     		bx	lr
  59              	.L6:
  60              		.align	2
  61              	.L5:
  62 0008 00000000 		.word	UART_1_slStatus
  63              		.cfi_endproc
  64              	.LFE1:
  65              		.size	UART_1_I2CSlaveStatus, .-UART_1_I2CSlaveStatus
  66              		.section	.text.UART_1_I2CSlaveClearReadStatus,"ax",%progbits
  67              		.align	2
  68              		.global	UART_1_I2CSlaveClearReadStatus
  69              		.code	16
  70              		.thumb_func
  71              		.type	UART_1_I2CSlaveClearReadStatus, %function
  72              	UART_1_I2CSlaveClearReadStatus:
  73              	.LFB2:
  96:.\Generated_Source\PSoC4/UART_1_I2C_SLAVE.c **** 
  97:.\Generated_Source\PSoC4/UART_1_I2C_SLAVE.c **** 
  98:.\Generated_Source\PSoC4/UART_1_I2C_SLAVE.c **** /*******************************************************************************
ARM GAS  C:\Users\Marcelo\AppData\Local\Temp\ccX2zZUc.s 			page 4


  99:.\Generated_Source\PSoC4/UART_1_I2C_SLAVE.c **** * Function Name: UART_1_I2CSlaveClearReadStatus
 100:.\Generated_Source\PSoC4/UART_1_I2C_SLAVE.c **** ********************************************************************************
 101:.\Generated_Source\PSoC4/UART_1_I2C_SLAVE.c **** *
 102:.\Generated_Source\PSoC4/UART_1_I2C_SLAVE.c **** * Summary:
 103:.\Generated_Source\PSoC4/UART_1_I2C_SLAVE.c **** *  Clears the read status flags and returns their values. No other status flags
 104:.\Generated_Source\PSoC4/UART_1_I2C_SLAVE.c **** *  are affected.
 105:.\Generated_Source\PSoC4/UART_1_I2C_SLAVE.c **** *
 106:.\Generated_Source\PSoC4/UART_1_I2C_SLAVE.c **** * Parameters:
 107:.\Generated_Source\PSoC4/UART_1_I2C_SLAVE.c **** *  None
 108:.\Generated_Source\PSoC4/UART_1_I2C_SLAVE.c **** *
 109:.\Generated_Source\PSoC4/UART_1_I2C_SLAVE.c **** * Return:
 110:.\Generated_Source\PSoC4/UART_1_I2C_SLAVE.c **** *  Current read status of I2C slave.
 111:.\Generated_Source\PSoC4/UART_1_I2C_SLAVE.c **** *
 112:.\Generated_Source\PSoC4/UART_1_I2C_SLAVE.c **** * Global variables:
 113:.\Generated_Source\PSoC4/UART_1_I2C_SLAVE.c **** *  UART_1_slStatus  - used to store current status of I2C slave.
 114:.\Generated_Source\PSoC4/UART_1_I2C_SLAVE.c **** *
 115:.\Generated_Source\PSoC4/UART_1_I2C_SLAVE.c **** *******************************************************************************/
 116:.\Generated_Source\PSoC4/UART_1_I2C_SLAVE.c **** uint32 UART_1_I2CSlaveClearReadStatus(void)
 117:.\Generated_Source\PSoC4/UART_1_I2C_SLAVE.c **** {
  74              		.loc 1 117 0
  75              		.cfi_startproc
  76 0000 10B5     		push	{r4, lr}
  77              		.cfi_def_cfa_offset 8
  78              		.cfi_offset 4, -8
  79              		.cfi_offset 14, -4
 118:.\Generated_Source\PSoC4/UART_1_I2C_SLAVE.c ****     uint32 status;
 119:.\Generated_Source\PSoC4/UART_1_I2C_SLAVE.c **** 
 120:.\Generated_Source\PSoC4/UART_1_I2C_SLAVE.c ****     UART_1_DisableInt();  /* Lock from interruption */
  80              		.loc 1 120 0
  81 0002 0B20     		mov	r0, #11
  82 0004 FFF7FEFF 		bl	CyIntDisable
  83              	.LVL1:
 121:.\Generated_Source\PSoC4/UART_1_I2C_SLAVE.c **** 
 122:.\Generated_Source\PSoC4/UART_1_I2C_SLAVE.c ****     /* Mask of transfer complete flag and error status */
 123:.\Generated_Source\PSoC4/UART_1_I2C_SLAVE.c ****     status = ((uint32) UART_1_slStatus & UART_1_I2C_SSTAT_RD_MASK);
  84              		.loc 1 123 0
  85 0008 064B     		ldr	r3, .L8
  86 000a 1C78     		ldrb	r4, [r3]
  87 000c 0F22     		mov	r2, #15
  88 000e 1440     		and	r4, r2
  89              	.LVL2:
 124:.\Generated_Source\PSoC4/UART_1_I2C_SLAVE.c ****     UART_1_slStatus &= (uint8) ~UART_1_I2C_SSTAT_RD_CLEAR;
  90              		.loc 1 124 0
  91 0010 1A78     		ldrb	r2, [r3]
  92 0012 0D21     		mov	r1, #13
  93 0014 8A43     		bic	r2, r1
  94 0016 1A70     		strb	r2, [r3]
 125:.\Generated_Source\PSoC4/UART_1_I2C_SLAVE.c **** 
 126:.\Generated_Source\PSoC4/UART_1_I2C_SLAVE.c ****     UART_1_EnableInt();   /* Release lock */
  95              		.loc 1 126 0
  96 0018 0B20     		mov	r0, #11
  97 001a FFF7FEFF 		bl	CyIntEnable
  98              	.LVL3:
 127:.\Generated_Source\PSoC4/UART_1_I2C_SLAVE.c **** 
 128:.\Generated_Source\PSoC4/UART_1_I2C_SLAVE.c ****     return(status);
 129:.\Generated_Source\PSoC4/UART_1_I2C_SLAVE.c **** }
  99              		.loc 1 129 0
ARM GAS  C:\Users\Marcelo\AppData\Local\Temp\ccX2zZUc.s 			page 5


 100 001e 201C     		mov	r0, r4
 101              		@ sp needed
 102              	.LVL4:
 103 0020 10BD     		pop	{r4, pc}
 104              	.L9:
 105 0022 C046     		.align	2
 106              	.L8:
 107 0024 00000000 		.word	UART_1_slStatus
 108              		.cfi_endproc
 109              	.LFE2:
 110              		.size	UART_1_I2CSlaveClearReadStatus, .-UART_1_I2CSlaveClearReadStatus
 111              		.section	.text.UART_1_I2CSlaveClearWriteStatus,"ax",%progbits
 112              		.align	2
 113              		.global	UART_1_I2CSlaveClearWriteStatus
 114              		.code	16
 115              		.thumb_func
 116              		.type	UART_1_I2CSlaveClearWriteStatus, %function
 117              	UART_1_I2CSlaveClearWriteStatus:
 118              	.LFB3:
 130:.\Generated_Source\PSoC4/UART_1_I2C_SLAVE.c **** 
 131:.\Generated_Source\PSoC4/UART_1_I2C_SLAVE.c **** 
 132:.\Generated_Source\PSoC4/UART_1_I2C_SLAVE.c **** /*******************************************************************************
 133:.\Generated_Source\PSoC4/UART_1_I2C_SLAVE.c **** * Function Name: UART_1_I2CSlaveClearWriteStatus
 134:.\Generated_Source\PSoC4/UART_1_I2C_SLAVE.c **** ********************************************************************************
 135:.\Generated_Source\PSoC4/UART_1_I2C_SLAVE.c **** *
 136:.\Generated_Source\PSoC4/UART_1_I2C_SLAVE.c **** * Summary:
 137:.\Generated_Source\PSoC4/UART_1_I2C_SLAVE.c **** *  Clears the write status flags and returns their values. No other status flags
 138:.\Generated_Source\PSoC4/UART_1_I2C_SLAVE.c **** *  are affected.
 139:.\Generated_Source\PSoC4/UART_1_I2C_SLAVE.c **** *
 140:.\Generated_Source\PSoC4/UART_1_I2C_SLAVE.c **** * Parameters:
 141:.\Generated_Source\PSoC4/UART_1_I2C_SLAVE.c **** *  None
 142:.\Generated_Source\PSoC4/UART_1_I2C_SLAVE.c **** *
 143:.\Generated_Source\PSoC4/UART_1_I2C_SLAVE.c **** * Return:
 144:.\Generated_Source\PSoC4/UART_1_I2C_SLAVE.c **** *  Current write status of I2C slave.
 145:.\Generated_Source\PSoC4/UART_1_I2C_SLAVE.c **** *
 146:.\Generated_Source\PSoC4/UART_1_I2C_SLAVE.c **** * Global variables:
 147:.\Generated_Source\PSoC4/UART_1_I2C_SLAVE.c **** *  UART_1_slStatus  - used to store current status of I2C slave.
 148:.\Generated_Source\PSoC4/UART_1_I2C_SLAVE.c **** *
 149:.\Generated_Source\PSoC4/UART_1_I2C_SLAVE.c **** *******************************************************************************/
 150:.\Generated_Source\PSoC4/UART_1_I2C_SLAVE.c **** uint32 UART_1_I2CSlaveClearWriteStatus(void)
 151:.\Generated_Source\PSoC4/UART_1_I2C_SLAVE.c **** {
 119              		.loc 1 151 0
 120              		.cfi_startproc
 121 0000 10B5     		push	{r4, lr}
 122              		.cfi_def_cfa_offset 8
 123              		.cfi_offset 4, -8
 124              		.cfi_offset 14, -4
 152:.\Generated_Source\PSoC4/UART_1_I2C_SLAVE.c ****     uint32 status;
 153:.\Generated_Source\PSoC4/UART_1_I2C_SLAVE.c **** 
 154:.\Generated_Source\PSoC4/UART_1_I2C_SLAVE.c ****     UART_1_DisableInt();  /* Lock from interruption */
 125              		.loc 1 154 0
 126 0002 0B20     		mov	r0, #11
 127 0004 FFF7FEFF 		bl	CyIntDisable
 128              	.LVL5:
 155:.\Generated_Source\PSoC4/UART_1_I2C_SLAVE.c **** 
 156:.\Generated_Source\PSoC4/UART_1_I2C_SLAVE.c ****     /* Mask of transfer complete flag and Error status */
 157:.\Generated_Source\PSoC4/UART_1_I2C_SLAVE.c ****     status = ((uint32) UART_1_slStatus & UART_1_I2C_SSTAT_WR_MASK);
ARM GAS  C:\Users\Marcelo\AppData\Local\Temp\ccX2zZUc.s 			page 6


 129              		.loc 1 157 0
 130 0008 064B     		ldr	r3, .L11
 131 000a 1C78     		ldrb	r4, [r3]
 132 000c 0F22     		mov	r2, #15
 133 000e 9443     		bic	r4, r2
 134              	.LVL6:
 158:.\Generated_Source\PSoC4/UART_1_I2C_SLAVE.c ****     UART_1_slStatus &= (uint8) ~UART_1_I2C_SSTAT_WR_CLEAR;
 135              		.loc 1 158 0
 136 0010 1978     		ldrb	r1, [r3]
 137 0012 2F22     		mov	r2, #47
 138 0014 0A40     		and	r2, r1
 139 0016 1A70     		strb	r2, [r3]
 159:.\Generated_Source\PSoC4/UART_1_I2C_SLAVE.c **** 
 160:.\Generated_Source\PSoC4/UART_1_I2C_SLAVE.c ****     UART_1_EnableInt();   /* Release lock */
 140              		.loc 1 160 0
 141 0018 0B20     		mov	r0, #11
 142 001a FFF7FEFF 		bl	CyIntEnable
 143              	.LVL7:
 161:.\Generated_Source\PSoC4/UART_1_I2C_SLAVE.c **** 
 162:.\Generated_Source\PSoC4/UART_1_I2C_SLAVE.c ****     return(status);
 163:.\Generated_Source\PSoC4/UART_1_I2C_SLAVE.c **** }
 144              		.loc 1 163 0
 145 001e 201C     		mov	r0, r4
 146              		@ sp needed
 147              	.LVL8:
 148 0020 10BD     		pop	{r4, pc}
 149              	.L12:
 150 0022 C046     		.align	2
 151              	.L11:
 152 0024 00000000 		.word	UART_1_slStatus
 153              		.cfi_endproc
 154              	.LFE3:
 155              		.size	UART_1_I2CSlaveClearWriteStatus, .-UART_1_I2CSlaveClearWriteStatus
 156              		.section	.text.UART_1_I2CSlaveSetAddress,"ax",%progbits
 157              		.align	2
 158              		.global	UART_1_I2CSlaveSetAddress
 159              		.code	16
 160              		.thumb_func
 161              		.type	UART_1_I2CSlaveSetAddress, %function
 162              	UART_1_I2CSlaveSetAddress:
 163              	.LFB4:
 164:.\Generated_Source\PSoC4/UART_1_I2C_SLAVE.c **** 
 165:.\Generated_Source\PSoC4/UART_1_I2C_SLAVE.c **** 
 166:.\Generated_Source\PSoC4/UART_1_I2C_SLAVE.c **** /*******************************************************************************
 167:.\Generated_Source\PSoC4/UART_1_I2C_SLAVE.c **** * Function Name: UART_1_I2CSlaveSetAddress
 168:.\Generated_Source\PSoC4/UART_1_I2C_SLAVE.c **** ********************************************************************************
 169:.\Generated_Source\PSoC4/UART_1_I2C_SLAVE.c **** *
 170:.\Generated_Source\PSoC4/UART_1_I2C_SLAVE.c **** * Summary:
 171:.\Generated_Source\PSoC4/UART_1_I2C_SLAVE.c **** *  Sets the I2C slave address.
 172:.\Generated_Source\PSoC4/UART_1_I2C_SLAVE.c **** *
 173:.\Generated_Source\PSoC4/UART_1_I2C_SLAVE.c **** * Parameters:
 174:.\Generated_Source\PSoC4/UART_1_I2C_SLAVE.c **** *  address: I2C slave address for the primary device. This value may be any
 175:.\Generated_Source\PSoC4/UART_1_I2C_SLAVE.c **** *  address between 0 and 127.
 176:.\Generated_Source\PSoC4/UART_1_I2C_SLAVE.c **** *
 177:.\Generated_Source\PSoC4/UART_1_I2C_SLAVE.c **** * Return:
 178:.\Generated_Source\PSoC4/UART_1_I2C_SLAVE.c **** *  None
 179:.\Generated_Source\PSoC4/UART_1_I2C_SLAVE.c **** *
ARM GAS  C:\Users\Marcelo\AppData\Local\Temp\ccX2zZUc.s 			page 7


 180:.\Generated_Source\PSoC4/UART_1_I2C_SLAVE.c **** *******************************************************************************/
 181:.\Generated_Source\PSoC4/UART_1_I2C_SLAVE.c **** void UART_1_I2CSlaveSetAddress(uint32 address)
 182:.\Generated_Source\PSoC4/UART_1_I2C_SLAVE.c **** {
 164              		.loc 1 182 0
 165              		.cfi_startproc
 166              	.LVL9:
 183:.\Generated_Source\PSoC4/UART_1_I2C_SLAVE.c ****     uint32 matchReg;
 184:.\Generated_Source\PSoC4/UART_1_I2C_SLAVE.c **** 
 185:.\Generated_Source\PSoC4/UART_1_I2C_SLAVE.c ****     matchReg = UART_1_RX_MATCH_REG;
 167              		.loc 1 185 0
 168 0000 044B     		ldr	r3, .L14
 169 0002 1968     		ldr	r1, [r3]
 170              	.LVL10:
 186:.\Generated_Source\PSoC4/UART_1_I2C_SLAVE.c **** 
 187:.\Generated_Source\PSoC4/UART_1_I2C_SLAVE.c ****     matchReg &= ((uint32) ~UART_1_RX_MATCH_ADDR_MASK); /* Clear address bits */
 171              		.loc 1 187 0
 172 0004 FF22     		mov	r2, #255
 173 0006 9143     		bic	r1, r2
 174              	.LVL11:
 188:.\Generated_Source\PSoC4/UART_1_I2C_SLAVE.c ****     matchReg |= ((uint32)  UART_1_GET_I2C_8BIT_ADDRESS(address));
 175              		.loc 1 188 0
 176 0008 4000     		lsl	r0, r0, #1
 177              	.LVL12:
 178 000a 0240     		and	r2, r0
 179 000c 0A43     		orr	r2, r1
 180              	.LVL13:
 189:.\Generated_Source\PSoC4/UART_1_I2C_SLAVE.c **** 
 190:.\Generated_Source\PSoC4/UART_1_I2C_SLAVE.c ****     UART_1_RX_MATCH_REG = matchReg;
 181              		.loc 1 190 0
 182 000e 1A60     		str	r2, [r3]
 191:.\Generated_Source\PSoC4/UART_1_I2C_SLAVE.c **** }
 183              		.loc 1 191 0
 184              		@ sp needed
 185 0010 7047     		bx	lr
 186              	.L15:
 187 0012 C046     		.align	2
 188              	.L14:
 189 0014 10030740 		.word	1074201360
 190              		.cfi_endproc
 191              	.LFE4:
 192              		.size	UART_1_I2CSlaveSetAddress, .-UART_1_I2CSlaveSetAddress
 193              		.section	.text.UART_1_I2CSlaveSetAddressMask,"ax",%progbits
 194              		.align	2
 195              		.global	UART_1_I2CSlaveSetAddressMask
 196              		.code	16
 197              		.thumb_func
 198              		.type	UART_1_I2CSlaveSetAddressMask, %function
 199              	UART_1_I2CSlaveSetAddressMask:
 200              	.LFB5:
 192:.\Generated_Source\PSoC4/UART_1_I2C_SLAVE.c **** 
 193:.\Generated_Source\PSoC4/UART_1_I2C_SLAVE.c **** 
 194:.\Generated_Source\PSoC4/UART_1_I2C_SLAVE.c **** /*******************************************************************************
 195:.\Generated_Source\PSoC4/UART_1_I2C_SLAVE.c **** * Function Name: UART_1_I2CSlaveSetAddressMask
 196:.\Generated_Source\PSoC4/UART_1_I2C_SLAVE.c **** ********************************************************************************
 197:.\Generated_Source\PSoC4/UART_1_I2C_SLAVE.c **** *
 198:.\Generated_Source\PSoC4/UART_1_I2C_SLAVE.c **** * Summary:
 199:.\Generated_Source\PSoC4/UART_1_I2C_SLAVE.c **** *  Sets the I2C slave address mask.
ARM GAS  C:\Users\Marcelo\AppData\Local\Temp\ccX2zZUc.s 			page 8


 200:.\Generated_Source\PSoC4/UART_1_I2C_SLAVE.c **** *
 201:.\Generated_Source\PSoC4/UART_1_I2C_SLAVE.c **** * Parameters:
 202:.\Generated_Source\PSoC4/UART_1_I2C_SLAVE.c **** *  addressMask: Address mask.
 203:.\Generated_Source\PSoC4/UART_1_I2C_SLAVE.c **** *   0 - address bit does not care while comparison.
 204:.\Generated_Source\PSoC4/UART_1_I2C_SLAVE.c **** *   1 - address bit is significant while comparison.
 205:.\Generated_Source\PSoC4/UART_1_I2C_SLAVE.c **** *
 206:.\Generated_Source\PSoC4/UART_1_I2C_SLAVE.c **** * Return:
 207:.\Generated_Source\PSoC4/UART_1_I2C_SLAVE.c **** *  None
 208:.\Generated_Source\PSoC4/UART_1_I2C_SLAVE.c **** *
 209:.\Generated_Source\PSoC4/UART_1_I2C_SLAVE.c **** *******************************************************************************/
 210:.\Generated_Source\PSoC4/UART_1_I2C_SLAVE.c **** void UART_1_I2CSlaveSetAddressMask(uint32 addressMask)
 211:.\Generated_Source\PSoC4/UART_1_I2C_SLAVE.c **** {
 201              		.loc 1 211 0
 202              		.cfi_startproc
 203              	.LVL14:
 212:.\Generated_Source\PSoC4/UART_1_I2C_SLAVE.c ****     uint32 matchReg;
 213:.\Generated_Source\PSoC4/UART_1_I2C_SLAVE.c **** 
 214:.\Generated_Source\PSoC4/UART_1_I2C_SLAVE.c ****     matchReg = UART_1_RX_MATCH_REG;
 204              		.loc 1 214 0
 205 0000 034B     		ldr	r3, .L17
 206 0002 1968     		ldr	r1, [r3]
 207              	.LVL15:
 215:.\Generated_Source\PSoC4/UART_1_I2C_SLAVE.c **** 
 216:.\Generated_Source\PSoC4/UART_1_I2C_SLAVE.c ****     matchReg &= ((uint32) ~UART_1_RX_MATCH_MASK_MASK); /* Clear address mask bits */
 208              		.loc 1 216 0
 209 0004 034A     		ldr	r2, .L17+4
 210 0006 0A40     		and	r2, r1
 211              	.LVL16:
 217:.\Generated_Source\PSoC4/UART_1_I2C_SLAVE.c ****     matchReg |= ((uint32) (addressMask << UART_1_RX_MATCH_MASK_POS));
 212              		.loc 1 217 0
 213 0008 0004     		lsl	r0, r0, #16
 214              	.LVL17:
 215 000a 1043     		orr	r0, r2
 216              	.LVL18:
 218:.\Generated_Source\PSoC4/UART_1_I2C_SLAVE.c **** 
 219:.\Generated_Source\PSoC4/UART_1_I2C_SLAVE.c ****     UART_1_RX_MATCH_REG = matchReg;
 217              		.loc 1 219 0
 218 000c 1860     		str	r0, [r3]
 220:.\Generated_Source\PSoC4/UART_1_I2C_SLAVE.c **** }
 219              		.loc 1 220 0
 220              		@ sp needed
 221 000e 7047     		bx	lr
 222              	.L18:
 223              		.align	2
 224              	.L17:
 225 0010 10030740 		.word	1074201360
 226 0014 FFFF00FF 		.word	-16711681
 227              		.cfi_endproc
 228              	.LFE5:
 229              		.size	UART_1_I2CSlaveSetAddressMask, .-UART_1_I2CSlaveSetAddressMask
 230              		.section	.text.UART_1_I2CSlaveInitReadBuf,"ax",%progbits
 231              		.align	2
 232              		.global	UART_1_I2CSlaveInitReadBuf
 233              		.code	16
 234              		.thumb_func
 235              		.type	UART_1_I2CSlaveInitReadBuf, %function
 236              	UART_1_I2CSlaveInitReadBuf:
ARM GAS  C:\Users\Marcelo\AppData\Local\Temp\ccX2zZUc.s 			page 9


 237              	.LFB6:
 221:.\Generated_Source\PSoC4/UART_1_I2C_SLAVE.c **** 
 222:.\Generated_Source\PSoC4/UART_1_I2C_SLAVE.c **** 
 223:.\Generated_Source\PSoC4/UART_1_I2C_SLAVE.c **** /*******************************************************************************
 224:.\Generated_Source\PSoC4/UART_1_I2C_SLAVE.c **** * Function Name: UART_1_I2CSlaveInitReadBuf
 225:.\Generated_Source\PSoC4/UART_1_I2C_SLAVE.c **** ********************************************************************************
 226:.\Generated_Source\PSoC4/UART_1_I2C_SLAVE.c **** *
 227:.\Generated_Source\PSoC4/UART_1_I2C_SLAVE.c **** * Summary:
 228:.\Generated_Source\PSoC4/UART_1_I2C_SLAVE.c **** *  Sets the buffer pointer and size of the read buffer. This function also
 229:.\Generated_Source\PSoC4/UART_1_I2C_SLAVE.c **** *  resets the transfer count returned with the I2C_SlaveGetReadBufSize function.
 230:.\Generated_Source\PSoC4/UART_1_I2C_SLAVE.c **** *
 231:.\Generated_Source\PSoC4/UART_1_I2C_SLAVE.c **** * Parameters:
 232:.\Generated_Source\PSoC4/UART_1_I2C_SLAVE.c **** *  readBuf:  Pointer to the data buffer to be read by the master.
 233:.\Generated_Source\PSoC4/UART_1_I2C_SLAVE.c **** *  bufSize:  Size of the read buffer exposed to the I2C master.
 234:.\Generated_Source\PSoC4/UART_1_I2C_SLAVE.c **** *
 235:.\Generated_Source\PSoC4/UART_1_I2C_SLAVE.c **** * Return:
 236:.\Generated_Source\PSoC4/UART_1_I2C_SLAVE.c **** *  None
 237:.\Generated_Source\PSoC4/UART_1_I2C_SLAVE.c **** *
 238:.\Generated_Source\PSoC4/UART_1_I2C_SLAVE.c **** * Global variables:
 239:.\Generated_Source\PSoC4/UART_1_I2C_SLAVE.c **** *  UART_1_slRdBufPtr   - used to store pointer to slave read buffer.
 240:.\Generated_Source\PSoC4/UART_1_I2C_SLAVE.c **** *  UART_1_slRdBufSize  - used to store salve read buffer size.
 241:.\Generated_Source\PSoC4/UART_1_I2C_SLAVE.c **** *  UART_1_slRdBufIndex - used to store current index within slave
 242:.\Generated_Source\PSoC4/UART_1_I2C_SLAVE.c **** *  read buffer.
 243:.\Generated_Source\PSoC4/UART_1_I2C_SLAVE.c **** *
 244:.\Generated_Source\PSoC4/UART_1_I2C_SLAVE.c **** * Side Effects:
 245:.\Generated_Source\PSoC4/UART_1_I2C_SLAVE.c **** *  If this function is called during a bus transaction, data from the previous
 246:.\Generated_Source\PSoC4/UART_1_I2C_SLAVE.c **** *  buffer location and the beginning of current buffer may be transmitted.
 247:.\Generated_Source\PSoC4/UART_1_I2C_SLAVE.c **** *
 248:.\Generated_Source\PSoC4/UART_1_I2C_SLAVE.c **** *******************************************************************************/
 249:.\Generated_Source\PSoC4/UART_1_I2C_SLAVE.c **** void UART_1_I2CSlaveInitReadBuf(uint8 * rdBuf, uint32 bufSize)
 250:.\Generated_Source\PSoC4/UART_1_I2C_SLAVE.c **** {
 238              		.loc 1 250 0
 239              		.cfi_startproc
 240              	.LVL19:
 241 0000 38B5     		push	{r3, r4, r5, lr}
 242              		.cfi_def_cfa_offset 16
 243              		.cfi_offset 3, -16
 244              		.cfi_offset 4, -12
 245              		.cfi_offset 5, -8
 246              		.cfi_offset 14, -4
 247 0002 041C     		mov	r4, r0
 248 0004 0D1C     		mov	r5, r1
 251:.\Generated_Source\PSoC4/UART_1_I2C_SLAVE.c ****     /* Check for proper buffer */
 252:.\Generated_Source\PSoC4/UART_1_I2C_SLAVE.c ****     if(NULL != rdBuf)
 249              		.loc 1 252 0
 250 0006 0028     		cmp	r0, #0
 251 0008 0ED0     		beq	.L19
 253:.\Generated_Source\PSoC4/UART_1_I2C_SLAVE.c ****     {
 254:.\Generated_Source\PSoC4/UART_1_I2C_SLAVE.c ****         UART_1_DisableInt();  /* Lock from interruption */
 252              		.loc 1 254 0
 253 000a 0B20     		mov	r0, #11
 254              	.LVL20:
 255 000c FFF7FEFF 		bl	CyIntDisable
 256              	.LVL21:
 255:.\Generated_Source\PSoC4/UART_1_I2C_SLAVE.c **** 
 256:.\Generated_Source\PSoC4/UART_1_I2C_SLAVE.c ****         UART_1_slRdBufPtr      = (volatile uint8 *) rdBuf; /* Set buffer pointer  */
 257              		.loc 1 256 0
ARM GAS  C:\Users\Marcelo\AppData\Local\Temp\ccX2zZUc.s 			page 10


 258 0010 064B     		ldr	r3, .L21
 259 0012 1C60     		str	r4, [r3]
 257:.\Generated_Source\PSoC4/UART_1_I2C_SLAVE.c ****         UART_1_slRdBufSize     = bufSize;                  /* Set buffer size     */
 260              		.loc 1 257 0
 261 0014 064B     		ldr	r3, .L21+4
 262 0016 1D60     		str	r5, [r3]
 258:.\Generated_Source\PSoC4/UART_1_I2C_SLAVE.c ****         UART_1_slRdBufIndex    = 0u;                       /* Clear buffer index  */
 263              		.loc 1 258 0
 264 0018 0023     		mov	r3, #0
 265 001a 064A     		ldr	r2, .L21+8
 266 001c 1360     		str	r3, [r2]
 259:.\Generated_Source\PSoC4/UART_1_I2C_SLAVE.c ****         UART_1_slRdBufIndexTmp = 0u;                       /* Clear buffer index  */
 267              		.loc 1 259 0
 268 001e 064A     		ldr	r2, .L21+12
 269 0020 1360     		str	r3, [r2]
 260:.\Generated_Source\PSoC4/UART_1_I2C_SLAVE.c **** 
 261:.\Generated_Source\PSoC4/UART_1_I2C_SLAVE.c ****         UART_1_EnableInt();   /* Release lock */
 270              		.loc 1 261 0
 271 0022 0B20     		mov	r0, #11
 272 0024 FFF7FEFF 		bl	CyIntEnable
 273              	.LVL22:
 274              	.L19:
 262:.\Generated_Source\PSoC4/UART_1_I2C_SLAVE.c ****     }
 263:.\Generated_Source\PSoC4/UART_1_I2C_SLAVE.c **** }
 275              		.loc 1 263 0
 276              		@ sp needed
 277              	.LVL23:
 278              	.LVL24:
 279 0028 38BD     		pop	{r3, r4, r5, pc}
 280              	.L22:
 281 002a C046     		.align	2
 282              	.L21:
 283 002c 00000000 		.word	UART_1_slRdBufPtr
 284 0030 00000000 		.word	UART_1_slRdBufSize
 285 0034 00000000 		.word	UART_1_slRdBufIndex
 286 0038 00000000 		.word	UART_1_slRdBufIndexTmp
 287              		.cfi_endproc
 288              	.LFE6:
 289              		.size	UART_1_I2CSlaveInitReadBuf, .-UART_1_I2CSlaveInitReadBuf
 290              		.section	.text.UART_1_I2CSlaveInitWriteBuf,"ax",%progbits
 291              		.align	2
 292              		.global	UART_1_I2CSlaveInitWriteBuf
 293              		.code	16
 294              		.thumb_func
 295              		.type	UART_1_I2CSlaveInitWriteBuf, %function
 296              	UART_1_I2CSlaveInitWriteBuf:
 297              	.LFB7:
 264:.\Generated_Source\PSoC4/UART_1_I2C_SLAVE.c **** 
 265:.\Generated_Source\PSoC4/UART_1_I2C_SLAVE.c **** 
 266:.\Generated_Source\PSoC4/UART_1_I2C_SLAVE.c **** /*******************************************************************************
 267:.\Generated_Source\PSoC4/UART_1_I2C_SLAVE.c **** * Function Name: UART_1_I2CSlaveInitWriteBuf
 268:.\Generated_Source\PSoC4/UART_1_I2C_SLAVE.c **** ********************************************************************************
 269:.\Generated_Source\PSoC4/UART_1_I2C_SLAVE.c **** *
 270:.\Generated_Source\PSoC4/UART_1_I2C_SLAVE.c **** * Summary:
 271:.\Generated_Source\PSoC4/UART_1_I2C_SLAVE.c **** *  Sets the buffer pointer and size of the read buffer. This function also
 272:.\Generated_Source\PSoC4/UART_1_I2C_SLAVE.c **** *  resets the transfer count returned with the I2C_SlaveGetReadBufSize function.
 273:.\Generated_Source\PSoC4/UART_1_I2C_SLAVE.c **** *
ARM GAS  C:\Users\Marcelo\AppData\Local\Temp\ccX2zZUc.s 			page 11


 274:.\Generated_Source\PSoC4/UART_1_I2C_SLAVE.c **** * Parameters:
 275:.\Generated_Source\PSoC4/UART_1_I2C_SLAVE.c **** *  writeBuf:  Pointer to the data buffer to be read by the master.
 276:.\Generated_Source\PSoC4/UART_1_I2C_SLAVE.c **** *  bufSize:  Size of the buffer exposed to the I2C master.
 277:.\Generated_Source\PSoC4/UART_1_I2C_SLAVE.c **** *
 278:.\Generated_Source\PSoC4/UART_1_I2C_SLAVE.c **** * Return:
 279:.\Generated_Source\PSoC4/UART_1_I2C_SLAVE.c **** *  None
 280:.\Generated_Source\PSoC4/UART_1_I2C_SLAVE.c **** *
 281:.\Generated_Source\PSoC4/UART_1_I2C_SLAVE.c **** * Global variables:
 282:.\Generated_Source\PSoC4/UART_1_I2C_SLAVE.c **** *  UART_1_slWrBufPtr   - used to store pointer to slave write buffer.
 283:.\Generated_Source\PSoC4/UART_1_I2C_SLAVE.c **** *  UART_1_slWrBufSize  - used to store salve write buffer size.
 284:.\Generated_Source\PSoC4/UART_1_I2C_SLAVE.c **** *  UART_1_slWrBufIndex - used to store current index within slave
 285:.\Generated_Source\PSoC4/UART_1_I2C_SLAVE.c **** *  write buffer.
 286:.\Generated_Source\PSoC4/UART_1_I2C_SLAVE.c **** *
 287:.\Generated_Source\PSoC4/UART_1_I2C_SLAVE.c **** * Side Effects:
 288:.\Generated_Source\PSoC4/UART_1_I2C_SLAVE.c **** *  If this function is called during a bus transaction, data from the previous
 289:.\Generated_Source\PSoC4/UART_1_I2C_SLAVE.c **** *  buffer location and the beginning of current buffer may be transmitted.
 290:.\Generated_Source\PSoC4/UART_1_I2C_SLAVE.c **** *
 291:.\Generated_Source\PSoC4/UART_1_I2C_SLAVE.c **** *******************************************************************************/
 292:.\Generated_Source\PSoC4/UART_1_I2C_SLAVE.c **** void UART_1_I2CSlaveInitWriteBuf(uint8 * wrBuf, uint32 bufSize)
 293:.\Generated_Source\PSoC4/UART_1_I2C_SLAVE.c **** {
 298              		.loc 1 293 0
 299              		.cfi_startproc
 300              	.LVL25:
 301 0000 38B5     		push	{r3, r4, r5, lr}
 302              		.cfi_def_cfa_offset 16
 303              		.cfi_offset 3, -16
 304              		.cfi_offset 4, -12
 305              		.cfi_offset 5, -8
 306              		.cfi_offset 14, -4
 307 0002 041C     		mov	r4, r0
 308 0004 0D1C     		mov	r5, r1
 294:.\Generated_Source\PSoC4/UART_1_I2C_SLAVE.c ****     /* Check buffer pointer */
 295:.\Generated_Source\PSoC4/UART_1_I2C_SLAVE.c ****     if(NULL != wrBuf)
 309              		.loc 1 295 0
 310 0006 0028     		cmp	r0, #0
 311 0008 0CD0     		beq	.L23
 296:.\Generated_Source\PSoC4/UART_1_I2C_SLAVE.c ****     {
 297:.\Generated_Source\PSoC4/UART_1_I2C_SLAVE.c ****         UART_1_DisableInt();  /* Lock from interruption */
 312              		.loc 1 297 0
 313 000a 0B20     		mov	r0, #11
 314              	.LVL26:
 315 000c FFF7FEFF 		bl	CyIntDisable
 316              	.LVL27:
 298:.\Generated_Source\PSoC4/UART_1_I2C_SLAVE.c **** 
 299:.\Generated_Source\PSoC4/UART_1_I2C_SLAVE.c ****         UART_1_slWrBufPtr   = (volatile uint8 *) wrBuf; /* Set buffer pointer  */
 317              		.loc 1 299 0
 318 0010 054B     		ldr	r3, .L25
 319 0012 1C60     		str	r4, [r3]
 300:.\Generated_Source\PSoC4/UART_1_I2C_SLAVE.c ****         UART_1_slWrBufSize  = bufSize;                  /* Set buffer size     */
 320              		.loc 1 300 0
 321 0014 054B     		ldr	r3, .L25+4
 322 0016 1D60     		str	r5, [r3]
 301:.\Generated_Source\PSoC4/UART_1_I2C_SLAVE.c ****         UART_1_slWrBufIndex = 0u;                       /* Clear buffer index  */
 323              		.loc 1 301 0
 324 0018 0022     		mov	r2, #0
 325 001a 054B     		ldr	r3, .L25+8
 326 001c 1A60     		str	r2, [r3]
ARM GAS  C:\Users\Marcelo\AppData\Local\Temp\ccX2zZUc.s 			page 12


 302:.\Generated_Source\PSoC4/UART_1_I2C_SLAVE.c **** 
 303:.\Generated_Source\PSoC4/UART_1_I2C_SLAVE.c ****         UART_1_EnableInt();   /* Release lock */
 327              		.loc 1 303 0
 328 001e 0B20     		mov	r0, #11
 329 0020 FFF7FEFF 		bl	CyIntEnable
 330              	.LVL28:
 331              	.L23:
 304:.\Generated_Source\PSoC4/UART_1_I2C_SLAVE.c ****     }
 305:.\Generated_Source\PSoC4/UART_1_I2C_SLAVE.c **** }
 332              		.loc 1 305 0
 333              		@ sp needed
 334              	.LVL29:
 335              	.LVL30:
 336 0024 38BD     		pop	{r3, r4, r5, pc}
 337              	.L26:
 338 0026 C046     		.align	2
 339              	.L25:
 340 0028 00000000 		.word	UART_1_slWrBufPtr
 341 002c 00000000 		.word	UART_1_slWrBufSize
 342 0030 00000000 		.word	UART_1_slWrBufIndex
 343              		.cfi_endproc
 344              	.LFE7:
 345              		.size	UART_1_I2CSlaveInitWriteBuf, .-UART_1_I2CSlaveInitWriteBuf
 346              		.section	.text.UART_1_I2CSlaveGetReadBufSize,"ax",%progbits
 347              		.align	2
 348              		.global	UART_1_I2CSlaveGetReadBufSize
 349              		.code	16
 350              		.thumb_func
 351              		.type	UART_1_I2CSlaveGetReadBufSize, %function
 352              	UART_1_I2CSlaveGetReadBufSize:
 353              	.LFB8:
 306:.\Generated_Source\PSoC4/UART_1_I2C_SLAVE.c **** 
 307:.\Generated_Source\PSoC4/UART_1_I2C_SLAVE.c **** 
 308:.\Generated_Source\PSoC4/UART_1_I2C_SLAVE.c **** /*******************************************************************************
 309:.\Generated_Source\PSoC4/UART_1_I2C_SLAVE.c **** * Function Name: UART_1_I2CSlaveGetReadBufSize
 310:.\Generated_Source\PSoC4/UART_1_I2C_SLAVE.c **** ********************************************************************************
 311:.\Generated_Source\PSoC4/UART_1_I2C_SLAVE.c **** *
 312:.\Generated_Source\PSoC4/UART_1_I2C_SLAVE.c **** * Summary:
 313:.\Generated_Source\PSoC4/UART_1_I2C_SLAVE.c **** *  Returns the number of bytes read by the I2C master since an
 314:.\Generated_Source\PSoC4/UART_1_I2C_SLAVE.c **** *  I2C_SlaveInitReadBuf or I2C_SlaveClearReadBuf function was executed.
 315:.\Generated_Source\PSoC4/UART_1_I2C_SLAVE.c **** *  The maximum return value will be the size of the read buffer.
 316:.\Generated_Source\PSoC4/UART_1_I2C_SLAVE.c **** *
 317:.\Generated_Source\PSoC4/UART_1_I2C_SLAVE.c **** * Parameters:
 318:.\Generated_Source\PSoC4/UART_1_I2C_SLAVE.c **** *  None
 319:.\Generated_Source\PSoC4/UART_1_I2C_SLAVE.c **** *
 320:.\Generated_Source\PSoC4/UART_1_I2C_SLAVE.c **** * Return:
 321:.\Generated_Source\PSoC4/UART_1_I2C_SLAVE.c **** *  Bytes read by master.
 322:.\Generated_Source\PSoC4/UART_1_I2C_SLAVE.c **** *
 323:.\Generated_Source\PSoC4/UART_1_I2C_SLAVE.c **** * Global variables:
 324:.\Generated_Source\PSoC4/UART_1_I2C_SLAVE.c **** *  UART_1_slRdBufIndex - used to store current index within slave
 325:.\Generated_Source\PSoC4/UART_1_I2C_SLAVE.c **** *  read buffer.
 326:.\Generated_Source\PSoC4/UART_1_I2C_SLAVE.c **** *
 327:.\Generated_Source\PSoC4/UART_1_I2C_SLAVE.c **** *******************************************************************************/
 328:.\Generated_Source\PSoC4/UART_1_I2C_SLAVE.c **** uint32 UART_1_I2CSlaveGetReadBufSize(void)
 329:.\Generated_Source\PSoC4/UART_1_I2C_SLAVE.c **** {
 354              		.loc 1 329 0
 355              		.cfi_startproc
ARM GAS  C:\Users\Marcelo\AppData\Local\Temp\ccX2zZUc.s 			page 13


 330:.\Generated_Source\PSoC4/UART_1_I2C_SLAVE.c ****     return(UART_1_slRdBufIndex);
 356              		.loc 1 330 0
 357 0000 014B     		ldr	r3, .L28
 358 0002 1868     		ldr	r0, [r3]
 331:.\Generated_Source\PSoC4/UART_1_I2C_SLAVE.c **** }
 359              		.loc 1 331 0
 360              		@ sp needed
 361 0004 7047     		bx	lr
 362              	.L29:
 363 0006 C046     		.align	2
 364              	.L28:
 365 0008 00000000 		.word	UART_1_slRdBufIndex
 366              		.cfi_endproc
 367              	.LFE8:
 368              		.size	UART_1_I2CSlaveGetReadBufSize, .-UART_1_I2CSlaveGetReadBufSize
 369              		.section	.text.UART_1_I2CSlaveGetWriteBufSize,"ax",%progbits
 370              		.align	2
 371              		.global	UART_1_I2CSlaveGetWriteBufSize
 372              		.code	16
 373              		.thumb_func
 374              		.type	UART_1_I2CSlaveGetWriteBufSize, %function
 375              	UART_1_I2CSlaveGetWriteBufSize:
 376              	.LFB9:
 332:.\Generated_Source\PSoC4/UART_1_I2C_SLAVE.c **** 
 333:.\Generated_Source\PSoC4/UART_1_I2C_SLAVE.c **** 
 334:.\Generated_Source\PSoC4/UART_1_I2C_SLAVE.c **** /*******************************************************************************
 335:.\Generated_Source\PSoC4/UART_1_I2C_SLAVE.c **** * Function Name: UART_1_I2CSlaveGetWriteBufSize
 336:.\Generated_Source\PSoC4/UART_1_I2C_SLAVE.c **** ********************************************************************************
 337:.\Generated_Source\PSoC4/UART_1_I2C_SLAVE.c **** *
 338:.\Generated_Source\PSoC4/UART_1_I2C_SLAVE.c **** * Summary:
 339:.\Generated_Source\PSoC4/UART_1_I2C_SLAVE.c **** *  Returns the number of bytes written by the I2C master since an
 340:.\Generated_Source\PSoC4/UART_1_I2C_SLAVE.c **** *  I2C_SlaveInitWriteBuf or I2C_SlaveClearWriteBuf function was executed.
 341:.\Generated_Source\PSoC4/UART_1_I2C_SLAVE.c **** *  The maximum return value will be the size of the write buffer.
 342:.\Generated_Source\PSoC4/UART_1_I2C_SLAVE.c **** *
 343:.\Generated_Source\PSoC4/UART_1_I2C_SLAVE.c **** * Parameters:
 344:.\Generated_Source\PSoC4/UART_1_I2C_SLAVE.c **** *  None
 345:.\Generated_Source\PSoC4/UART_1_I2C_SLAVE.c **** *
 346:.\Generated_Source\PSoC4/UART_1_I2C_SLAVE.c **** * Return:
 347:.\Generated_Source\PSoC4/UART_1_I2C_SLAVE.c **** *  Bytes written by master.
 348:.\Generated_Source\PSoC4/UART_1_I2C_SLAVE.c **** *
 349:.\Generated_Source\PSoC4/UART_1_I2C_SLAVE.c **** * Global variables:
 350:.\Generated_Source\PSoC4/UART_1_I2C_SLAVE.c **** *  UART_1_slWrBufIndex - used to store current index within slave
 351:.\Generated_Source\PSoC4/UART_1_I2C_SLAVE.c **** *  write buffer.
 352:.\Generated_Source\PSoC4/UART_1_I2C_SLAVE.c **** *
 353:.\Generated_Source\PSoC4/UART_1_I2C_SLAVE.c **** *******************************************************************************/
 354:.\Generated_Source\PSoC4/UART_1_I2C_SLAVE.c **** uint32 UART_1_I2CSlaveGetWriteBufSize(void)
 355:.\Generated_Source\PSoC4/UART_1_I2C_SLAVE.c **** {
 377              		.loc 1 355 0
 378              		.cfi_startproc
 356:.\Generated_Source\PSoC4/UART_1_I2C_SLAVE.c ****     return(UART_1_slWrBufIndex);
 379              		.loc 1 356 0
 380 0000 014B     		ldr	r3, .L31
 381 0002 1868     		ldr	r0, [r3]
 357:.\Generated_Source\PSoC4/UART_1_I2C_SLAVE.c **** }
 382              		.loc 1 357 0
 383              		@ sp needed
 384 0004 7047     		bx	lr
ARM GAS  C:\Users\Marcelo\AppData\Local\Temp\ccX2zZUc.s 			page 14


 385              	.L32:
 386 0006 C046     		.align	2
 387              	.L31:
 388 0008 00000000 		.word	UART_1_slWrBufIndex
 389              		.cfi_endproc
 390              	.LFE9:
 391              		.size	UART_1_I2CSlaveGetWriteBufSize, .-UART_1_I2CSlaveGetWriteBufSize
 392              		.section	.text.UART_1_I2CSlaveClearReadBuf,"ax",%progbits
 393              		.align	2
 394              		.global	UART_1_I2CSlaveClearReadBuf
 395              		.code	16
 396              		.thumb_func
 397              		.type	UART_1_I2CSlaveClearReadBuf, %function
 398              	UART_1_I2CSlaveClearReadBuf:
 399              	.LFB10:
 358:.\Generated_Source\PSoC4/UART_1_I2C_SLAVE.c **** 
 359:.\Generated_Source\PSoC4/UART_1_I2C_SLAVE.c **** 
 360:.\Generated_Source\PSoC4/UART_1_I2C_SLAVE.c **** /*******************************************************************************
 361:.\Generated_Source\PSoC4/UART_1_I2C_SLAVE.c **** * Function Name: UART_1_I2CSlaveClearReadBuf
 362:.\Generated_Source\PSoC4/UART_1_I2C_SLAVE.c **** ********************************************************************************
 363:.\Generated_Source\PSoC4/UART_1_I2C_SLAVE.c **** *
 364:.\Generated_Source\PSoC4/UART_1_I2C_SLAVE.c **** * Summary:
 365:.\Generated_Source\PSoC4/UART_1_I2C_SLAVE.c **** *  Resets the read pointer to the first byte in the read buffer. The next byte
 366:.\Generated_Source\PSoC4/UART_1_I2C_SLAVE.c **** *  read by the master will be the first byte in the read buffer.
 367:.\Generated_Source\PSoC4/UART_1_I2C_SLAVE.c **** *
 368:.\Generated_Source\PSoC4/UART_1_I2C_SLAVE.c **** * Parameters:
 369:.\Generated_Source\PSoC4/UART_1_I2C_SLAVE.c **** *  None
 370:.\Generated_Source\PSoC4/UART_1_I2C_SLAVE.c **** *
 371:.\Generated_Source\PSoC4/UART_1_I2C_SLAVE.c **** * Return:
 372:.\Generated_Source\PSoC4/UART_1_I2C_SLAVE.c **** *  None
 373:.\Generated_Source\PSoC4/UART_1_I2C_SLAVE.c **** *
 374:.\Generated_Source\PSoC4/UART_1_I2C_SLAVE.c **** * Global variables:
 375:.\Generated_Source\PSoC4/UART_1_I2C_SLAVE.c **** *  UART_1_slRdBufIndex - used to store current index within slave
 376:.\Generated_Source\PSoC4/UART_1_I2C_SLAVE.c **** *  read buffer.
 377:.\Generated_Source\PSoC4/UART_1_I2C_SLAVE.c **** *
 378:.\Generated_Source\PSoC4/UART_1_I2C_SLAVE.c **** *******************************************************************************/
 379:.\Generated_Source\PSoC4/UART_1_I2C_SLAVE.c **** void UART_1_I2CSlaveClearReadBuf(void)
 380:.\Generated_Source\PSoC4/UART_1_I2C_SLAVE.c **** {
 400              		.loc 1 380 0
 401              		.cfi_startproc
 381:.\Generated_Source\PSoC4/UART_1_I2C_SLAVE.c ****     UART_1_slRdBufIndex = 0u;
 402              		.loc 1 381 0
 403 0000 0022     		mov	r2, #0
 404 0002 014B     		ldr	r3, .L34
 405 0004 1A60     		str	r2, [r3]
 382:.\Generated_Source\PSoC4/UART_1_I2C_SLAVE.c **** }
 406              		.loc 1 382 0
 407              		@ sp needed
 408 0006 7047     		bx	lr
 409              	.L35:
 410              		.align	2
 411              	.L34:
 412 0008 00000000 		.word	UART_1_slRdBufIndex
 413              		.cfi_endproc
 414              	.LFE10:
 415              		.size	UART_1_I2CSlaveClearReadBuf, .-UART_1_I2CSlaveClearReadBuf
 416              		.section	.text.UART_1_I2CSlaveClearWriteBuf,"ax",%progbits
ARM GAS  C:\Users\Marcelo\AppData\Local\Temp\ccX2zZUc.s 			page 15


 417              		.align	2
 418              		.global	UART_1_I2CSlaveClearWriteBuf
 419              		.code	16
 420              		.thumb_func
 421              		.type	UART_1_I2CSlaveClearWriteBuf, %function
 422              	UART_1_I2CSlaveClearWriteBuf:
 423              	.LFB11:
 383:.\Generated_Source\PSoC4/UART_1_I2C_SLAVE.c **** 
 384:.\Generated_Source\PSoC4/UART_1_I2C_SLAVE.c **** 
 385:.\Generated_Source\PSoC4/UART_1_I2C_SLAVE.c **** /*******************************************************************************
 386:.\Generated_Source\PSoC4/UART_1_I2C_SLAVE.c **** * Function Name: UART_1_I2CSlaveClearWriteBuf
 387:.\Generated_Source\PSoC4/UART_1_I2C_SLAVE.c **** ********************************************************************************
 388:.\Generated_Source\PSoC4/UART_1_I2C_SLAVE.c **** *
 389:.\Generated_Source\PSoC4/UART_1_I2C_SLAVE.c **** * Summary:
 390:.\Generated_Source\PSoC4/UART_1_I2C_SLAVE.c **** *  Resets the write pointer to the first byte in the write buffer. The next byte
 391:.\Generated_Source\PSoC4/UART_1_I2C_SLAVE.c **** *  written by the master will be the first byte in the write buffer.
 392:.\Generated_Source\PSoC4/UART_1_I2C_SLAVE.c **** *
 393:.\Generated_Source\PSoC4/UART_1_I2C_SLAVE.c **** * Parameters:
 394:.\Generated_Source\PSoC4/UART_1_I2C_SLAVE.c **** *  None
 395:.\Generated_Source\PSoC4/UART_1_I2C_SLAVE.c **** *
 396:.\Generated_Source\PSoC4/UART_1_I2C_SLAVE.c **** * Return:
 397:.\Generated_Source\PSoC4/UART_1_I2C_SLAVE.c **** *  None
 398:.\Generated_Source\PSoC4/UART_1_I2C_SLAVE.c **** *
 399:.\Generated_Source\PSoC4/UART_1_I2C_SLAVE.c **** * Global variables:
 400:.\Generated_Source\PSoC4/UART_1_I2C_SLAVE.c **** *  UART_1_slWrBufIndex - used to store current index within slave
 401:.\Generated_Source\PSoC4/UART_1_I2C_SLAVE.c **** *  write buffer.
 402:.\Generated_Source\PSoC4/UART_1_I2C_SLAVE.c **** *
 403:.\Generated_Source\PSoC4/UART_1_I2C_SLAVE.c **** *******************************************************************************/
 404:.\Generated_Source\PSoC4/UART_1_I2C_SLAVE.c **** void UART_1_I2CSlaveClearWriteBuf(void)
 405:.\Generated_Source\PSoC4/UART_1_I2C_SLAVE.c **** {
 424              		.loc 1 405 0
 425              		.cfi_startproc
 406:.\Generated_Source\PSoC4/UART_1_I2C_SLAVE.c ****     UART_1_slWrBufIndex = 0u;
 426              		.loc 1 406 0
 427 0000 0022     		mov	r2, #0
 428 0002 014B     		ldr	r3, .L37
 429 0004 1A60     		str	r2, [r3]
 407:.\Generated_Source\PSoC4/UART_1_I2C_SLAVE.c **** }
 430              		.loc 1 407 0
 431              		@ sp needed
 432 0006 7047     		bx	lr
 433              	.L38:
 434              		.align	2
 435              	.L37:
 436 0008 00000000 		.word	UART_1_slWrBufIndex
 437              		.cfi_endproc
 438              	.LFE11:
 439              		.size	UART_1_I2CSlaveClearWriteBuf, .-UART_1_I2CSlaveClearWriteBuf
 440              		.global	UART_1_customAddressHandler
 441              		.comm	UART_1_slOverFlowCount,1,1
 442              		.comm	UART_1_slRdBufIndexTmp,4,4
 443              		.comm	UART_1_slRdBufIndex,4,4
 444              		.comm	UART_1_slRdBufSize,4,4
 445              		.comm	UART_1_slRdBufPtr,4,4
 446              		.comm	UART_1_slWrBufIndex,4,4
 447              		.comm	UART_1_slWrBufSize,4,4
 448              		.comm	UART_1_slWrBufPtr,4,4
ARM GAS  C:\Users\Marcelo\AppData\Local\Temp\ccX2zZUc.s 			page 16


 449              		.comm	UART_1_slStatus,1,1
 450              		.bss
 451              		.align	2
 452              		.set	.LANCHOR0,. + 0
 453              		.type	UART_1_customAddressHandler, %object
 454              		.size	UART_1_customAddressHandler, 4
 455              	UART_1_customAddressHandler:
 456 0000 00000000 		.space	4
 457              		.text
 458              	.Letext0:
 459              		.file 2 "Generated_Source\\PSoC4/cytypes.h"
 460              		.file 3 "Generated_Source\\PSoC4/CyLib.h"