ARM GAS  C:\Users\marce\AppData\Local\Temp\ccXnBvyw.s 			page 1


   1              		.cpu cortex-m0
   2              		.fpu softvfp
   3              		.eabi_attribute 20, 1
   4              		.eabi_attribute 21, 1
   5              		.eabi_attribute 23, 3
   6              		.eabi_attribute 24, 1
   7              		.eabi_attribute 25, 1
   8              		.eabi_attribute 26, 1
   9              		.eabi_attribute 30, 1
  10              		.eabi_attribute 34, 0
  11              		.eabi_attribute 18, 4
  12              		.code	16
  13              		.file	"UART_1_PM.c"
  14              		.text
  15              	.Ltext0:
  16              		.cfi_sections	.debug_frame
  17              		.section	.text.UART_1_Sleep,"ax",%progbits
  18              		.align	2
  19              		.global	UART_1_Sleep
  20              		.code	16
  21              		.thumb_func
  22              		.type	UART_1_Sleep, %function
  23              	UART_1_Sleep:
  24              	.LFB0:
  25              		.file 1 ".\\Generated_Source\\PSoC4\\UART_1_PM.c"
   1:.\Generated_Source\PSoC4/UART_1_PM.c **** /*******************************************************************************
   2:.\Generated_Source\PSoC4/UART_1_PM.c **** * File Name: UART_1_PM.c
   3:.\Generated_Source\PSoC4/UART_1_PM.c **** * Version 3.0
   4:.\Generated_Source\PSoC4/UART_1_PM.c **** *
   5:.\Generated_Source\PSoC4/UART_1_PM.c **** * Description:
   6:.\Generated_Source\PSoC4/UART_1_PM.c **** *  This file provides the source code to the Power Management support for
   7:.\Generated_Source\PSoC4/UART_1_PM.c **** *  the SCB Component.
   8:.\Generated_Source\PSoC4/UART_1_PM.c **** *
   9:.\Generated_Source\PSoC4/UART_1_PM.c **** * Note:
  10:.\Generated_Source\PSoC4/UART_1_PM.c **** *
  11:.\Generated_Source\PSoC4/UART_1_PM.c **** ********************************************************************************
  12:.\Generated_Source\PSoC4/UART_1_PM.c **** * Copyright 2013-2015, Cypress Semiconductor Corporation.  All rights reserved.
  13:.\Generated_Source\PSoC4/UART_1_PM.c **** * You may use this file only in accordance with the license, terms, conditions,
  14:.\Generated_Source\PSoC4/UART_1_PM.c **** * disclaimers, and limitations in the end user license agreement accompanying
  15:.\Generated_Source\PSoC4/UART_1_PM.c **** * the software package with which this file was provided.
  16:.\Generated_Source\PSoC4/UART_1_PM.c **** *******************************************************************************/
  17:.\Generated_Source\PSoC4/UART_1_PM.c **** 
  18:.\Generated_Source\PSoC4/UART_1_PM.c **** #include "UART_1.h"
  19:.\Generated_Source\PSoC4/UART_1_PM.c **** #include "UART_1_PVT.h"
  20:.\Generated_Source\PSoC4/UART_1_PM.c **** 
  21:.\Generated_Source\PSoC4/UART_1_PM.c **** #if(UART_1_SCB_MODE_I2C_INC)
  22:.\Generated_Source\PSoC4/UART_1_PM.c ****     #include "UART_1_I2C_PVT.h"
  23:.\Generated_Source\PSoC4/UART_1_PM.c **** #endif /* (UART_1_SCB_MODE_I2C_INC) */
  24:.\Generated_Source\PSoC4/UART_1_PM.c **** 
  25:.\Generated_Source\PSoC4/UART_1_PM.c **** #if(UART_1_SCB_MODE_EZI2C_INC)
  26:.\Generated_Source\PSoC4/UART_1_PM.c ****     #include "UART_1_EZI2C_PVT.h"
  27:.\Generated_Source\PSoC4/UART_1_PM.c **** #endif /* (UART_1_SCB_MODE_EZI2C_INC) */
  28:.\Generated_Source\PSoC4/UART_1_PM.c **** 
  29:.\Generated_Source\PSoC4/UART_1_PM.c **** #if(UART_1_SCB_MODE_SPI_INC || UART_1_SCB_MODE_UART_INC)
  30:.\Generated_Source\PSoC4/UART_1_PM.c ****     #include "UART_1_SPI_UART_PVT.h"
  31:.\Generated_Source\PSoC4/UART_1_PM.c **** #endif /* (UART_1_SCB_MODE_SPI_INC || UART_1_SCB_MODE_UART_INC) */
  32:.\Generated_Source\PSoC4/UART_1_PM.c **** 
ARM GAS  C:\Users\marce\AppData\Local\Temp\ccXnBvyw.s 			page 2


  33:.\Generated_Source\PSoC4/UART_1_PM.c **** 
  34:.\Generated_Source\PSoC4/UART_1_PM.c **** /***************************************
  35:.\Generated_Source\PSoC4/UART_1_PM.c **** *   Backup Structure declaration
  36:.\Generated_Source\PSoC4/UART_1_PM.c **** ***************************************/
  37:.\Generated_Source\PSoC4/UART_1_PM.c **** 
  38:.\Generated_Source\PSoC4/UART_1_PM.c **** #if(UART_1_SCB_MODE_UNCONFIG_CONST_CFG || \
  39:.\Generated_Source\PSoC4/UART_1_PM.c ****    (UART_1_SCB_MODE_I2C_CONST_CFG   && (!UART_1_I2C_WAKE_ENABLE_CONST))   || \
  40:.\Generated_Source\PSoC4/UART_1_PM.c ****    (UART_1_SCB_MODE_EZI2C_CONST_CFG && (!UART_1_EZI2C_WAKE_ENABLE_CONST)) || \
  41:.\Generated_Source\PSoC4/UART_1_PM.c ****    (UART_1_SCB_MODE_SPI_CONST_CFG   && (!UART_1_SPI_WAKE_ENABLE_CONST))   || \
  42:.\Generated_Source\PSoC4/UART_1_PM.c ****    (UART_1_SCB_MODE_UART_CONST_CFG  && (!UART_1_UART_WAKE_ENABLE_CONST)))
  43:.\Generated_Source\PSoC4/UART_1_PM.c **** 
  44:.\Generated_Source\PSoC4/UART_1_PM.c ****     UART_1_BACKUP_STRUCT UART_1_backup =
  45:.\Generated_Source\PSoC4/UART_1_PM.c ****     {
  46:.\Generated_Source\PSoC4/UART_1_PM.c ****         0u, /* enableState */
  47:.\Generated_Source\PSoC4/UART_1_PM.c ****     };
  48:.\Generated_Source\PSoC4/UART_1_PM.c **** #endif
  49:.\Generated_Source\PSoC4/UART_1_PM.c **** 
  50:.\Generated_Source\PSoC4/UART_1_PM.c **** 
  51:.\Generated_Source\PSoC4/UART_1_PM.c **** /*******************************************************************************
  52:.\Generated_Source\PSoC4/UART_1_PM.c **** * Function Name: UART_1_Sleep
  53:.\Generated_Source\PSoC4/UART_1_PM.c **** ********************************************************************************
  54:.\Generated_Source\PSoC4/UART_1_PM.c **** *
  55:.\Generated_Source\PSoC4/UART_1_PM.c **** * Summary:
  56:.\Generated_Source\PSoC4/UART_1_PM.c **** *  Prepares the component to enter Deep Sleep.
  57:.\Generated_Source\PSoC4/UART_1_PM.c **** *  The "Enable wakeup from Sleep Mode" selection has an influence on
  58:.\Generated_Source\PSoC4/UART_1_PM.c **** *  this function implementation.
  59:.\Generated_Source\PSoC4/UART_1_PM.c **** *
  60:.\Generated_Source\PSoC4/UART_1_PM.c **** * Parameters:
  61:.\Generated_Source\PSoC4/UART_1_PM.c **** *  None
  62:.\Generated_Source\PSoC4/UART_1_PM.c **** *
  63:.\Generated_Source\PSoC4/UART_1_PM.c **** * Return:
  64:.\Generated_Source\PSoC4/UART_1_PM.c **** *  None
  65:.\Generated_Source\PSoC4/UART_1_PM.c **** *
  66:.\Generated_Source\PSoC4/UART_1_PM.c **** *******************************************************************************/
  67:.\Generated_Source\PSoC4/UART_1_PM.c **** void UART_1_Sleep(void)
  68:.\Generated_Source\PSoC4/UART_1_PM.c **** {
  26              		.loc 1 68 0
  27              		.cfi_startproc
  28 0000 08B5     		push	{r3, lr}
  29              		.cfi_def_cfa_offset 8
  30              		.cfi_offset 3, -8
  31              		.cfi_offset 14, -4
  69:.\Generated_Source\PSoC4/UART_1_PM.c **** #if(UART_1_SCB_MODE_UNCONFIG_CONST_CFG)
  70:.\Generated_Source\PSoC4/UART_1_PM.c **** 
  71:.\Generated_Source\PSoC4/UART_1_PM.c ****     if(UART_1_SCB_WAKE_ENABLE_CHECK)
  32              		.loc 1 71 0
  33 0002 114B     		ldr	r3, .L7
  34 0004 1B78     		ldrb	r3, [r3]
  35 0006 002B     		cmp	r3, #0
  36 0008 15D0     		beq	.L2
  72:.\Generated_Source\PSoC4/UART_1_PM.c ****     {
  73:.\Generated_Source\PSoC4/UART_1_PM.c ****         if(UART_1_SCB_MODE_I2C_RUNTM_CFG)
  37              		.loc 1 73 0
  38 000a 104B     		ldr	r3, .L7+4
  39 000c 1B78     		ldrb	r3, [r3]
  40 000e 012B     		cmp	r3, #1
  41 0010 02D1     		bne	.L3
ARM GAS  C:\Users\marce\AppData\Local\Temp\ccXnBvyw.s 			page 3


  74:.\Generated_Source\PSoC4/UART_1_PM.c ****         {
  75:.\Generated_Source\PSoC4/UART_1_PM.c ****             UART_1_I2CSaveConfig();
  42              		.loc 1 75 0
  43 0012 FFF7FEFF 		bl	UART_1_I2CSaveConfig
  44              	.LVL0:
  45 0016 16E0     		b	.L1
  46              	.L3:
  76:.\Generated_Source\PSoC4/UART_1_PM.c ****         }
  77:.\Generated_Source\PSoC4/UART_1_PM.c ****         else if(UART_1_SCB_MODE_EZI2C_RUNTM_CFG)
  47              		.loc 1 77 0
  48 0018 082B     		cmp	r3, #8
  49 001a 02D1     		bne	.L5
  78:.\Generated_Source\PSoC4/UART_1_PM.c ****         {
  79:.\Generated_Source\PSoC4/UART_1_PM.c ****             UART_1_EzI2CSaveConfig();
  50              		.loc 1 79 0
  51 001c FFF7FEFF 		bl	UART_1_EzI2CSaveConfig
  52              	.LVL1:
  53 0020 11E0     		b	.L1
  54              	.L5:
  80:.\Generated_Source\PSoC4/UART_1_PM.c ****         }
  81:.\Generated_Source\PSoC4/UART_1_PM.c ****     #if(!UART_1_CY_SCBIP_V1)
  82:.\Generated_Source\PSoC4/UART_1_PM.c ****         else if(UART_1_SCB_MODE_SPI_RUNTM_CFG)
  55              		.loc 1 82 0
  56 0022 022B     		cmp	r3, #2
  57 0024 02D1     		bne	.L6
  83:.\Generated_Source\PSoC4/UART_1_PM.c ****         {
  84:.\Generated_Source\PSoC4/UART_1_PM.c ****             UART_1_SpiSaveConfig();
  58              		.loc 1 84 0
  59 0026 FFF7FEFF 		bl	UART_1_SpiSaveConfig
  60              	.LVL2:
  61 002a 0CE0     		b	.L1
  62              	.L6:
  85:.\Generated_Source\PSoC4/UART_1_PM.c ****         }
  86:.\Generated_Source\PSoC4/UART_1_PM.c ****         else if(UART_1_SCB_MODE_UART_RUNTM_CFG)
  63              		.loc 1 86 0
  64 002c 042B     		cmp	r3, #4
  65 002e 0AD1     		bne	.L1
  87:.\Generated_Source\PSoC4/UART_1_PM.c ****         {
  88:.\Generated_Source\PSoC4/UART_1_PM.c ****             UART_1_UartSaveConfig();
  66              		.loc 1 88 0
  67 0030 FFF7FEFF 		bl	UART_1_UartSaveConfig
  68              	.LVL3:
  69 0034 07E0     		b	.L1
  70              	.L2:
  89:.\Generated_Source\PSoC4/UART_1_PM.c ****         }
  90:.\Generated_Source\PSoC4/UART_1_PM.c ****     #endif /* (!UART_1_CY_SCBIP_V1) */
  91:.\Generated_Source\PSoC4/UART_1_PM.c ****         else
  92:.\Generated_Source\PSoC4/UART_1_PM.c ****         {
  93:.\Generated_Source\PSoC4/UART_1_PM.c ****             /* Unknown mode */
  94:.\Generated_Source\PSoC4/UART_1_PM.c ****         }
  95:.\Generated_Source\PSoC4/UART_1_PM.c ****     }
  96:.\Generated_Source\PSoC4/UART_1_PM.c ****     else
  97:.\Generated_Source\PSoC4/UART_1_PM.c ****     {
  98:.\Generated_Source\PSoC4/UART_1_PM.c ****         UART_1_backup.enableState = (uint8) UART_1_GET_CTRL_ENABLED;
  71              		.loc 1 98 0
  72 0036 064B     		ldr	r3, .L7+8
  73 0038 1B68     		ldr	r3, [r3]
ARM GAS  C:\Users\marce\AppData\Local\Temp\ccXnBvyw.s 			page 4


  74 003a DB0F     		lsr	r3, r3, #31
  75 003c 054A     		ldr	r2, .L7+12
  76 003e 1370     		strb	r3, [r2]
  99:.\Generated_Source\PSoC4/UART_1_PM.c **** 
 100:.\Generated_Source\PSoC4/UART_1_PM.c ****         if(0u != UART_1_backup.enableState)
  77              		.loc 1 100 0
  78 0040 01D0     		beq	.L1
 101:.\Generated_Source\PSoC4/UART_1_PM.c ****         {
 102:.\Generated_Source\PSoC4/UART_1_PM.c ****             UART_1_Stop();
  79              		.loc 1 102 0
  80 0042 FFF7FEFF 		bl	UART_1_Stop
  81              	.LVL4:
  82              	.L1:
 103:.\Generated_Source\PSoC4/UART_1_PM.c ****         }
 104:.\Generated_Source\PSoC4/UART_1_PM.c ****     }
 105:.\Generated_Source\PSoC4/UART_1_PM.c **** 
 106:.\Generated_Source\PSoC4/UART_1_PM.c **** #else
 107:.\Generated_Source\PSoC4/UART_1_PM.c **** 
 108:.\Generated_Source\PSoC4/UART_1_PM.c ****     #if (UART_1_SCB_MODE_I2C_CONST_CFG && UART_1_I2C_WAKE_ENABLE_CONST)
 109:.\Generated_Source\PSoC4/UART_1_PM.c ****         UART_1_I2CSaveConfig();
 110:.\Generated_Source\PSoC4/UART_1_PM.c **** 
 111:.\Generated_Source\PSoC4/UART_1_PM.c ****     #elif (UART_1_SCB_MODE_EZI2C_CONST_CFG && UART_1_EZI2C_WAKE_ENABLE_CONST)
 112:.\Generated_Source\PSoC4/UART_1_PM.c ****         UART_1_EzI2CSaveConfig();
 113:.\Generated_Source\PSoC4/UART_1_PM.c **** 
 114:.\Generated_Source\PSoC4/UART_1_PM.c ****     #elif (UART_1_SCB_MODE_SPI_CONST_CFG && UART_1_SPI_WAKE_ENABLE_CONST)
 115:.\Generated_Source\PSoC4/UART_1_PM.c ****         UART_1_SpiSaveConfig();
 116:.\Generated_Source\PSoC4/UART_1_PM.c **** 
 117:.\Generated_Source\PSoC4/UART_1_PM.c ****     #elif (UART_1_SCB_MODE_UART_CONST_CFG && UART_1_UART_WAKE_ENABLE_CONST)
 118:.\Generated_Source\PSoC4/UART_1_PM.c ****         UART_1_UartSaveConfig();
 119:.\Generated_Source\PSoC4/UART_1_PM.c **** 
 120:.\Generated_Source\PSoC4/UART_1_PM.c ****     #else
 121:.\Generated_Source\PSoC4/UART_1_PM.c **** 
 122:.\Generated_Source\PSoC4/UART_1_PM.c ****         UART_1_backup.enableState = (uint8) UART_1_GET_CTRL_ENABLED;
 123:.\Generated_Source\PSoC4/UART_1_PM.c **** 
 124:.\Generated_Source\PSoC4/UART_1_PM.c ****         if(0u != UART_1_backup.enableState)
 125:.\Generated_Source\PSoC4/UART_1_PM.c ****         {
 126:.\Generated_Source\PSoC4/UART_1_PM.c ****             UART_1_Stop();
 127:.\Generated_Source\PSoC4/UART_1_PM.c ****         }
 128:.\Generated_Source\PSoC4/UART_1_PM.c **** 
 129:.\Generated_Source\PSoC4/UART_1_PM.c ****     #endif /* defined (UART_1_SCB_MODE_I2C_CONST_CFG) && (UART_1_I2C_WAKE_ENABLE_CONST) */
 130:.\Generated_Source\PSoC4/UART_1_PM.c **** 
 131:.\Generated_Source\PSoC4/UART_1_PM.c **** #endif /* (UART_1_SCB_MODE_UNCONFIG_CONST_CFG) */
 132:.\Generated_Source\PSoC4/UART_1_PM.c **** }
  83              		.loc 1 132 0
  84              		@ sp needed
  85 0046 08BD     		pop	{r3, pc}
  86              	.L8:
  87              		.align	2
  88              	.L7:
  89 0048 00000000 		.word	UART_1_scbEnableWake
  90 004c 00000000 		.word	UART_1_scbMode
  91 0050 00000740 		.word	1074200576
  92 0054 00000000 		.word	.LANCHOR0
  93              		.cfi_endproc
  94              	.LFE0:
  95              		.size	UART_1_Sleep, .-UART_1_Sleep
  96              		.section	.text.UART_1_Wakeup,"ax",%progbits
ARM GAS  C:\Users\marce\AppData\Local\Temp\ccXnBvyw.s 			page 5


  97              		.align	2
  98              		.global	UART_1_Wakeup
  99              		.code	16
 100              		.thumb_func
 101              		.type	UART_1_Wakeup, %function
 102              	UART_1_Wakeup:
 103              	.LFB1:
 133:.\Generated_Source\PSoC4/UART_1_PM.c **** 
 134:.\Generated_Source\PSoC4/UART_1_PM.c **** 
 135:.\Generated_Source\PSoC4/UART_1_PM.c **** /*******************************************************************************
 136:.\Generated_Source\PSoC4/UART_1_PM.c **** * Function Name: UART_1_Wakeup
 137:.\Generated_Source\PSoC4/UART_1_PM.c **** ********************************************************************************
 138:.\Generated_Source\PSoC4/UART_1_PM.c **** *
 139:.\Generated_Source\PSoC4/UART_1_PM.c **** * Summary:
 140:.\Generated_Source\PSoC4/UART_1_PM.c **** *  Prepares the component for the Active mode operation after exiting
 141:.\Generated_Source\PSoC4/UART_1_PM.c **** *  Deep Sleep. The "Enable wakeup from Sleep Mode" option has an influence
 142:.\Generated_Source\PSoC4/UART_1_PM.c **** *  on this function implementation.
 143:.\Generated_Source\PSoC4/UART_1_PM.c **** *  This function should not be called after exiting Sleep.
 144:.\Generated_Source\PSoC4/UART_1_PM.c **** *
 145:.\Generated_Source\PSoC4/UART_1_PM.c **** * Parameters:
 146:.\Generated_Source\PSoC4/UART_1_PM.c **** *  None
 147:.\Generated_Source\PSoC4/UART_1_PM.c **** *
 148:.\Generated_Source\PSoC4/UART_1_PM.c **** * Return:
 149:.\Generated_Source\PSoC4/UART_1_PM.c **** *  None
 150:.\Generated_Source\PSoC4/UART_1_PM.c **** *
 151:.\Generated_Source\PSoC4/UART_1_PM.c **** *******************************************************************************/
 152:.\Generated_Source\PSoC4/UART_1_PM.c **** void UART_1_Wakeup(void)
 153:.\Generated_Source\PSoC4/UART_1_PM.c **** {
 104              		.loc 1 153 0
 105              		.cfi_startproc
 106 0000 08B5     		push	{r3, lr}
 107              		.cfi_def_cfa_offset 8
 108              		.cfi_offset 3, -8
 109              		.cfi_offset 14, -4
 154:.\Generated_Source\PSoC4/UART_1_PM.c **** #if(UART_1_SCB_MODE_UNCONFIG_CONST_CFG)
 155:.\Generated_Source\PSoC4/UART_1_PM.c **** 
 156:.\Generated_Source\PSoC4/UART_1_PM.c ****     if(UART_1_SCB_WAKE_ENABLE_CHECK)
 110              		.loc 1 156 0
 111 0002 104B     		ldr	r3, .L15
 112 0004 1B78     		ldrb	r3, [r3]
 113 0006 002B     		cmp	r3, #0
 114 0008 15D0     		beq	.L10
 157:.\Generated_Source\PSoC4/UART_1_PM.c ****     {
 158:.\Generated_Source\PSoC4/UART_1_PM.c ****         if(UART_1_SCB_MODE_I2C_RUNTM_CFG)
 115              		.loc 1 158 0
 116 000a 0F4B     		ldr	r3, .L15+4
 117 000c 1B78     		ldrb	r3, [r3]
 118 000e 012B     		cmp	r3, #1
 119 0010 02D1     		bne	.L11
 159:.\Generated_Source\PSoC4/UART_1_PM.c ****         {
 160:.\Generated_Source\PSoC4/UART_1_PM.c ****             UART_1_I2CRestoreConfig();
 120              		.loc 1 160 0
 121 0012 FFF7FEFF 		bl	UART_1_I2CRestoreConfig
 122              	.LVL5:
 123 0016 14E0     		b	.L9
 124              	.L11:
 161:.\Generated_Source\PSoC4/UART_1_PM.c ****         }
ARM GAS  C:\Users\marce\AppData\Local\Temp\ccXnBvyw.s 			page 6


 162:.\Generated_Source\PSoC4/UART_1_PM.c ****         else if(UART_1_SCB_MODE_EZI2C_RUNTM_CFG)
 125              		.loc 1 162 0
 126 0018 082B     		cmp	r3, #8
 127 001a 02D1     		bne	.L13
 163:.\Generated_Source\PSoC4/UART_1_PM.c ****         {
 164:.\Generated_Source\PSoC4/UART_1_PM.c ****             UART_1_EzI2CRestoreConfig();
 128              		.loc 1 164 0
 129 001c FFF7FEFF 		bl	UART_1_EzI2CRestoreConfig
 130              	.LVL6:
 131 0020 0FE0     		b	.L9
 132              	.L13:
 165:.\Generated_Source\PSoC4/UART_1_PM.c ****         }
 166:.\Generated_Source\PSoC4/UART_1_PM.c ****     #if(!UART_1_CY_SCBIP_V1)
 167:.\Generated_Source\PSoC4/UART_1_PM.c ****         else if(UART_1_SCB_MODE_SPI_RUNTM_CFG)
 133              		.loc 1 167 0
 134 0022 022B     		cmp	r3, #2
 135 0024 02D1     		bne	.L14
 168:.\Generated_Source\PSoC4/UART_1_PM.c ****         {
 169:.\Generated_Source\PSoC4/UART_1_PM.c ****             UART_1_SpiRestoreConfig();
 136              		.loc 1 169 0
 137 0026 FFF7FEFF 		bl	UART_1_SpiRestoreConfig
 138              	.LVL7:
 139 002a 0AE0     		b	.L9
 140              	.L14:
 170:.\Generated_Source\PSoC4/UART_1_PM.c ****         }
 171:.\Generated_Source\PSoC4/UART_1_PM.c ****         else if(UART_1_SCB_MODE_UART_RUNTM_CFG)
 141              		.loc 1 171 0
 142 002c 042B     		cmp	r3, #4
 143 002e 08D1     		bne	.L9
 172:.\Generated_Source\PSoC4/UART_1_PM.c ****         {
 173:.\Generated_Source\PSoC4/UART_1_PM.c ****             UART_1_UartRestoreConfig();
 144              		.loc 1 173 0
 145 0030 FFF7FEFF 		bl	UART_1_UartRestoreConfig
 146              	.LVL8:
 147 0034 05E0     		b	.L9
 148              	.L10:
 174:.\Generated_Source\PSoC4/UART_1_PM.c ****         }
 175:.\Generated_Source\PSoC4/UART_1_PM.c ****     #endif /* (!UART_1_CY_SCBIP_V1) */
 176:.\Generated_Source\PSoC4/UART_1_PM.c ****         else
 177:.\Generated_Source\PSoC4/UART_1_PM.c ****         {
 178:.\Generated_Source\PSoC4/UART_1_PM.c ****             /* Unknown mode */
 179:.\Generated_Source\PSoC4/UART_1_PM.c ****         }
 180:.\Generated_Source\PSoC4/UART_1_PM.c ****     }
 181:.\Generated_Source\PSoC4/UART_1_PM.c ****     else
 182:.\Generated_Source\PSoC4/UART_1_PM.c ****     {
 183:.\Generated_Source\PSoC4/UART_1_PM.c ****         if(0u != UART_1_backup.enableState)
 149              		.loc 1 183 0
 150 0036 054B     		ldr	r3, .L15+8
 151 0038 1B78     		ldrb	r3, [r3]
 152 003a 002B     		cmp	r3, #0
 153 003c 01D0     		beq	.L9
 184:.\Generated_Source\PSoC4/UART_1_PM.c ****         {
 185:.\Generated_Source\PSoC4/UART_1_PM.c ****             UART_1_Enable();
 154              		.loc 1 185 0
 155 003e FFF7FEFF 		bl	UART_1_Enable
 156              	.LVL9:
 157              	.L9:
ARM GAS  C:\Users\marce\AppData\Local\Temp\ccXnBvyw.s 			page 7


 186:.\Generated_Source\PSoC4/UART_1_PM.c ****         }
 187:.\Generated_Source\PSoC4/UART_1_PM.c ****     }
 188:.\Generated_Source\PSoC4/UART_1_PM.c **** 
 189:.\Generated_Source\PSoC4/UART_1_PM.c **** #else
 190:.\Generated_Source\PSoC4/UART_1_PM.c **** 
 191:.\Generated_Source\PSoC4/UART_1_PM.c ****     #if (UART_1_SCB_MODE_I2C_CONST_CFG  && UART_1_I2C_WAKE_ENABLE_CONST)
 192:.\Generated_Source\PSoC4/UART_1_PM.c ****         UART_1_I2CRestoreConfig();
 193:.\Generated_Source\PSoC4/UART_1_PM.c **** 
 194:.\Generated_Source\PSoC4/UART_1_PM.c ****     #elif (UART_1_SCB_MODE_EZI2C_CONST_CFG && UART_1_EZI2C_WAKE_ENABLE_CONST)
 195:.\Generated_Source\PSoC4/UART_1_PM.c ****         UART_1_EzI2CRestoreConfig();
 196:.\Generated_Source\PSoC4/UART_1_PM.c **** 
 197:.\Generated_Source\PSoC4/UART_1_PM.c ****     #elif (UART_1_SCB_MODE_SPI_CONST_CFG && UART_1_SPI_WAKE_ENABLE_CONST)
 198:.\Generated_Source\PSoC4/UART_1_PM.c ****         UART_1_SpiRestoreConfig();
 199:.\Generated_Source\PSoC4/UART_1_PM.c **** 
 200:.\Generated_Source\PSoC4/UART_1_PM.c ****     #elif (UART_1_SCB_MODE_UART_CONST_CFG && UART_1_UART_WAKE_ENABLE_CONST)
 201:.\Generated_Source\PSoC4/UART_1_PM.c ****         UART_1_UartRestoreConfig();
 202:.\Generated_Source\PSoC4/UART_1_PM.c **** 
 203:.\Generated_Source\PSoC4/UART_1_PM.c ****     #else
 204:.\Generated_Source\PSoC4/UART_1_PM.c **** 
 205:.\Generated_Source\PSoC4/UART_1_PM.c ****         if(0u != UART_1_backup.enableState)
 206:.\Generated_Source\PSoC4/UART_1_PM.c ****         {
 207:.\Generated_Source\PSoC4/UART_1_PM.c ****             UART_1_Enable();
 208:.\Generated_Source\PSoC4/UART_1_PM.c ****         }
 209:.\Generated_Source\PSoC4/UART_1_PM.c **** 
 210:.\Generated_Source\PSoC4/UART_1_PM.c ****     #endif /* (UART_1_I2C_WAKE_ENABLE_CONST) */
 211:.\Generated_Source\PSoC4/UART_1_PM.c **** 
 212:.\Generated_Source\PSoC4/UART_1_PM.c **** #endif /* (UART_1_SCB_MODE_UNCONFIG_CONST_CFG) */
 213:.\Generated_Source\PSoC4/UART_1_PM.c **** }
 158              		.loc 1 213 0
 159              		@ sp needed
 160 0042 08BD     		pop	{r3, pc}
 161              	.L16:
 162              		.align	2
 163              	.L15:
 164 0044 00000000 		.word	UART_1_scbEnableWake
 165 0048 00000000 		.word	UART_1_scbMode
 166 004c 00000000 		.word	.LANCHOR0
 167              		.cfi_endproc
 168              	.LFE1:
 169              		.size	UART_1_Wakeup, .-UART_1_Wakeup
 170              		.global	UART_1_backup
 171              		.bss
 172              		.align	2
 173              		.set	.LANCHOR0,. + 0
 174              		.type	UART_1_backup, %object
 175              		.size	UART_1_backup, 1
 176              	UART_1_backup:
 177 0000 00       		.space	1
 178 0001 000000   		.text
 179              	.Letext0:
 180              		.file 2 "Generated_Source\\PSoC4/cytypes.h"
 181              		.file 3 ".\\Generated_Source\\PSoC4\\UART_1.h"
 182              		.file 4 ".\\Generated_Source\\PSoC4\\UART_1_PVT.h"
 183              		.file 5 ".\\Generated_Source\\PSoC4\\UART_1_I2C_PVT.h"
 184              		.file 6 ".\\Generated_Source\\PSoC4\\UART_1_EZI2C_PVT.h"
 185              		.file 7 ".\\Generated_Source\\PSoC4\\UART_1_SPI_UART_PVT.h"