ARM GAS  C:\Users\marce\AppData\Local\Temp\ccpev28C.s 			page 1


   1              		.cpu cortex-m0
   2              		.fpu softvfp
   3              		.eabi_attribute 20, 1
   4              		.eabi_attribute 21, 1
   5              		.eabi_attribute 23, 3
   6              		.eabi_attribute 24, 1
   7              		.eabi_attribute 25, 1
   8              		.eabi_attribute 26, 1
   9              		.eabi_attribute 30, 1
  10              		.eabi_attribute 34, 0
  11              		.eabi_attribute 18, 4
  12              		.code	16
  13              		.file	"UART_1_SPI.c"
  14              		.text
  15              	.Ltext0:
  16              		.cfi_sections	.debug_frame
  17              		.section	.text.UART_1_SpiPostEnable,"ax",%progbits
  18              		.align	2
  19              		.global	UART_1_SpiPostEnable
  20              		.code	16
  21              		.thumb_func
  22              		.type	UART_1_SpiPostEnable, %function
  23              	UART_1_SpiPostEnable:
  24              	.LFB1:
  25              		.file 1 ".\\Generated_Source\\PSoC4\\UART_1_SPI.c"
   1:.\Generated_Source\PSoC4/UART_1_SPI.c **** /*******************************************************************************
   2:.\Generated_Source\PSoC4/UART_1_SPI.c **** * File Name: UART_1_SPI.c
   3:.\Generated_Source\PSoC4/UART_1_SPI.c **** * Version 3.0
   4:.\Generated_Source\PSoC4/UART_1_SPI.c **** *
   5:.\Generated_Source\PSoC4/UART_1_SPI.c **** * Description:
   6:.\Generated_Source\PSoC4/UART_1_SPI.c **** *  This file provides the source code to the API for the SCB Component in
   7:.\Generated_Source\PSoC4/UART_1_SPI.c **** *  SPI mode.
   8:.\Generated_Source\PSoC4/UART_1_SPI.c **** *
   9:.\Generated_Source\PSoC4/UART_1_SPI.c **** * Note:
  10:.\Generated_Source\PSoC4/UART_1_SPI.c **** *
  11:.\Generated_Source\PSoC4/UART_1_SPI.c **** *******************************************************************************
  12:.\Generated_Source\PSoC4/UART_1_SPI.c **** * Copyright 2013-2015, Cypress Semiconductor Corporation.  All rights reserved.
  13:.\Generated_Source\PSoC4/UART_1_SPI.c **** * You may use this file only in accordance with the license, terms, conditions,
  14:.\Generated_Source\PSoC4/UART_1_SPI.c **** * disclaimers, and limitations in the end user license agreement accompanying
  15:.\Generated_Source\PSoC4/UART_1_SPI.c **** * the software package with which this file was provided.
  16:.\Generated_Source\PSoC4/UART_1_SPI.c **** *******************************************************************************/
  17:.\Generated_Source\PSoC4/UART_1_SPI.c **** 
  18:.\Generated_Source\PSoC4/UART_1_SPI.c **** #include "UART_1_PVT.h"
  19:.\Generated_Source\PSoC4/UART_1_SPI.c **** #include "UART_1_SPI_UART_PVT.h"
  20:.\Generated_Source\PSoC4/UART_1_SPI.c **** 
  21:.\Generated_Source\PSoC4/UART_1_SPI.c **** #if(UART_1_SCB_MODE_UNCONFIG_CONST_CFG)
  22:.\Generated_Source\PSoC4/UART_1_SPI.c **** 
  23:.\Generated_Source\PSoC4/UART_1_SPI.c ****     /***************************************
  24:.\Generated_Source\PSoC4/UART_1_SPI.c ****     *  Configuration Structure Initialization
  25:.\Generated_Source\PSoC4/UART_1_SPI.c ****     ***************************************/
  26:.\Generated_Source\PSoC4/UART_1_SPI.c **** 
  27:.\Generated_Source\PSoC4/UART_1_SPI.c ****     const UART_1_SPI_INIT_STRUCT UART_1_configSpi =
  28:.\Generated_Source\PSoC4/UART_1_SPI.c ****     {
  29:.\Generated_Source\PSoC4/UART_1_SPI.c ****         UART_1_SPI_MODE,
  30:.\Generated_Source\PSoC4/UART_1_SPI.c ****         UART_1_SPI_SUB_MODE,
  31:.\Generated_Source\PSoC4/UART_1_SPI.c ****         UART_1_SPI_CLOCK_MODE,
  32:.\Generated_Source\PSoC4/UART_1_SPI.c ****         UART_1_SPI_OVS_FACTOR,
ARM GAS  C:\Users\marce\AppData\Local\Temp\ccpev28C.s 			page 2


  33:.\Generated_Source\PSoC4/UART_1_SPI.c ****         UART_1_SPI_MEDIAN_FILTER_ENABLE,
  34:.\Generated_Source\PSoC4/UART_1_SPI.c ****         UART_1_SPI_LATE_MISO_SAMPLE_ENABLE,
  35:.\Generated_Source\PSoC4/UART_1_SPI.c ****         UART_1_SPI_WAKE_ENABLE,
  36:.\Generated_Source\PSoC4/UART_1_SPI.c ****         UART_1_SPI_RX_DATA_BITS_NUM,
  37:.\Generated_Source\PSoC4/UART_1_SPI.c ****         UART_1_SPI_TX_DATA_BITS_NUM,
  38:.\Generated_Source\PSoC4/UART_1_SPI.c ****         UART_1_SPI_BITS_ORDER,
  39:.\Generated_Source\PSoC4/UART_1_SPI.c ****         UART_1_SPI_TRANSFER_SEPARATION,
  40:.\Generated_Source\PSoC4/UART_1_SPI.c ****         0u,
  41:.\Generated_Source\PSoC4/UART_1_SPI.c ****         NULL,
  42:.\Generated_Source\PSoC4/UART_1_SPI.c ****         0u,
  43:.\Generated_Source\PSoC4/UART_1_SPI.c ****         NULL,
  44:.\Generated_Source\PSoC4/UART_1_SPI.c ****         (uint32) UART_1_SCB_IRQ_INTERNAL,
  45:.\Generated_Source\PSoC4/UART_1_SPI.c ****         UART_1_SPI_INTR_RX_MASK,
  46:.\Generated_Source\PSoC4/UART_1_SPI.c ****         UART_1_SPI_RX_TRIGGER_LEVEL,
  47:.\Generated_Source\PSoC4/UART_1_SPI.c ****         UART_1_SPI_INTR_TX_MASK,
  48:.\Generated_Source\PSoC4/UART_1_SPI.c ****         UART_1_SPI_TX_TRIGGER_LEVEL,
  49:.\Generated_Source\PSoC4/UART_1_SPI.c ****         (uint8) UART_1_SPI_BYTE_MODE_ENABLE,
  50:.\Generated_Source\PSoC4/UART_1_SPI.c ****         (uint8) UART_1_SPI_FREE_RUN_SCLK_ENABLE,
  51:.\Generated_Source\PSoC4/UART_1_SPI.c ****         (uint8) UART_1_SPI_SS_POLARITY
  52:.\Generated_Source\PSoC4/UART_1_SPI.c ****     };
  53:.\Generated_Source\PSoC4/UART_1_SPI.c **** 
  54:.\Generated_Source\PSoC4/UART_1_SPI.c **** 
  55:.\Generated_Source\PSoC4/UART_1_SPI.c ****     /*******************************************************************************
  56:.\Generated_Source\PSoC4/UART_1_SPI.c ****     * Function Name: UART_1_SpiInit
  57:.\Generated_Source\PSoC4/UART_1_SPI.c ****     ********************************************************************************
  58:.\Generated_Source\PSoC4/UART_1_SPI.c ****     *
  59:.\Generated_Source\PSoC4/UART_1_SPI.c ****     * Summary:
  60:.\Generated_Source\PSoC4/UART_1_SPI.c ****     *  Configures the SCB for the SPI operation.
  61:.\Generated_Source\PSoC4/UART_1_SPI.c ****     *
  62:.\Generated_Source\PSoC4/UART_1_SPI.c ****     * Parameters:
  63:.\Generated_Source\PSoC4/UART_1_SPI.c ****     *  config:  Pointer to a structure that contains the following ordered list of
  64:.\Generated_Source\PSoC4/UART_1_SPI.c ****     *           fields. These fields match the selections available in the
  65:.\Generated_Source\PSoC4/UART_1_SPI.c ****     *           customizer.
  66:.\Generated_Source\PSoC4/UART_1_SPI.c ****     *
  67:.\Generated_Source\PSoC4/UART_1_SPI.c ****     * Return:
  68:.\Generated_Source\PSoC4/UART_1_SPI.c ****     *  None
  69:.\Generated_Source\PSoC4/UART_1_SPI.c ****     *
  70:.\Generated_Source\PSoC4/UART_1_SPI.c ****     *******************************************************************************/
  71:.\Generated_Source\PSoC4/UART_1_SPI.c ****     void UART_1_SpiInit(const UART_1_SPI_INIT_STRUCT *config)
  72:.\Generated_Source\PSoC4/UART_1_SPI.c ****     {
  73:.\Generated_Source\PSoC4/UART_1_SPI.c ****         if(NULL == config)
  74:.\Generated_Source\PSoC4/UART_1_SPI.c ****         {
  75:.\Generated_Source\PSoC4/UART_1_SPI.c ****             CYASSERT(0u != 0u); /* Halt execution due to bad function parameter */
  76:.\Generated_Source\PSoC4/UART_1_SPI.c ****         }
  77:.\Generated_Source\PSoC4/UART_1_SPI.c ****         else
  78:.\Generated_Source\PSoC4/UART_1_SPI.c ****         {
  79:.\Generated_Source\PSoC4/UART_1_SPI.c ****             /* Configure pins */
  80:.\Generated_Source\PSoC4/UART_1_SPI.c ****             UART_1_SetPins(UART_1_SCB_MODE_SPI, config->mode, UART_1_DUMMY_PARAM);
  81:.\Generated_Source\PSoC4/UART_1_SPI.c **** 
  82:.\Generated_Source\PSoC4/UART_1_SPI.c ****             /* Store internal configuration */
  83:.\Generated_Source\PSoC4/UART_1_SPI.c ****             UART_1_scbMode       = (uint8) UART_1_SCB_MODE_SPI;
  84:.\Generated_Source\PSoC4/UART_1_SPI.c ****             UART_1_scbEnableWake = (uint8) config->enableWake;
  85:.\Generated_Source\PSoC4/UART_1_SPI.c ****             UART_1_scbEnableIntr = (uint8) config->enableInterrupt;
  86:.\Generated_Source\PSoC4/UART_1_SPI.c **** 
  87:.\Generated_Source\PSoC4/UART_1_SPI.c ****             /* Set RX direction internal variables */
  88:.\Generated_Source\PSoC4/UART_1_SPI.c ****             UART_1_rxBuffer      =         config->rxBuffer;
  89:.\Generated_Source\PSoC4/UART_1_SPI.c ****             UART_1_rxDataBits    = (uint8) config->rxDataBits;
ARM GAS  C:\Users\marce\AppData\Local\Temp\ccpev28C.s 			page 3


  90:.\Generated_Source\PSoC4/UART_1_SPI.c ****             UART_1_rxBufferSize  = (uint8) config->rxBufferSize;
  91:.\Generated_Source\PSoC4/UART_1_SPI.c **** 
  92:.\Generated_Source\PSoC4/UART_1_SPI.c ****             /* Set TX direction internal variables */
  93:.\Generated_Source\PSoC4/UART_1_SPI.c ****             UART_1_txBuffer      =         config->txBuffer;
  94:.\Generated_Source\PSoC4/UART_1_SPI.c ****             UART_1_txDataBits    = (uint8) config->txDataBits;
  95:.\Generated_Source\PSoC4/UART_1_SPI.c ****             UART_1_txBufferSize  = (uint8) config->txBufferSize;
  96:.\Generated_Source\PSoC4/UART_1_SPI.c **** 
  97:.\Generated_Source\PSoC4/UART_1_SPI.c ****             /* Configure SPI interface */
  98:.\Generated_Source\PSoC4/UART_1_SPI.c ****             UART_1_CTRL_REG     = UART_1_GET_CTRL_OVS(config->oversample)           |
  99:.\Generated_Source\PSoC4/UART_1_SPI.c ****                                             UART_1_GET_CTRL_BYTE_MODE(config->enableByteMode) |
 100:.\Generated_Source\PSoC4/UART_1_SPI.c ****                                             UART_1_GET_CTRL_EC_AM_MODE(config->enableWake)    |
 101:.\Generated_Source\PSoC4/UART_1_SPI.c ****                                             UART_1_CTRL_SPI;
 102:.\Generated_Source\PSoC4/UART_1_SPI.c **** 
 103:.\Generated_Source\PSoC4/UART_1_SPI.c ****             UART_1_SPI_CTRL_REG = UART_1_GET_SPI_CTRL_CONTINUOUS    (config->transferSeperation)  |
 104:.\Generated_Source\PSoC4/UART_1_SPI.c ****                                             UART_1_GET_SPI_CTRL_SELECT_PRECEDE(config->submode &
 105:.\Generated_Source\PSoC4/UART_1_SPI.c ****                                                                           UART_1_SPI_MODE_TI_PRECED
 106:.\Generated_Source\PSoC4/UART_1_SPI.c ****                                             UART_1_GET_SPI_CTRL_SCLK_MODE     (config->sclkMode)   
 107:.\Generated_Source\PSoC4/UART_1_SPI.c ****                                             UART_1_GET_SPI_CTRL_LATE_MISO_SAMPLE(config->enableLate
 108:.\Generated_Source\PSoC4/UART_1_SPI.c ****                                             UART_1_GET_SPI_CTRL_SCLK_CONTINUOUS(config->enableFreeR
 109:.\Generated_Source\PSoC4/UART_1_SPI.c ****                                             UART_1_GET_SPI_CTRL_SSEL_POLARITY (config->polaritySs) 
 110:.\Generated_Source\PSoC4/UART_1_SPI.c ****                                             UART_1_GET_SPI_CTRL_SUB_MODE      (config->submode)    
 111:.\Generated_Source\PSoC4/UART_1_SPI.c ****                                             UART_1_GET_SPI_CTRL_MASTER_MODE   (config->mode);
 112:.\Generated_Source\PSoC4/UART_1_SPI.c **** 
 113:.\Generated_Source\PSoC4/UART_1_SPI.c ****             /* Configure RX direction */
 114:.\Generated_Source\PSoC4/UART_1_SPI.c ****             UART_1_RX_CTRL_REG     =  UART_1_GET_RX_CTRL_DATA_WIDTH(config->rxDataBits)         |
 115:.\Generated_Source\PSoC4/UART_1_SPI.c ****                                                 UART_1_GET_RX_CTRL_BIT_ORDER (config->bitOrder)    
 116:.\Generated_Source\PSoC4/UART_1_SPI.c ****                                                 UART_1_GET_RX_CTRL_MEDIAN    (config->enableMedianF
 117:.\Generated_Source\PSoC4/UART_1_SPI.c ****                                                 UART_1_SPI_RX_CTRL;
 118:.\Generated_Source\PSoC4/UART_1_SPI.c **** 
 119:.\Generated_Source\PSoC4/UART_1_SPI.c ****             UART_1_RX_FIFO_CTRL_REG = UART_1_GET_RX_FIFO_CTRL_TRIGGER_LEVEL(config->rxTriggerLevel)
 120:.\Generated_Source\PSoC4/UART_1_SPI.c **** 
 121:.\Generated_Source\PSoC4/UART_1_SPI.c ****             /* Configure TX direction */
 122:.\Generated_Source\PSoC4/UART_1_SPI.c ****             UART_1_TX_CTRL_REG      = UART_1_GET_TX_CTRL_DATA_WIDTH(config->txDataBits) |
 123:.\Generated_Source\PSoC4/UART_1_SPI.c ****                                                 UART_1_GET_TX_CTRL_BIT_ORDER (config->bitOrder)   |
 124:.\Generated_Source\PSoC4/UART_1_SPI.c ****                                                 UART_1_SPI_TX_CTRL;
 125:.\Generated_Source\PSoC4/UART_1_SPI.c **** 
 126:.\Generated_Source\PSoC4/UART_1_SPI.c ****             UART_1_TX_FIFO_CTRL_REG = UART_1_GET_TX_FIFO_CTRL_TRIGGER_LEVEL(config->txTriggerLevel)
 127:.\Generated_Source\PSoC4/UART_1_SPI.c **** 
 128:.\Generated_Source\PSoC4/UART_1_SPI.c ****             /* Configure interrupt with SPI handler but do not enable it */
 129:.\Generated_Source\PSoC4/UART_1_SPI.c ****             CyIntDisable    (UART_1_ISR_NUMBER);
 130:.\Generated_Source\PSoC4/UART_1_SPI.c ****             CyIntSetPriority(UART_1_ISR_NUMBER, UART_1_ISR_PRIORITY);
 131:.\Generated_Source\PSoC4/UART_1_SPI.c ****             (void) CyIntSetVector(UART_1_ISR_NUMBER, &UART_1_SPI_UART_ISR);
 132:.\Generated_Source\PSoC4/UART_1_SPI.c **** 
 133:.\Generated_Source\PSoC4/UART_1_SPI.c ****             /* Configure interrupt sources */
 134:.\Generated_Source\PSoC4/UART_1_SPI.c ****             UART_1_INTR_I2C_EC_MASK_REG = UART_1_NO_INTR_SOURCES;
 135:.\Generated_Source\PSoC4/UART_1_SPI.c ****             UART_1_INTR_SPI_EC_MASK_REG = UART_1_NO_INTR_SOURCES;
 136:.\Generated_Source\PSoC4/UART_1_SPI.c ****             UART_1_INTR_SLAVE_MASK_REG  = UART_1_GET_SPI_INTR_SLAVE_MASK(config->rxInterruptMask);
 137:.\Generated_Source\PSoC4/UART_1_SPI.c ****             UART_1_INTR_MASTER_MASK_REG = UART_1_GET_SPI_INTR_MASTER_MASK(config->txInterruptMask);
 138:.\Generated_Source\PSoC4/UART_1_SPI.c ****             UART_1_INTR_RX_MASK_REG     = UART_1_GET_SPI_INTR_RX_MASK(config->rxInterruptMask);
 139:.\Generated_Source\PSoC4/UART_1_SPI.c ****             UART_1_INTR_TX_MASK_REG     = UART_1_GET_SPI_INTR_TX_MASK(config->txInterruptMask);
 140:.\Generated_Source\PSoC4/UART_1_SPI.c **** 
 141:.\Generated_Source\PSoC4/UART_1_SPI.c ****             /* Set active SS0 */
 142:.\Generated_Source\PSoC4/UART_1_SPI.c ****             UART_1_SpiSetActiveSlaveSelect(UART_1_SPI_SLAVE_SELECT0);
 143:.\Generated_Source\PSoC4/UART_1_SPI.c **** 
 144:.\Generated_Source\PSoC4/UART_1_SPI.c ****             /* Clear RX buffer indexes */
 145:.\Generated_Source\PSoC4/UART_1_SPI.c ****             UART_1_rxBufferHead     = 0u;
 146:.\Generated_Source\PSoC4/UART_1_SPI.c ****             UART_1_rxBufferTail     = 0u;
ARM GAS  C:\Users\marce\AppData\Local\Temp\ccpev28C.s 			page 4


 147:.\Generated_Source\PSoC4/UART_1_SPI.c ****             UART_1_rxBufferOverflow = 0u;
 148:.\Generated_Source\PSoC4/UART_1_SPI.c **** 
 149:.\Generated_Source\PSoC4/UART_1_SPI.c ****             /* Clear TX buffer indexes */
 150:.\Generated_Source\PSoC4/UART_1_SPI.c ****             UART_1_txBufferHead = 0u;
 151:.\Generated_Source\PSoC4/UART_1_SPI.c ****             UART_1_txBufferTail = 0u;
 152:.\Generated_Source\PSoC4/UART_1_SPI.c ****         }
 153:.\Generated_Source\PSoC4/UART_1_SPI.c ****     }
 154:.\Generated_Source\PSoC4/UART_1_SPI.c **** 
 155:.\Generated_Source\PSoC4/UART_1_SPI.c **** #else
 156:.\Generated_Source\PSoC4/UART_1_SPI.c **** 
 157:.\Generated_Source\PSoC4/UART_1_SPI.c ****     /*******************************************************************************
 158:.\Generated_Source\PSoC4/UART_1_SPI.c ****     * Function Name: UART_1_SpiInit
 159:.\Generated_Source\PSoC4/UART_1_SPI.c ****     ********************************************************************************
 160:.\Generated_Source\PSoC4/UART_1_SPI.c ****     *
 161:.\Generated_Source\PSoC4/UART_1_SPI.c ****     * Summary:
 162:.\Generated_Source\PSoC4/UART_1_SPI.c ****     *  Configures the SCB for the SPI operation.
 163:.\Generated_Source\PSoC4/UART_1_SPI.c ****     *
 164:.\Generated_Source\PSoC4/UART_1_SPI.c ****     * Parameters:
 165:.\Generated_Source\PSoC4/UART_1_SPI.c ****     *  None
 166:.\Generated_Source\PSoC4/UART_1_SPI.c ****     *
 167:.\Generated_Source\PSoC4/UART_1_SPI.c ****     * Return:
 168:.\Generated_Source\PSoC4/UART_1_SPI.c ****     *  None
 169:.\Generated_Source\PSoC4/UART_1_SPI.c ****     *
 170:.\Generated_Source\PSoC4/UART_1_SPI.c ****     *******************************************************************************/
 171:.\Generated_Source\PSoC4/UART_1_SPI.c ****     void UART_1_SpiInit(void)
 172:.\Generated_Source\PSoC4/UART_1_SPI.c ****     {
 173:.\Generated_Source\PSoC4/UART_1_SPI.c ****         /* Configure SPI interface */
 174:.\Generated_Source\PSoC4/UART_1_SPI.c ****         UART_1_CTRL_REG     = UART_1_SPI_DEFAULT_CTRL;
 175:.\Generated_Source\PSoC4/UART_1_SPI.c ****         UART_1_SPI_CTRL_REG = UART_1_SPI_DEFAULT_SPI_CTRL;
 176:.\Generated_Source\PSoC4/UART_1_SPI.c **** 
 177:.\Generated_Source\PSoC4/UART_1_SPI.c ****         /* Configure TX and RX direction */
 178:.\Generated_Source\PSoC4/UART_1_SPI.c ****         UART_1_RX_CTRL_REG      = UART_1_SPI_DEFAULT_RX_CTRL;
 179:.\Generated_Source\PSoC4/UART_1_SPI.c ****         UART_1_RX_FIFO_CTRL_REG = UART_1_SPI_DEFAULT_RX_FIFO_CTRL;
 180:.\Generated_Source\PSoC4/UART_1_SPI.c **** 
 181:.\Generated_Source\PSoC4/UART_1_SPI.c ****         /* Configure TX and RX direction */
 182:.\Generated_Source\PSoC4/UART_1_SPI.c ****         UART_1_TX_CTRL_REG      = UART_1_SPI_DEFAULT_TX_CTRL;
 183:.\Generated_Source\PSoC4/UART_1_SPI.c ****         UART_1_TX_FIFO_CTRL_REG = UART_1_SPI_DEFAULT_TX_FIFO_CTRL;
 184:.\Generated_Source\PSoC4/UART_1_SPI.c **** 
 185:.\Generated_Source\PSoC4/UART_1_SPI.c ****         /* Configure interrupt with SPI handler but do not enable it */
 186:.\Generated_Source\PSoC4/UART_1_SPI.c ****     #if(UART_1_SCB_IRQ_INTERNAL)
 187:.\Generated_Source\PSoC4/UART_1_SPI.c ****             CyIntDisable    (UART_1_ISR_NUMBER);
 188:.\Generated_Source\PSoC4/UART_1_SPI.c ****             CyIntSetPriority(UART_1_ISR_NUMBER, UART_1_ISR_PRIORITY);
 189:.\Generated_Source\PSoC4/UART_1_SPI.c ****             (void) CyIntSetVector(UART_1_ISR_NUMBER, &UART_1_SPI_UART_ISR);
 190:.\Generated_Source\PSoC4/UART_1_SPI.c ****     #endif /* (UART_1_SCB_IRQ_INTERNAL) */
 191:.\Generated_Source\PSoC4/UART_1_SPI.c **** 
 192:.\Generated_Source\PSoC4/UART_1_SPI.c ****         /* Configure interrupt sources */
 193:.\Generated_Source\PSoC4/UART_1_SPI.c ****         UART_1_INTR_I2C_EC_MASK_REG = UART_1_SPI_DEFAULT_INTR_I2C_EC_MASK;
 194:.\Generated_Source\PSoC4/UART_1_SPI.c ****         UART_1_INTR_SPI_EC_MASK_REG = UART_1_SPI_DEFAULT_INTR_SPI_EC_MASK;
 195:.\Generated_Source\PSoC4/UART_1_SPI.c ****         UART_1_INTR_SLAVE_MASK_REG  = UART_1_SPI_DEFAULT_INTR_SLAVE_MASK;
 196:.\Generated_Source\PSoC4/UART_1_SPI.c ****         UART_1_INTR_MASTER_MASK_REG = UART_1_SPI_DEFAULT_INTR_MASTER_MASK;
 197:.\Generated_Source\PSoC4/UART_1_SPI.c ****         UART_1_INTR_RX_MASK_REG     = UART_1_SPI_DEFAULT_INTR_RX_MASK;
 198:.\Generated_Source\PSoC4/UART_1_SPI.c ****         UART_1_INTR_TX_MASK_REG     = UART_1_SPI_DEFAULT_INTR_TX_MASK;
 199:.\Generated_Source\PSoC4/UART_1_SPI.c **** 
 200:.\Generated_Source\PSoC4/UART_1_SPI.c ****         /* Set active SS0 for master */
 201:.\Generated_Source\PSoC4/UART_1_SPI.c ****     #if (UART_1_SPI_MASTER_CONST)
 202:.\Generated_Source\PSoC4/UART_1_SPI.c ****         UART_1_SpiSetActiveSlaveSelect(UART_1_SPI_SLAVE_SELECT0);
 203:.\Generated_Source\PSoC4/UART_1_SPI.c ****     #endif /* (UART_1_SPI_MASTER_CONST) */
ARM GAS  C:\Users\marce\AppData\Local\Temp\ccpev28C.s 			page 5


 204:.\Generated_Source\PSoC4/UART_1_SPI.c **** 
 205:.\Generated_Source\PSoC4/UART_1_SPI.c ****     #if(UART_1_INTERNAL_RX_SW_BUFFER_CONST)
 206:.\Generated_Source\PSoC4/UART_1_SPI.c ****         UART_1_rxBufferHead     = 0u;
 207:.\Generated_Source\PSoC4/UART_1_SPI.c ****         UART_1_rxBufferTail     = 0u;
 208:.\Generated_Source\PSoC4/UART_1_SPI.c ****         UART_1_rxBufferOverflow = 0u;
 209:.\Generated_Source\PSoC4/UART_1_SPI.c ****     #endif /* (UART_1_INTERNAL_RX_SW_BUFFER_CONST) */
 210:.\Generated_Source\PSoC4/UART_1_SPI.c **** 
 211:.\Generated_Source\PSoC4/UART_1_SPI.c ****     #if(UART_1_INTERNAL_TX_SW_BUFFER_CONST)
 212:.\Generated_Source\PSoC4/UART_1_SPI.c ****         UART_1_txBufferHead = 0u;
 213:.\Generated_Source\PSoC4/UART_1_SPI.c ****         UART_1_txBufferTail = 0u;
 214:.\Generated_Source\PSoC4/UART_1_SPI.c ****     #endif /* (UART_1_INTERNAL_TX_SW_BUFFER_CONST) */
 215:.\Generated_Source\PSoC4/UART_1_SPI.c ****     }
 216:.\Generated_Source\PSoC4/UART_1_SPI.c **** #endif /* (UART_1_SCB_MODE_UNCONFIG_CONST_CFG) */
 217:.\Generated_Source\PSoC4/UART_1_SPI.c **** 
 218:.\Generated_Source\PSoC4/UART_1_SPI.c **** 
 219:.\Generated_Source\PSoC4/UART_1_SPI.c **** /*******************************************************************************
 220:.\Generated_Source\PSoC4/UART_1_SPI.c **** * Function Name: UART_1_SpiPostEnable
 221:.\Generated_Source\PSoC4/UART_1_SPI.c **** ********************************************************************************
 222:.\Generated_Source\PSoC4/UART_1_SPI.c **** *
 223:.\Generated_Source\PSoC4/UART_1_SPI.c **** * Summary:
 224:.\Generated_Source\PSoC4/UART_1_SPI.c **** *  Restores HSIOM settings for the SPI master output pins (SCLK and/or SS0-SS3) 
 225:.\Generated_Source\PSoC4/UART_1_SPI.c **** *  to be controlled by the SCB SPI.
 226:.\Generated_Source\PSoC4/UART_1_SPI.c **** *
 227:.\Generated_Source\PSoC4/UART_1_SPI.c **** * Parameters:
 228:.\Generated_Source\PSoC4/UART_1_SPI.c **** *  None
 229:.\Generated_Source\PSoC4/UART_1_SPI.c **** *
 230:.\Generated_Source\PSoC4/UART_1_SPI.c **** * Return:
 231:.\Generated_Source\PSoC4/UART_1_SPI.c **** *  None
 232:.\Generated_Source\PSoC4/UART_1_SPI.c **** *
 233:.\Generated_Source\PSoC4/UART_1_SPI.c **** *******************************************************************************/
 234:.\Generated_Source\PSoC4/UART_1_SPI.c **** void UART_1_SpiPostEnable(void)
 235:.\Generated_Source\PSoC4/UART_1_SPI.c **** {
  26              		.loc 1 235 0
  27              		.cfi_startproc
 236:.\Generated_Source\PSoC4/UART_1_SPI.c **** #if(UART_1_SCB_MODE_UNCONFIG_CONST_CFG)
 237:.\Generated_Source\PSoC4/UART_1_SPI.c **** 
 238:.\Generated_Source\PSoC4/UART_1_SPI.c ****     if (UART_1_CHECK_SPI_MASTER)
  28              		.loc 1 238 0
  29 0000 014B     		ldr	r3, .L2
  30 0002 1B68     		ldr	r3, [r3]
 239:.\Generated_Source\PSoC4/UART_1_SPI.c ****     {
 240:.\Generated_Source\PSoC4/UART_1_SPI.c ****     #if (UART_1_SCLK_PIN)
 241:.\Generated_Source\PSoC4/UART_1_SPI.c ****         /* Set SCB SPI to drive output pin */
 242:.\Generated_Source\PSoC4/UART_1_SPI.c ****         UART_1_SET_HSIOM_SEL(UART_1_SCLK_HSIOM_REG, UART_1_SCLK_HSIOM_MASK,
 243:.\Generated_Source\PSoC4/UART_1_SPI.c ****                                        UART_1_SCLK_HSIOM_POS, UART_1_HSIOM_SPI_SEL);
 244:.\Generated_Source\PSoC4/UART_1_SPI.c ****     #endif /* (UART_1_SCLK_PIN) */
 245:.\Generated_Source\PSoC4/UART_1_SPI.c **** 
 246:.\Generated_Source\PSoC4/UART_1_SPI.c ****     #if (UART_1_SS0_PIN)
 247:.\Generated_Source\PSoC4/UART_1_SPI.c ****         /* Set SCB SPI to drive output pin */
 248:.\Generated_Source\PSoC4/UART_1_SPI.c ****         UART_1_SET_HSIOM_SEL(UART_1_SS0_HSIOM_REG, UART_1_SS0_HSIOM_MASK,
 249:.\Generated_Source\PSoC4/UART_1_SPI.c ****                                        UART_1_SS0_HSIOM_POS, UART_1_HSIOM_SPI_SEL);
 250:.\Generated_Source\PSoC4/UART_1_SPI.c ****     #endif /* (UART_1_SS0_PIN) */
 251:.\Generated_Source\PSoC4/UART_1_SPI.c **** 
 252:.\Generated_Source\PSoC4/UART_1_SPI.c ****     #if (UART_1_SS1_PIN)
 253:.\Generated_Source\PSoC4/UART_1_SPI.c ****         /* Set SCB SPI to drive output pin */
 254:.\Generated_Source\PSoC4/UART_1_SPI.c ****         UART_1_SET_HSIOM_SEL(UART_1_SS1_HSIOM_REG, UART_1_SS1_HSIOM_MASK,
 255:.\Generated_Source\PSoC4/UART_1_SPI.c ****                                        UART_1_SS1_HSIOM_POS, UART_1_HSIOM_SPI_SEL);
ARM GAS  C:\Users\marce\AppData\Local\Temp\ccpev28C.s 			page 6


 256:.\Generated_Source\PSoC4/UART_1_SPI.c ****     #endif /* (UART_1_SS1_PIN) */
 257:.\Generated_Source\PSoC4/UART_1_SPI.c **** 
 258:.\Generated_Source\PSoC4/UART_1_SPI.c ****     #if (UART_1_SS2_PIN)
 259:.\Generated_Source\PSoC4/UART_1_SPI.c ****         /* Set SCB SPI to drive output pin */
 260:.\Generated_Source\PSoC4/UART_1_SPI.c ****         UART_1_SET_HSIOM_SEL(UART_1_SS2_HSIOM_REG, UART_1_SS2_HSIOM_MASK,
 261:.\Generated_Source\PSoC4/UART_1_SPI.c ****                                        UART_1_SS2_HSIOM_POS, UART_1_HSIOM_SPI_SEL);
 262:.\Generated_Source\PSoC4/UART_1_SPI.c ****     #endif /* (UART_1_SS2_PIN) */
 263:.\Generated_Source\PSoC4/UART_1_SPI.c **** 
 264:.\Generated_Source\PSoC4/UART_1_SPI.c ****     #if (UART_1_SS3_PIN)
 265:.\Generated_Source\PSoC4/UART_1_SPI.c ****         /* Set SCB SPI to drive output pin */
 266:.\Generated_Source\PSoC4/UART_1_SPI.c ****         UART_1_SET_HSIOM_SEL(UART_1_SS3_HSIOM_REG, UART_1_SS3_HSIOM_MASK,
 267:.\Generated_Source\PSoC4/UART_1_SPI.c ****                                        UART_1_SS3_HSIOM_POS, UART_1_HSIOM_SPI_SEL);
 268:.\Generated_Source\PSoC4/UART_1_SPI.c ****     #endif /* (UART_1_SS3_PIN) */
 269:.\Generated_Source\PSoC4/UART_1_SPI.c ****     }
 270:.\Generated_Source\PSoC4/UART_1_SPI.c **** 
 271:.\Generated_Source\PSoC4/UART_1_SPI.c **** #else
 272:.\Generated_Source\PSoC4/UART_1_SPI.c **** 
 273:.\Generated_Source\PSoC4/UART_1_SPI.c **** #if (UART_1_SPI_MASTER_SCLK_PIN)
 274:.\Generated_Source\PSoC4/UART_1_SPI.c ****     /* Set SCB SPI to drive output pin */
 275:.\Generated_Source\PSoC4/UART_1_SPI.c ****     UART_1_SET_HSIOM_SEL(UART_1_SCLK_M_HSIOM_REG, UART_1_SCLK_M_HSIOM_MASK,
 276:.\Generated_Source\PSoC4/UART_1_SPI.c ****                                    UART_1_SCLK_M_HSIOM_POS, UART_1_HSIOM_SPI_SEL);
 277:.\Generated_Source\PSoC4/UART_1_SPI.c **** #endif /* (UART_1_MISO_SDA_TX_PIN_PIN) */
 278:.\Generated_Source\PSoC4/UART_1_SPI.c **** 
 279:.\Generated_Source\PSoC4/UART_1_SPI.c **** #if (UART_1_SPI_MASTER_SS0_PIN)
 280:.\Generated_Source\PSoC4/UART_1_SPI.c ****     /* Set SCB SPI to drive output pin */
 281:.\Generated_Source\PSoC4/UART_1_SPI.c ****     UART_1_SET_HSIOM_SEL(UART_1_SS0_M_HSIOM_REG, UART_1_SS0_M_HSIOM_MASK,
 282:.\Generated_Source\PSoC4/UART_1_SPI.c ****                                    UART_1_SS0_M_HSIOM_POS, UART_1_HSIOM_SPI_SEL);
 283:.\Generated_Source\PSoC4/UART_1_SPI.c **** #endif /* (UART_1_SPI_MASTER_SS0_PIN) */
 284:.\Generated_Source\PSoC4/UART_1_SPI.c **** 
 285:.\Generated_Source\PSoC4/UART_1_SPI.c **** #if (UART_1_SPI_MASTER_SS1_PIN)
 286:.\Generated_Source\PSoC4/UART_1_SPI.c ****     /* Set SCB SPI to drive output pin */
 287:.\Generated_Source\PSoC4/UART_1_SPI.c ****     UART_1_SET_HSIOM_SEL(UART_1_SS1_M_HSIOM_REG, UART_1_SS1_M_HSIOM_MASK,
 288:.\Generated_Source\PSoC4/UART_1_SPI.c ****                                    UART_1_SS1_M_HSIOM_POS, UART_1_HSIOM_SPI_SEL);
 289:.\Generated_Source\PSoC4/UART_1_SPI.c **** #endif /* (UART_1_SPI_MASTER_SS1_PIN) */
 290:.\Generated_Source\PSoC4/UART_1_SPI.c **** 
 291:.\Generated_Source\PSoC4/UART_1_SPI.c **** #if (UART_1_SPI_MASTER_SS2_PIN)
 292:.\Generated_Source\PSoC4/UART_1_SPI.c ****     /* Set SCB SPI to drive output pin */
 293:.\Generated_Source\PSoC4/UART_1_SPI.c ****     UART_1_SET_HSIOM_SEL(UART_1_SS2_M_HSIOM_REG, UART_1_SS2_M_HSIOM_MASK,
 294:.\Generated_Source\PSoC4/UART_1_SPI.c ****                                    UART_1_SS2_M_HSIOM_POS, UART_1_HSIOM_SPI_SEL);
 295:.\Generated_Source\PSoC4/UART_1_SPI.c **** #endif /* (UART_1_SPI_MASTER_SS2_PIN) */
 296:.\Generated_Source\PSoC4/UART_1_SPI.c **** 
 297:.\Generated_Source\PSoC4/UART_1_SPI.c **** #if (UART_1_SPI_MASTER_SS3_PIN)
 298:.\Generated_Source\PSoC4/UART_1_SPI.c ****     /* Set SCB SPI to drive output pin */
 299:.\Generated_Source\PSoC4/UART_1_SPI.c ****     UART_1_SET_HSIOM_SEL(UART_1_SS3_M_HSIOM_REG, UART_1_SS3_M_HSIOM_MASK,
 300:.\Generated_Source\PSoC4/UART_1_SPI.c ****                                    UART_1_SS3_M_HSIOM_POS, UART_1_HSIOM_SPI_SEL);
 301:.\Generated_Source\PSoC4/UART_1_SPI.c **** #endif /* (UART_1_SPI_MASTER_SS3_PIN) */
 302:.\Generated_Source\PSoC4/UART_1_SPI.c **** 
 303:.\Generated_Source\PSoC4/UART_1_SPI.c **** #endif /* (UART_1_SCB_MODE_UNCONFIG_CONST_CFG) */
 304:.\Generated_Source\PSoC4/UART_1_SPI.c **** }
  31              		.loc 1 304 0
  32              		@ sp needed
  33 0004 7047     		bx	lr
  34              	.L3:
  35 0006 C046     		.align	2
  36              	.L2:
  37 0008 20000740 		.word	1074200608
  38              		.cfi_endproc
ARM GAS  C:\Users\marce\AppData\Local\Temp\ccpev28C.s 			page 7


  39              	.LFE1:
  40              		.size	UART_1_SpiPostEnable, .-UART_1_SpiPostEnable
  41              		.section	.text.UART_1_SpiStop,"ax",%progbits
  42              		.align	2
  43              		.global	UART_1_SpiStop
  44              		.code	16
  45              		.thumb_func
  46              		.type	UART_1_SpiStop, %function
  47              	UART_1_SpiStop:
  48              	.LFB2:
 305:.\Generated_Source\PSoC4/UART_1_SPI.c **** 
 306:.\Generated_Source\PSoC4/UART_1_SPI.c **** 
 307:.\Generated_Source\PSoC4/UART_1_SPI.c **** /*******************************************************************************
 308:.\Generated_Source\PSoC4/UART_1_SPI.c **** * Function Name: UART_1_SpiStop
 309:.\Generated_Source\PSoC4/UART_1_SPI.c **** ********************************************************************************
 310:.\Generated_Source\PSoC4/UART_1_SPI.c **** *
 311:.\Generated_Source\PSoC4/UART_1_SPI.c **** * Summary:
 312:.\Generated_Source\PSoC4/UART_1_SPI.c **** *  Changes the HSIOM settings for the SPI master output pins (SCLK and/or SS0-SS3) to
 313:.\Generated_Source\PSoC4/UART_1_SPI.c **** *  keep them inactive after the block is disabled. The output pins are
 314:.\Generated_Source\PSoC4/UART_1_SPI.c **** *  controlled by the GPIO data register.
 315:.\Generated_Source\PSoC4/UART_1_SPI.c **** *
 316:.\Generated_Source\PSoC4/UART_1_SPI.c **** * Parameters:
 317:.\Generated_Source\PSoC4/UART_1_SPI.c **** *  None
 318:.\Generated_Source\PSoC4/UART_1_SPI.c **** *
 319:.\Generated_Source\PSoC4/UART_1_SPI.c **** * Return:
 320:.\Generated_Source\PSoC4/UART_1_SPI.c **** *  None
 321:.\Generated_Source\PSoC4/UART_1_SPI.c **** *
 322:.\Generated_Source\PSoC4/UART_1_SPI.c **** *******************************************************************************/
 323:.\Generated_Source\PSoC4/UART_1_SPI.c **** void UART_1_SpiStop(void)
 324:.\Generated_Source\PSoC4/UART_1_SPI.c **** {
  49              		.loc 1 324 0
  50              		.cfi_startproc
 325:.\Generated_Source\PSoC4/UART_1_SPI.c **** #if(UART_1_SCB_MODE_UNCONFIG_CONST_CFG)
 326:.\Generated_Source\PSoC4/UART_1_SPI.c **** 
 327:.\Generated_Source\PSoC4/UART_1_SPI.c ****     if (UART_1_CHECK_SPI_MASTER)
  51              		.loc 1 327 0
  52 0000 014B     		ldr	r3, .L5
  53 0002 1B68     		ldr	r3, [r3]
 328:.\Generated_Source\PSoC4/UART_1_SPI.c ****     {
 329:.\Generated_Source\PSoC4/UART_1_SPI.c ****     #if (UART_1_SCLK_PIN)
 330:.\Generated_Source\PSoC4/UART_1_SPI.c ****         /* Set output pin state after block is disabled */
 331:.\Generated_Source\PSoC4/UART_1_SPI.c ****         UART_1_spi_sclk_Write(UART_1_GET_SPI_SCLK_INACTIVE);
 332:.\Generated_Source\PSoC4/UART_1_SPI.c **** 
 333:.\Generated_Source\PSoC4/UART_1_SPI.c ****         /* Set GPIO to drive output pin */
 334:.\Generated_Source\PSoC4/UART_1_SPI.c ****         UART_1_SET_HSIOM_SEL(UART_1_SCLK_HSIOM_REG, UART_1_SCLK_HSIOM_MASK,
 335:.\Generated_Source\PSoC4/UART_1_SPI.c ****                                        UART_1_SCLK_HSIOM_POS, UART_1_HSIOM_GPIO_SEL);
 336:.\Generated_Source\PSoC4/UART_1_SPI.c ****     #endif /* (UART_1_MISO_SDA_TX_PIN_PIN) */
 337:.\Generated_Source\PSoC4/UART_1_SPI.c **** 
 338:.\Generated_Source\PSoC4/UART_1_SPI.c ****     #if (UART_1_SS0_PIN)
 339:.\Generated_Source\PSoC4/UART_1_SPI.c ****         /* Set output pin state after block is disabled */
 340:.\Generated_Source\PSoC4/UART_1_SPI.c ****         UART_1_spi_ss0_Write(UART_1_GET_SPI_SS0_INACTIVE);
 341:.\Generated_Source\PSoC4/UART_1_SPI.c **** 
 342:.\Generated_Source\PSoC4/UART_1_SPI.c ****         /* Set GPIO to drive output pin */
 343:.\Generated_Source\PSoC4/UART_1_SPI.c ****         UART_1_SET_HSIOM_SEL(UART_1_SS0_HSIOM_REG, UART_1_SS0_HSIOM_MASK,
 344:.\Generated_Source\PSoC4/UART_1_SPI.c ****                                        UART_1_SS0_HSIOM_POS, UART_1_HSIOM_GPIO_SEL);
 345:.\Generated_Source\PSoC4/UART_1_SPI.c ****     #endif /* (UART_1_SS0_PIN) */
 346:.\Generated_Source\PSoC4/UART_1_SPI.c **** 
ARM GAS  C:\Users\marce\AppData\Local\Temp\ccpev28C.s 			page 8


 347:.\Generated_Source\PSoC4/UART_1_SPI.c ****     #if (UART_1_SS1_PIN)
 348:.\Generated_Source\PSoC4/UART_1_SPI.c ****         /* Set output pin state after block is disabled */
 349:.\Generated_Source\PSoC4/UART_1_SPI.c ****         UART_1_spi_ss1_Write(UART_1_GET_SPI_SS1_INACTIVE);
 350:.\Generated_Source\PSoC4/UART_1_SPI.c **** 
 351:.\Generated_Source\PSoC4/UART_1_SPI.c ****         /* Set GPIO to drive output pin */
 352:.\Generated_Source\PSoC4/UART_1_SPI.c ****         UART_1_SET_HSIOM_SEL(UART_1_SS1_HSIOM_REG, UART_1_SS1_HSIOM_MASK,
 353:.\Generated_Source\PSoC4/UART_1_SPI.c ****                                        UART_1_SS1_HSIOM_POS, UART_1_HSIOM_GPIO_SEL);
 354:.\Generated_Source\PSoC4/UART_1_SPI.c ****     #endif /* (UART_1_SS1_PIN) */
 355:.\Generated_Source\PSoC4/UART_1_SPI.c **** 
 356:.\Generated_Source\PSoC4/UART_1_SPI.c ****     #if (UART_1_SS2_PIN)
 357:.\Generated_Source\PSoC4/UART_1_SPI.c ****         /* Set output pin state after block is disabled */
 358:.\Generated_Source\PSoC4/UART_1_SPI.c ****         UART_1_spi_ss2_Write(UART_1_GET_SPI_SS2_INACTIVE);
 359:.\Generated_Source\PSoC4/UART_1_SPI.c **** 
 360:.\Generated_Source\PSoC4/UART_1_SPI.c ****         /* Set GPIO to drive output pin */
 361:.\Generated_Source\PSoC4/UART_1_SPI.c ****         UART_1_SET_HSIOM_SEL(UART_1_SS2_HSIOM_REG, UART_1_SS2_HSIOM_MASK,
 362:.\Generated_Source\PSoC4/UART_1_SPI.c ****                                        UART_1_SS2_HSIOM_POS, UART_1_HSIOM_GPIO_SEL);
 363:.\Generated_Source\PSoC4/UART_1_SPI.c ****     #endif /* (UART_1_SS2_PIN) */
 364:.\Generated_Source\PSoC4/UART_1_SPI.c **** 
 365:.\Generated_Source\PSoC4/UART_1_SPI.c ****     #if (UART_1_SS3_PIN)
 366:.\Generated_Source\PSoC4/UART_1_SPI.c ****         /* Set output pin state after block is disabled */
 367:.\Generated_Source\PSoC4/UART_1_SPI.c ****         UART_1_spi_ss3_Write(UART_1_GET_SPI_SS3_INACTIVE);
 368:.\Generated_Source\PSoC4/UART_1_SPI.c **** 
 369:.\Generated_Source\PSoC4/UART_1_SPI.c ****         /* Set GPIO to drive output pin */
 370:.\Generated_Source\PSoC4/UART_1_SPI.c ****         UART_1_SET_HSIOM_SEL(UART_1_SS3_HSIOM_REG, UART_1_SS3_HSIOM_MASK,
 371:.\Generated_Source\PSoC4/UART_1_SPI.c ****                                        UART_1_SS3_HSIOM_POS, UART_1_HSIOM_GPIO_SEL);
 372:.\Generated_Source\PSoC4/UART_1_SPI.c ****     #endif /* (UART_1_SS3_PIN) */
 373:.\Generated_Source\PSoC4/UART_1_SPI.c ****     }
 374:.\Generated_Source\PSoC4/UART_1_SPI.c **** 
 375:.\Generated_Source\PSoC4/UART_1_SPI.c **** #else
 376:.\Generated_Source\PSoC4/UART_1_SPI.c **** 
 377:.\Generated_Source\PSoC4/UART_1_SPI.c **** #if (UART_1_SPI_MASTER_SCLK_PIN)
 378:.\Generated_Source\PSoC4/UART_1_SPI.c ****     /* Set output pin state after block is disabled */
 379:.\Generated_Source\PSoC4/UART_1_SPI.c ****     UART_1_sclk_m_Write(UART_1_GET_SPI_SCLK_INACTIVE);
 380:.\Generated_Source\PSoC4/UART_1_SPI.c **** 
 381:.\Generated_Source\PSoC4/UART_1_SPI.c ****     /* Set GPIO to drive output pin */
 382:.\Generated_Source\PSoC4/UART_1_SPI.c ****     UART_1_SET_HSIOM_SEL(UART_1_SCLK_M_HSIOM_REG, UART_1_SCLK_M_HSIOM_MASK,
 383:.\Generated_Source\PSoC4/UART_1_SPI.c ****                                    UART_1_SCLK_M_HSIOM_POS, UART_1_HSIOM_GPIO_SEL);
 384:.\Generated_Source\PSoC4/UART_1_SPI.c **** #endif /* (UART_1_MISO_SDA_TX_PIN_PIN) */
 385:.\Generated_Source\PSoC4/UART_1_SPI.c **** 
 386:.\Generated_Source\PSoC4/UART_1_SPI.c **** #if (UART_1_SPI_MASTER_SS0_PIN)
 387:.\Generated_Source\PSoC4/UART_1_SPI.c ****     /* Set output pin state after block is disabled */
 388:.\Generated_Source\PSoC4/UART_1_SPI.c ****     UART_1_ss0_m_Write(UART_1_GET_SPI_SS0_INACTIVE);
 389:.\Generated_Source\PSoC4/UART_1_SPI.c **** 
 390:.\Generated_Source\PSoC4/UART_1_SPI.c ****     /* Set GPIO to drive output pin */
 391:.\Generated_Source\PSoC4/UART_1_SPI.c ****     UART_1_SET_HSIOM_SEL(UART_1_SS0_M_HSIOM_REG, UART_1_SS0_M_HSIOM_MASK,
 392:.\Generated_Source\PSoC4/UART_1_SPI.c ****                                    UART_1_SS0_M_HSIOM_POS, UART_1_HSIOM_GPIO_SEL);
 393:.\Generated_Source\PSoC4/UART_1_SPI.c **** #endif /* (UART_1_SPI_MASTER_SS0_PIN) */
 394:.\Generated_Source\PSoC4/UART_1_SPI.c **** 
 395:.\Generated_Source\PSoC4/UART_1_SPI.c **** #if (UART_1_SPI_MASTER_SS1_PIN)
 396:.\Generated_Source\PSoC4/UART_1_SPI.c ****     /* Set output pin state after block is disabled */
 397:.\Generated_Source\PSoC4/UART_1_SPI.c ****     UART_1_ss1_m_Write(UART_1_GET_SPI_SS1_INACTIVE);
 398:.\Generated_Source\PSoC4/UART_1_SPI.c **** 
 399:.\Generated_Source\PSoC4/UART_1_SPI.c ****     /* Set GPIO to drive output pin */
 400:.\Generated_Source\PSoC4/UART_1_SPI.c ****     UART_1_SET_HSIOM_SEL(UART_1_SS1_M_HSIOM_REG, UART_1_SS1_M_HSIOM_MASK,
 401:.\Generated_Source\PSoC4/UART_1_SPI.c ****                                    UART_1_SS1_M_HSIOM_POS, UART_1_HSIOM_GPIO_SEL);
 402:.\Generated_Source\PSoC4/UART_1_SPI.c **** #endif /* (UART_1_SPI_MASTER_SS1_PIN) */
 403:.\Generated_Source\PSoC4/UART_1_SPI.c **** 
ARM GAS  C:\Users\marce\AppData\Local\Temp\ccpev28C.s 			page 9


 404:.\Generated_Source\PSoC4/UART_1_SPI.c **** #if (UART_1_SPI_MASTER_SS2_PIN)
 405:.\Generated_Source\PSoC4/UART_1_SPI.c ****     /* Set output pin state after block is disabled */
 406:.\Generated_Source\PSoC4/UART_1_SPI.c ****     UART_1_ss2_m_Write(UART_1_GET_SPI_SS2_INACTIVE);
 407:.\Generated_Source\PSoC4/UART_1_SPI.c **** 
 408:.\Generated_Source\PSoC4/UART_1_SPI.c ****     /* Set GPIO to drive output pin */
 409:.\Generated_Source\PSoC4/UART_1_SPI.c ****     UART_1_SET_HSIOM_SEL(UART_1_SS2_M_HSIOM_REG, UART_1_SS2_M_HSIOM_MASK,
 410:.\Generated_Source\PSoC4/UART_1_SPI.c ****                                    UART_1_SS2_M_HSIOM_POS, UART_1_HSIOM_GPIO_SEL);
 411:.\Generated_Source\PSoC4/UART_1_SPI.c **** #endif /* (UART_1_SPI_MASTER_SS2_PIN) */
 412:.\Generated_Source\PSoC4/UART_1_SPI.c **** 
 413:.\Generated_Source\PSoC4/UART_1_SPI.c **** #if (UART_1_SPI_MASTER_SS3_PIN)
 414:.\Generated_Source\PSoC4/UART_1_SPI.c ****     /* Set output pin state after block is disabled */
 415:.\Generated_Source\PSoC4/UART_1_SPI.c ****     UART_1_ss3_m_Write(UART_1_GET_SPI_SS3_INACTIVE);
 416:.\Generated_Source\PSoC4/UART_1_SPI.c **** 
 417:.\Generated_Source\PSoC4/UART_1_SPI.c ****     /* Set GPIO to drive output pin */
 418:.\Generated_Source\PSoC4/UART_1_SPI.c ****     UART_1_SET_HSIOM_SEL(UART_1_SS3_M_HSIOM_REG, UART_1_SS3_M_HSIOM_MASK,
 419:.\Generated_Source\PSoC4/UART_1_SPI.c ****                                    UART_1_SS3_M_HSIOM_POS, UART_1_HSIOM_GPIO_SEL);
 420:.\Generated_Source\PSoC4/UART_1_SPI.c **** #endif /* (UART_1_SPI_MASTER_SS3_PIN) */
 421:.\Generated_Source\PSoC4/UART_1_SPI.c **** 
 422:.\Generated_Source\PSoC4/UART_1_SPI.c **** #endif /* (UART_1_SCB_MODE_UNCONFIG_CONST_CFG) */
 423:.\Generated_Source\PSoC4/UART_1_SPI.c **** }
  54              		.loc 1 423 0
  55              		@ sp needed
  56 0004 7047     		bx	lr
  57              	.L6:
  58 0006 C046     		.align	2
  59              	.L5:
  60 0008 20000740 		.word	1074200608
  61              		.cfi_endproc
  62              	.LFE2:
  63              		.size	UART_1_SpiStop, .-UART_1_SpiStop
  64              		.section	.text.UART_1_SpiSetActiveSlaveSelect,"ax",%progbits
  65              		.align	2
  66              		.global	UART_1_SpiSetActiveSlaveSelect
  67              		.code	16
  68              		.thumb_func
  69              		.type	UART_1_SpiSetActiveSlaveSelect, %function
  70              	UART_1_SpiSetActiveSlaveSelect:
  71              	.LFB3:
 424:.\Generated_Source\PSoC4/UART_1_SPI.c **** 
 425:.\Generated_Source\PSoC4/UART_1_SPI.c **** 
 426:.\Generated_Source\PSoC4/UART_1_SPI.c **** #if (UART_1_SPI_MASTER_CONST)
 427:.\Generated_Source\PSoC4/UART_1_SPI.c ****     /*******************************************************************************
 428:.\Generated_Source\PSoC4/UART_1_SPI.c ****     * Function Name: UART_1_SetActiveSlaveSelect
 429:.\Generated_Source\PSoC4/UART_1_SPI.c ****     ********************************************************************************
 430:.\Generated_Source\PSoC4/UART_1_SPI.c ****     *
 431:.\Generated_Source\PSoC4/UART_1_SPI.c ****     * Summary:
 432:.\Generated_Source\PSoC4/UART_1_SPI.c ****     *  Selects one of the four slave select lines to be active during the transfer.
 433:.\Generated_Source\PSoC4/UART_1_SPI.c ****     *  After initialization the active slave select line is 0.
 434:.\Generated_Source\PSoC4/UART_1_SPI.c ****     *  The component should be in one of the following states to change the active
 435:.\Generated_Source\PSoC4/UART_1_SPI.c ****     *  slave select signal source correctly:
 436:.\Generated_Source\PSoC4/UART_1_SPI.c ****     *   - The component is disabled
 437:.\Generated_Source\PSoC4/UART_1_SPI.c ****     *   - The component has completed transfer (TX FIFO is empty and the
 438:.\Generated_Source\PSoC4/UART_1_SPI.c ****     *     SCB_INTR_MASTER_SPI_DONE status is set)
 439:.\Generated_Source\PSoC4/UART_1_SPI.c ****     *  This function does not check that these conditions are met.
 440:.\Generated_Source\PSoC4/UART_1_SPI.c ****     *  This function is only applicable to SPI Master mode of operation.
 441:.\Generated_Source\PSoC4/UART_1_SPI.c ****     *
 442:.\Generated_Source\PSoC4/UART_1_SPI.c ****     * Parameters:
ARM GAS  C:\Users\marce\AppData\Local\Temp\ccpev28C.s 			page 10


 443:.\Generated_Source\PSoC4/UART_1_SPI.c ****     *  slaveSelect: slave select line which will be active while the following
 444:.\Generated_Source\PSoC4/UART_1_SPI.c ****     *               transfer.
 445:.\Generated_Source\PSoC4/UART_1_SPI.c ****     *   UART_1_SPI_SLAVE_SELECT0 - Slave select 0
 446:.\Generated_Source\PSoC4/UART_1_SPI.c ****     *   UART_1_SPI_SLAVE_SELECT1 - Slave select 1
 447:.\Generated_Source\PSoC4/UART_1_SPI.c ****     *   UART_1_SPI_SLAVE_SELECT2 - Slave select 2
 448:.\Generated_Source\PSoC4/UART_1_SPI.c ****     *   UART_1_SPI_SLAVE_SELECT3 - Slave select 3
 449:.\Generated_Source\PSoC4/UART_1_SPI.c ****     *
 450:.\Generated_Source\PSoC4/UART_1_SPI.c ****     * Return:
 451:.\Generated_Source\PSoC4/UART_1_SPI.c ****     *  None
 452:.\Generated_Source\PSoC4/UART_1_SPI.c ****     *
 453:.\Generated_Source\PSoC4/UART_1_SPI.c ****     *******************************************************************************/
 454:.\Generated_Source\PSoC4/UART_1_SPI.c ****     void UART_1_SpiSetActiveSlaveSelect(uint32 slaveSelect)
 455:.\Generated_Source\PSoC4/UART_1_SPI.c ****     {
  72              		.loc 1 455 0
  73              		.cfi_startproc
  74              	.LVL0:
 456:.\Generated_Source\PSoC4/UART_1_SPI.c ****         uint32 spiCtrl;
 457:.\Generated_Source\PSoC4/UART_1_SPI.c **** 
 458:.\Generated_Source\PSoC4/UART_1_SPI.c ****         spiCtrl = UART_1_SPI_CTRL_REG;
  75              		.loc 1 458 0
  76 0000 054B     		ldr	r3, .L8
  77 0002 1968     		ldr	r1, [r3]
  78              	.LVL1:
 459:.\Generated_Source\PSoC4/UART_1_SPI.c **** 
 460:.\Generated_Source\PSoC4/UART_1_SPI.c ****         spiCtrl &= (uint32) ~UART_1_SPI_CTRL_SLAVE_SELECT_MASK;
  79              		.loc 1 460 0
  80 0004 054A     		ldr	r2, .L8+4
  81 0006 0A40     		and	r2, r1
  82              	.LVL2:
 461:.\Generated_Source\PSoC4/UART_1_SPI.c ****         spiCtrl |= (uint32)  UART_1_GET_SPI_CTRL_SS(slaveSelect);
  83              		.loc 1 461 0
  84 0008 8006     		lsl	r0, r0, #26
  85              	.LVL3:
  86 000a C021     		mov	r1, #192
  87 000c 0905     		lsl	r1, r1, #20
  88 000e 0840     		and	r0, r1
  89 0010 1043     		orr	r0, r2
  90              	.LVL4:
 462:.\Generated_Source\PSoC4/UART_1_SPI.c **** 
 463:.\Generated_Source\PSoC4/UART_1_SPI.c ****         UART_1_SPI_CTRL_REG = spiCtrl;
  91              		.loc 1 463 0
  92 0012 1860     		str	r0, [r3]
 464:.\Generated_Source\PSoC4/UART_1_SPI.c ****     }
  93              		.loc 1 464 0
  94              		@ sp needed
  95 0014 7047     		bx	lr
  96              	.L9:
  97 0016 C046     		.align	2
  98              	.L8:
  99 0018 20000740 		.word	1074200608
 100 001c FFFFFFF3 		.word	-201326593
 101              		.cfi_endproc
 102              	.LFE3:
 103              		.size	UART_1_SpiSetActiveSlaveSelect, .-UART_1_SpiSetActiveSlaveSelect
 104              		.section	.text.UART_1_SpiInit,"ax",%progbits
 105              		.align	2
 106              		.global	UART_1_SpiInit
ARM GAS  C:\Users\marce\AppData\Local\Temp\ccpev28C.s 			page 11


 107              		.code	16
 108              		.thumb_func
 109              		.type	UART_1_SpiInit, %function
 110              	UART_1_SpiInit:
 111              	.LFB0:
  72:.\Generated_Source\PSoC4/UART_1_SPI.c ****     {
 112              		.loc 1 72 0
 113              		.cfi_startproc
 114              	.LVL5:
 115 0000 38B5     		push	{r3, r4, r5, lr}
 116              		.cfi_def_cfa_offset 16
 117              		.cfi_offset 3, -16
 118              		.cfi_offset 4, -12
 119              		.cfi_offset 5, -8
 120              		.cfi_offset 14, -4
 121 0002 041E     		sub	r4, r0, #0
  73:.\Generated_Source\PSoC4/UART_1_SPI.c ****         if(NULL == config)
 122              		.loc 1 73 0
 123 0004 03D1     		bne	.L11
  75:.\Generated_Source\PSoC4/UART_1_SPI.c ****             CYASSERT(0u != 0u); /* Halt execution due to bad function parameter */
 124              		.loc 1 75 0 discriminator 1
 125 0006 0020     		mov	r0, #0
 126              	.LVL6:
 127 0008 FFF7FEFF 		bl	CyHalt
 128              	.LVL7:
 129 000c C1E0     		b	.L10
 130              	.LVL8:
 131              	.L11:
  80:.\Generated_Source\PSoC4/UART_1_SPI.c ****             UART_1_SetPins(UART_1_SCB_MODE_SPI, config->mode, UART_1_DUMMY_PARAM);
 132              		.loc 1 80 0
 133 000e 0220     		mov	r0, #2
 134              	.LVL9:
 135 0010 2168     		ldr	r1, [r4]
 136 0012 0022     		mov	r2, #0
 137 0014 FFF7FEFF 		bl	UART_1_SetPins
 138              	.LVL10:
  83:.\Generated_Source\PSoC4/UART_1_SPI.c ****             UART_1_scbMode       = (uint8) UART_1_SCB_MODE_SPI;
 139              		.loc 1 83 0
 140 0018 0222     		mov	r2, #2
 141 001a 5E4B     		ldr	r3, .L29
 142 001c 1A70     		strb	r2, [r3]
  84:.\Generated_Source\PSoC4/UART_1_SPI.c ****             UART_1_scbEnableWake = (uint8) config->enableWake;
 143              		.loc 1 84 0
 144 001e A369     		ldr	r3, [r4, #24]
 145 0020 5D4A     		ldr	r2, .L29+4
 146 0022 1370     		strb	r3, [r2]
  85:.\Generated_Source\PSoC4/UART_1_SPI.c ****             UART_1_scbEnableIntr = (uint8) config->enableInterrupt;
 147              		.loc 1 85 0
 148 0024 5D4A     		ldr	r2, .L29+8
 149 0026 E06B     		ldr	r0, [r4, #60]
 150 0028 1070     		strb	r0, [r2]
  88:.\Generated_Source\PSoC4/UART_1_SPI.c ****             UART_1_rxBuffer      =         config->rxBuffer;
 151              		.loc 1 88 0
 152 002a 5D4A     		ldr	r2, .L29+12
 153 002c 216B     		ldr	r1, [r4, #48]
 154 002e 1160     		str	r1, [r2]
  89:.\Generated_Source\PSoC4/UART_1_SPI.c ****             UART_1_rxDataBits    = (uint8) config->rxDataBits;
ARM GAS  C:\Users\marce\AppData\Local\Temp\ccpev28C.s 			page 12


 155              		.loc 1 89 0
 156 0030 217F     		ldrb	r1, [r4, #28]
 157 0032 5C4A     		ldr	r2, .L29+16
 158 0034 1170     		strb	r1, [r2]
  90:.\Generated_Source\PSoC4/UART_1_SPI.c ****             UART_1_rxBufferSize  = (uint8) config->rxBufferSize;
 159              		.loc 1 90 0
 160 0036 FF22     		mov	r2, #255
 161 0038 E06A     		ldr	r0, [r4, #44]
 162 003a 1040     		and	r0, r2
 163 003c 5A49     		ldr	r1, .L29+20
 164 003e 0860     		str	r0, [r1]
  93:.\Generated_Source\PSoC4/UART_1_SPI.c ****             UART_1_txBuffer      =         config->txBuffer;
 165              		.loc 1 93 0
 166 0040 5A49     		ldr	r1, .L29+24
 167 0042 A06B     		ldr	r0, [r4, #56]
 168 0044 0860     		str	r0, [r1]
  94:.\Generated_Source\PSoC4/UART_1_SPI.c ****             UART_1_txDataBits    = (uint8) config->txDataBits;
 169              		.loc 1 94 0
 170 0046 5A49     		ldr	r1, .L29+28
 171 0048 206A     		ldr	r0, [r4, #32]
 172 004a 0870     		strb	r0, [r1]
  95:.\Generated_Source\PSoC4/UART_1_SPI.c ****             UART_1_txBufferSize  = (uint8) config->txBufferSize;
 173              		.loc 1 95 0
 174 004c 616B     		ldr	r1, [r4, #52]
 175 004e 0A40     		and	r2, r1
 176 0050 5849     		ldr	r1, .L29+32
 177 0052 0A60     		str	r2, [r1]
  98:.\Generated_Source\PSoC4/UART_1_SPI.c ****             UART_1_CTRL_REG     = UART_1_GET_CTRL_OVS(config->oversample)           |
 178              		.loc 1 98 0
 179 0054 E268     		ldr	r2, [r4, #12]
 180 0056 013A     		sub	r2, r2, #1
 181 0058 0F21     		mov	r1, #15
 182 005a 0A40     		and	r2, r1
 100:.\Generated_Source\PSoC4/UART_1_SPI.c ****                                             UART_1_GET_CTRL_EC_AM_MODE(config->enableWake)    |
 183              		.loc 1 100 0
 184 005c 002B     		cmp	r3, #0
 185 005e 02D0     		beq	.L21
 186 0060 8023     		mov	r3, #128
 187 0062 5B00     		lsl	r3, r3, #1
 188 0064 00E0     		b	.L13
 189              	.L21:
 190 0066 0023     		mov	r3, #0
 191              	.L13:
  99:.\Generated_Source\PSoC4/UART_1_SPI.c ****                                             UART_1_GET_CTRL_BYTE_MODE(config->enableByteMode) |
 192              		.loc 1 99 0
 193 0068 1A43     		orr	r2, r3
 100:.\Generated_Source\PSoC4/UART_1_SPI.c ****                                             UART_1_GET_CTRL_EC_AM_MODE(config->enableWake)    |
 194              		.loc 1 100 0
 195 006a 8023     		mov	r3, #128
 196 006c 5B04     		lsl	r3, r3, #17
 197 006e 1A43     		orr	r2, r3
  98:.\Generated_Source\PSoC4/UART_1_SPI.c ****             UART_1_CTRL_REG     = UART_1_GET_CTRL_OVS(config->oversample)           |
 198              		.loc 1 98 0
 199 0070 514B     		ldr	r3, .L29+36
 200 0072 1A60     		str	r2, [r3]
 103:.\Generated_Source\PSoC4/UART_1_SPI.c ****             UART_1_SPI_CTRL_REG = UART_1_GET_SPI_CTRL_CONTINUOUS    (config->transferSeperation)  |
 201              		.loc 1 103 0
ARM GAS  C:\Users\marce\AppData\Local\Temp\ccpev28C.s 			page 13


 202 0074 A26A     		ldr	r2, [r4, #40]
 203 0076 002A     		cmp	r2, #0
 204 0078 01D0     		beq	.L22
 205 007a 0121     		mov	r1, #1
 206 007c 00E0     		b	.L14
 207              	.L22:
 208 007e 0021     		mov	r1, #0
 209              	.L14:
 104:.\Generated_Source\PSoC4/UART_1_SPI.c ****                                             UART_1_GET_SPI_CTRL_SELECT_PRECEDE(config->submode &
 210              		.loc 1 104 0
 211 0080 6368     		ldr	r3, [r4, #4]
 212 0082 D806     		lsl	r0, r3, #27
 213 0084 01D5     		bpl	.L23
 214 0086 0222     		mov	r2, #2
 215 0088 00E0     		b	.L15
 216              	.L23:
 217 008a 0022     		mov	r2, #0
 218              	.L15:
 103:.\Generated_Source\PSoC4/UART_1_SPI.c ****             UART_1_SPI_CTRL_REG = UART_1_GET_SPI_CTRL_CONTINUOUS    (config->transferSeperation)  |
 219              		.loc 1 103 0
 220 008c 1143     		orr	r1, r2
 106:.\Generated_Source\PSoC4/UART_1_SPI.c ****                                             UART_1_GET_SPI_CTRL_SCLK_MODE     (config->sclkMode)   
 221              		.loc 1 106 0
 222 008e A068     		ldr	r0, [r4, #8]
 223 0090 8200     		lsl	r2, r0, #2
 224 0092 0C20     		mov	r0, #12
 225 0094 0240     		and	r2, r0
 105:.\Generated_Source\PSoC4/UART_1_SPI.c ****                                                                           UART_1_SPI_MODE_TI_PRECED
 226              		.loc 1 105 0
 227 0096 0A43     		orr	r2, r1
 107:.\Generated_Source\PSoC4/UART_1_SPI.c ****                                             UART_1_GET_SPI_CTRL_LATE_MISO_SAMPLE(config->enableLate
 228              		.loc 1 107 0
 229 0098 6169     		ldr	r1, [r4, #20]
 230 009a 0029     		cmp	r1, #0
 231 009c 01D0     		beq	.L24
 232 009e 1021     		mov	r1, #16
 233 00a0 00E0     		b	.L16
 234              	.L24:
 235 00a2 0021     		mov	r1, #0
 236              	.L16:
 108:.\Generated_Source\PSoC4/UART_1_SPI.c ****                                             UART_1_GET_SPI_CTRL_SCLK_CONTINUOUS(config->enableFreeR
 237              		.loc 1 108 0
 238 00a4 0A43     		orr	r2, r1
 110:.\Generated_Source\PSoC4/UART_1_SPI.c ****                                             UART_1_GET_SPI_CTRL_SUB_MODE      (config->submode)    
 239              		.loc 1 110 0
 240 00a6 1B06     		lsl	r3, r3, #24
 241 00a8 C021     		mov	r1, #192
 242 00aa 8904     		lsl	r1, r1, #18
 243 00ac 0B40     		and	r3, r1
 109:.\Generated_Source\PSoC4/UART_1_SPI.c ****                                             UART_1_GET_SPI_CTRL_SSEL_POLARITY (config->polaritySs) 
 244              		.loc 1 109 0
 245 00ae 1343     		orr	r3, r2
 111:.\Generated_Source\PSoC4/UART_1_SPI.c ****                                             UART_1_GET_SPI_CTRL_MASTER_MODE   (config->mode);
 246              		.loc 1 111 0
 247 00b0 2268     		ldr	r2, [r4]
 248 00b2 002A     		cmp	r2, #0
 249 00b4 02D0     		beq	.L25
ARM GAS  C:\Users\marce\AppData\Local\Temp\ccpev28C.s 			page 14


 250 00b6 8022     		mov	r2, #128
 251 00b8 1206     		lsl	r2, r2, #24
 252 00ba 00E0     		b	.L17
 253              	.L25:
 254 00bc 0022     		mov	r2, #0
 255              	.L17:
 110:.\Generated_Source\PSoC4/UART_1_SPI.c ****                                             UART_1_GET_SPI_CTRL_SUB_MODE      (config->submode)    
 256              		.loc 1 110 0
 257 00be 1343     		orr	r3, r2
 103:.\Generated_Source\PSoC4/UART_1_SPI.c ****             UART_1_SPI_CTRL_REG = UART_1_GET_SPI_CTRL_CONTINUOUS    (config->transferSeperation)  |
 258              		.loc 1 103 0
 259 00c0 3E4A     		ldr	r2, .L29+40
 260 00c2 1360     		str	r3, [r2]
 114:.\Generated_Source\PSoC4/UART_1_SPI.c ****             UART_1_RX_CTRL_REG     =  UART_1_GET_RX_CTRL_DATA_WIDTH(config->rxDataBits)         |
 261              		.loc 1 114 0
 262 00c4 E369     		ldr	r3, [r4, #28]
 263 00c6 013B     		sub	r3, r3, #1
 264 00c8 0F22     		mov	r2, #15
 265 00ca 1A40     		and	r2, r3
 115:.\Generated_Source\PSoC4/UART_1_SPI.c ****                                                 UART_1_GET_RX_CTRL_BIT_ORDER (config->bitOrder)    
 266              		.loc 1 115 0
 267 00cc 636A     		ldr	r3, [r4, #36]
 268 00ce 002B     		cmp	r3, #0
 269 00d0 02D0     		beq	.L26
 270 00d2 8023     		mov	r3, #128
 271 00d4 5B00     		lsl	r3, r3, #1
 272 00d6 00E0     		b	.L18
 273              	.L26:
 274 00d8 0023     		mov	r3, #0
 275              	.L18:
 114:.\Generated_Source\PSoC4/UART_1_SPI.c ****             UART_1_RX_CTRL_REG     =  UART_1_GET_RX_CTRL_DATA_WIDTH(config->rxDataBits)         |
 276              		.loc 1 114 0
 277 00da 1A43     		orr	r2, r3
 116:.\Generated_Source\PSoC4/UART_1_SPI.c ****                                                 UART_1_GET_RX_CTRL_MEDIAN    (config->enableMedianF
 278              		.loc 1 116 0
 279 00dc 2069     		ldr	r0, [r4, #16]
 280 00de 0028     		cmp	r0, #0
 281 00e0 02D0     		beq	.L27
 282 00e2 8023     		mov	r3, #128
 283 00e4 9B00     		lsl	r3, r3, #2
 284 00e6 00E0     		b	.L19
 285              	.L27:
 286 00e8 0023     		mov	r3, #0
 287              	.L19:
 115:.\Generated_Source\PSoC4/UART_1_SPI.c ****                                                 UART_1_GET_RX_CTRL_BIT_ORDER (config->bitOrder)    
 288              		.loc 1 115 0
 289 00ea 1A43     		orr	r2, r3
 116:.\Generated_Source\PSoC4/UART_1_SPI.c ****                                                 UART_1_GET_RX_CTRL_MEDIAN    (config->enableMedianF
 290              		.loc 1 116 0
 291 00ec 8023     		mov	r3, #128
 292 00ee 1B06     		lsl	r3, r3, #24
 293 00f0 1A43     		orr	r2, r3
 114:.\Generated_Source\PSoC4/UART_1_SPI.c ****             UART_1_RX_CTRL_REG     =  UART_1_GET_RX_CTRL_DATA_WIDTH(config->rxDataBits)         |
 294              		.loc 1 114 0
 295 00f2 334B     		ldr	r3, .L29+44
 296 00f4 1A60     		str	r2, [r3]
 119:.\Generated_Source\PSoC4/UART_1_SPI.c ****             UART_1_RX_FIFO_CTRL_REG = UART_1_GET_RX_FIFO_CTRL_TRIGGER_LEVEL(config->rxTriggerLevel)
ARM GAS  C:\Users\marce\AppData\Local\Temp\ccpev28C.s 			page 15


 297              		.loc 1 119 0
 298 00f6 0722     		mov	r2, #7
 299 00f8 616C     		ldr	r1, [r4, #68]
 300 00fa 0A40     		and	r2, r1
 301 00fc 314B     		ldr	r3, .L29+48
 302 00fe 1A60     		str	r2, [r3]
 122:.\Generated_Source\PSoC4/UART_1_SPI.c ****             UART_1_TX_CTRL_REG      = UART_1_GET_TX_CTRL_DATA_WIDTH(config->txDataBits) |
 303              		.loc 1 122 0
 304 0100 236A     		ldr	r3, [r4, #32]
 305 0102 013B     		sub	r3, r3, #1
 306 0104 0F22     		mov	r2, #15
 307 0106 1A40     		and	r2, r3
 123:.\Generated_Source\PSoC4/UART_1_SPI.c ****                                                 UART_1_GET_TX_CTRL_BIT_ORDER (config->bitOrder)   |
 308              		.loc 1 123 0
 309 0108 636A     		ldr	r3, [r4, #36]
 310 010a 002B     		cmp	r3, #0
 311 010c 02D0     		beq	.L28
 312 010e 8023     		mov	r3, #128
 313 0110 5B00     		lsl	r3, r3, #1
 314 0112 00E0     		b	.L20
 315              	.L28:
 316 0114 0023     		mov	r3, #0
 317              	.L20:
 122:.\Generated_Source\PSoC4/UART_1_SPI.c ****             UART_1_TX_CTRL_REG      = UART_1_GET_TX_CTRL_DATA_WIDTH(config->txDataBits) |
 318              		.loc 1 122 0
 319 0116 1A43     		orr	r2, r3
 123:.\Generated_Source\PSoC4/UART_1_SPI.c ****                                                 UART_1_GET_TX_CTRL_BIT_ORDER (config->bitOrder)   |
 320              		.loc 1 123 0
 321 0118 8023     		mov	r3, #128
 322 011a 1B06     		lsl	r3, r3, #24
 323 011c 1A43     		orr	r2, r3
 122:.\Generated_Source\PSoC4/UART_1_SPI.c ****             UART_1_TX_CTRL_REG      = UART_1_GET_TX_CTRL_DATA_WIDTH(config->txDataBits) |
 324              		.loc 1 122 0
 325 011e 2A4B     		ldr	r3, .L29+52
 326 0120 1A60     		str	r2, [r3]
 126:.\Generated_Source\PSoC4/UART_1_SPI.c ****             UART_1_TX_FIFO_CTRL_REG = UART_1_GET_TX_FIFO_CTRL_TRIGGER_LEVEL(config->txTriggerLevel)
 327              		.loc 1 126 0
 328 0122 0722     		mov	r2, #7
 329 0124 E06C     		ldr	r0, [r4, #76]
 330 0126 0240     		and	r2, r0
 331 0128 284B     		ldr	r3, .L29+56
 332 012a 1A60     		str	r2, [r3]
 129:.\Generated_Source\PSoC4/UART_1_SPI.c ****             CyIntDisable    (UART_1_ISR_NUMBER);
 333              		.loc 1 129 0
 334 012c 0B20     		mov	r0, #11
 335 012e FFF7FEFF 		bl	CyIntDisable
 336              	.LVL11:
 130:.\Generated_Source\PSoC4/UART_1_SPI.c ****             CyIntSetPriority(UART_1_ISR_NUMBER, UART_1_ISR_PRIORITY);
 337              		.loc 1 130 0
 338 0132 0B20     		mov	r0, #11
 339 0134 0321     		mov	r1, #3
 340 0136 FFF7FEFF 		bl	CyIntSetPriority
 341              	.LVL12:
 131:.\Generated_Source\PSoC4/UART_1_SPI.c ****             (void) CyIntSetVector(UART_1_ISR_NUMBER, &UART_1_SPI_UART_ISR);
 342              		.loc 1 131 0
 343 013a 0B20     		mov	r0, #11
 344 013c 2449     		ldr	r1, .L29+60
ARM GAS  C:\Users\marce\AppData\Local\Temp\ccpev28C.s 			page 16


 345 013e FFF7FEFF 		bl	CyIntSetVector
 346              	.LVL13:
 134:.\Generated_Source\PSoC4/UART_1_SPI.c ****             UART_1_INTR_I2C_EC_MASK_REG = UART_1_NO_INTR_SOURCES;
 347              		.loc 1 134 0
 348 0142 0025     		mov	r5, #0
 349 0144 234B     		ldr	r3, .L29+64
 350 0146 1D60     		str	r5, [r3]
 135:.\Generated_Source\PSoC4/UART_1_SPI.c ****             UART_1_INTR_SPI_EC_MASK_REG = UART_1_NO_INTR_SOURCES;
 351              		.loc 1 135 0
 352 0148 234B     		ldr	r3, .L29+68
 353 014a 1D60     		str	r5, [r3]
 136:.\Generated_Source\PSoC4/UART_1_SPI.c ****             UART_1_INTR_SLAVE_MASK_REG  = UART_1_GET_SPI_INTR_SLAVE_MASK(config->rxInterruptMask);
 354              		.loc 1 136 0
 355 014c 8022     		mov	r2, #128
 356 014e 1201     		lsl	r2, r2, #4
 357 0150 216C     		ldr	r1, [r4, #64]
 358 0152 0A40     		and	r2, r1
 359 0154 214B     		ldr	r3, .L29+72
 360 0156 1A60     		str	r2, [r3]
 137:.\Generated_Source\PSoC4/UART_1_SPI.c ****             UART_1_INTR_MASTER_MASK_REG = UART_1_GET_SPI_INTR_MASTER_MASK(config->txInterruptMask);
 361              		.loc 1 137 0
 362 0158 8022     		mov	r2, #128
 363 015a 9200     		lsl	r2, r2, #2
 364 015c A36C     		ldr	r3, [r4, #72]
 365 015e 1A40     		and	r2, r3
 366 0160 1F4B     		ldr	r3, .L29+76
 367 0162 1A60     		str	r2, [r3]
 138:.\Generated_Source\PSoC4/UART_1_SPI.c ****             UART_1_INTR_RX_MASK_REG     = UART_1_GET_SPI_INTR_RX_MASK(config->rxInterruptMask);
 368              		.loc 1 138 0
 369 0164 1F4A     		ldr	r2, .L29+80
 370 0166 206C     		ldr	r0, [r4, #64]
 371 0168 0240     		and	r2, r0
 372 016a 1F4B     		ldr	r3, .L29+84
 373 016c 1A60     		str	r2, [r3]
 139:.\Generated_Source\PSoC4/UART_1_SPI.c ****             UART_1_INTR_TX_MASK_REG     = UART_1_GET_SPI_INTR_TX_MASK(config->txInterruptMask);
 374              		.loc 1 139 0
 375 016e A26C     		ldr	r2, [r4, #72]
 376 0170 1E4B     		ldr	r3, .L29+88
 377 0172 1A40     		and	r2, r3
 378 0174 1E4B     		ldr	r3, .L29+92
 379 0176 1A60     		str	r2, [r3]
 142:.\Generated_Source\PSoC4/UART_1_SPI.c ****             UART_1_SpiSetActiveSlaveSelect(UART_1_SPI_SLAVE_SELECT0);
 380              		.loc 1 142 0
 381 0178 0020     		mov	r0, #0
 382 017a FFF7FEFF 		bl	UART_1_SpiSetActiveSlaveSelect
 383              	.LVL14:
 145:.\Generated_Source\PSoC4/UART_1_SPI.c ****             UART_1_rxBufferHead     = 0u;
 384              		.loc 1 145 0
 385 017e 1D4B     		ldr	r3, .L29+96
 386 0180 1D60     		str	r5, [r3]
 146:.\Generated_Source\PSoC4/UART_1_SPI.c ****             UART_1_rxBufferTail     = 0u;
 387              		.loc 1 146 0
 388 0182 1D4B     		ldr	r3, .L29+100
 389 0184 1D60     		str	r5, [r3]
 147:.\Generated_Source\PSoC4/UART_1_SPI.c ****             UART_1_rxBufferOverflow = 0u;
 390              		.loc 1 147 0
 391 0186 1D4B     		ldr	r3, .L29+104
ARM GAS  C:\Users\marce\AppData\Local\Temp\ccpev28C.s 			page 17


 392 0188 1D70     		strb	r5, [r3]
 150:.\Generated_Source\PSoC4/UART_1_SPI.c ****             UART_1_txBufferHead = 0u;
 393              		.loc 1 150 0
 394 018a 1D4B     		ldr	r3, .L29+108
 395 018c 1D60     		str	r5, [r3]
 151:.\Generated_Source\PSoC4/UART_1_SPI.c ****             UART_1_txBufferTail = 0u;
 396              		.loc 1 151 0
 397 018e 1D4B     		ldr	r3, .L29+112
 398 0190 1D60     		str	r5, [r3]
 399              	.L10:
 153:.\Generated_Source\PSoC4/UART_1_SPI.c ****     }
 400              		.loc 1 153 0
 401              		@ sp needed
 402              	.LVL15:
 403 0192 38BD     		pop	{r3, r4, r5, pc}
 404              	.L30:
 405              		.align	2
 406              	.L29:
 407 0194 00000000 		.word	UART_1_scbMode
 408 0198 00000000 		.word	UART_1_scbEnableWake
 409 019c 00000000 		.word	UART_1_scbEnableIntr
 410 01a0 00000000 		.word	UART_1_rxBuffer
 411 01a4 00000000 		.word	UART_1_rxDataBits
 412 01a8 00000000 		.word	UART_1_rxBufferSize
 413 01ac 00000000 		.word	UART_1_txBuffer
 414 01b0 00000000 		.word	UART_1_txDataBits
 415 01b4 00000000 		.word	UART_1_txBufferSize
 416 01b8 00000740 		.word	1074200576
 417 01bc 20000740 		.word	1074200608
 418 01c0 00030740 		.word	1074201344
 419 01c4 04030740 		.word	1074201348
 420 01c8 00020740 		.word	1074201088
 421 01cc 04020740 		.word	1074201092
 422 01d0 00000000 		.word	UART_1_SPI_UART_ISR
 423 01d4 880E0740 		.word	1074204296
 424 01d8 C80E0740 		.word	1074204360
 425 01dc 480F0740 		.word	1074204488
 426 01e0 080F0740 		.word	1074204424
 427 01e4 FFF7FFFF 		.word	-2049
 428 01e8 C80F0740 		.word	1074204616
 429 01ec FFFDFFFF 		.word	-513
 430 01f0 880F0740 		.word	1074204552
 431 01f4 00000000 		.word	UART_1_rxBufferHead
 432 01f8 00000000 		.word	UART_1_rxBufferTail
 433 01fc 00000000 		.word	UART_1_rxBufferOverflow
 434 0200 00000000 		.word	UART_1_txBufferHead
 435 0204 00000000 		.word	UART_1_txBufferTail
 436              		.cfi_endproc
 437              	.LFE0:
 438              		.size	UART_1_SpiInit, .-UART_1_SpiInit
 439              		.section	.text.UART_1_SpiSaveConfig,"ax",%progbits
 440              		.align	2
 441              		.global	UART_1_SpiSaveConfig
 442              		.code	16
 443              		.thumb_func
 444              		.type	UART_1_SpiSaveConfig, %function
 445              	UART_1_SpiSaveConfig:
ARM GAS  C:\Users\marce\AppData\Local\Temp\ccpev28C.s 			page 18


 446              	.LFB4:
 465:.\Generated_Source\PSoC4/UART_1_SPI.c **** #endif /* (UART_1_SPI_MASTER_CONST) */
 466:.\Generated_Source\PSoC4/UART_1_SPI.c **** 
 467:.\Generated_Source\PSoC4/UART_1_SPI.c **** 
 468:.\Generated_Source\PSoC4/UART_1_SPI.c **** #if !(UART_1_CY_SCBIP_V0 || UART_1_CY_SCBIP_V1)
 469:.\Generated_Source\PSoC4/UART_1_SPI.c ****     /*******************************************************************************
 470:.\Generated_Source\PSoC4/UART_1_SPI.c ****     * Function Name: UART_1_SpiSetSlaveSelectPolarity
 471:.\Generated_Source\PSoC4/UART_1_SPI.c ****     ********************************************************************************
 472:.\Generated_Source\PSoC4/UART_1_SPI.c ****     *
 473:.\Generated_Source\PSoC4/UART_1_SPI.c ****     * Summary:
 474:.\Generated_Source\PSoC4/UART_1_SPI.c ****     *  Sets active polarity for slave select line.
 475:.\Generated_Source\PSoC4/UART_1_SPI.c ****     *  The component should be in one of the following states to change the active
 476:.\Generated_Source\PSoC4/UART_1_SPI.c ****     *  slave select signal source correctly:
 477:.\Generated_Source\PSoC4/UART_1_SPI.c ****     *   - The component is disabled.
 478:.\Generated_Source\PSoC4/UART_1_SPI.c ****     *   - The component has completed transfer.
 479:.\Generated_Source\PSoC4/UART_1_SPI.c ****     *  This function does not check that these conditions are met.
 480:.\Generated_Source\PSoC4/UART_1_SPI.c ****     *
 481:.\Generated_Source\PSoC4/UART_1_SPI.c ****     * Parameters:
 482:.\Generated_Source\PSoC4/UART_1_SPI.c ****     *  slaveSelect: slave select line to change active polarity.
 483:.\Generated_Source\PSoC4/UART_1_SPI.c ****     *   UART_1_SPI_SLAVE_SELECT0 - Slave select 0
 484:.\Generated_Source\PSoC4/UART_1_SPI.c ****     *   UART_1_SPI_SLAVE_SELECT1 - Slave select 1
 485:.\Generated_Source\PSoC4/UART_1_SPI.c ****     *   UART_1_SPI_SLAVE_SELECT2 - Slave select 2
 486:.\Generated_Source\PSoC4/UART_1_SPI.c ****     *   UART_1_SPI_SLAVE_SELECT3 - Slave select 3
 487:.\Generated_Source\PSoC4/UART_1_SPI.c ****     *
 488:.\Generated_Source\PSoC4/UART_1_SPI.c ****     *  polarity: active polarity of slave select line.
 489:.\Generated_Source\PSoC4/UART_1_SPI.c ****     *   UART_1_SPI_SS_ACTIVE_LOW  - Slave select is active low
 490:.\Generated_Source\PSoC4/UART_1_SPI.c ****     *   UART_1_SPI_SS_ACTIVE_HIGH - Slave select is active high
 491:.\Generated_Source\PSoC4/UART_1_SPI.c ****     *
 492:.\Generated_Source\PSoC4/UART_1_SPI.c ****     * Return:
 493:.\Generated_Source\PSoC4/UART_1_SPI.c ****     *  None
 494:.\Generated_Source\PSoC4/UART_1_SPI.c ****     *
 495:.\Generated_Source\PSoC4/UART_1_SPI.c ****     *******************************************************************************/
 496:.\Generated_Source\PSoC4/UART_1_SPI.c ****     void UART_1_SpiSetSlaveSelectPolarity(uint32 slaveSelect, uint32 polarity)
 497:.\Generated_Source\PSoC4/UART_1_SPI.c ****     {
 498:.\Generated_Source\PSoC4/UART_1_SPI.c ****         uint32 ssPolarity;
 499:.\Generated_Source\PSoC4/UART_1_SPI.c **** 
 500:.\Generated_Source\PSoC4/UART_1_SPI.c ****         /* Get position of the polarity bit associated with slave select line */
 501:.\Generated_Source\PSoC4/UART_1_SPI.c ****         ssPolarity = UART_1_GET_SPI_CTRL_SSEL_POLARITY((uint32) 1u << slaveSelect);
 502:.\Generated_Source\PSoC4/UART_1_SPI.c **** 
 503:.\Generated_Source\PSoC4/UART_1_SPI.c ****         if (0u != polarity)
 504:.\Generated_Source\PSoC4/UART_1_SPI.c ****         {
 505:.\Generated_Source\PSoC4/UART_1_SPI.c ****             UART_1_SPI_CTRL_REG |= (uint32)  ssPolarity;
 506:.\Generated_Source\PSoC4/UART_1_SPI.c ****         }
 507:.\Generated_Source\PSoC4/UART_1_SPI.c ****         else
 508:.\Generated_Source\PSoC4/UART_1_SPI.c ****         {
 509:.\Generated_Source\PSoC4/UART_1_SPI.c ****             UART_1_SPI_CTRL_REG &= (uint32) ~ssPolarity;
 510:.\Generated_Source\PSoC4/UART_1_SPI.c ****         }
 511:.\Generated_Source\PSoC4/UART_1_SPI.c ****     }
 512:.\Generated_Source\PSoC4/UART_1_SPI.c **** #endif /* !(UART_1_CY_SCBIP_V0 || UART_1_CY_SCBIP_V1) */
 513:.\Generated_Source\PSoC4/UART_1_SPI.c **** 
 514:.\Generated_Source\PSoC4/UART_1_SPI.c **** 
 515:.\Generated_Source\PSoC4/UART_1_SPI.c **** #if(UART_1_SPI_WAKE_ENABLE_CONST)
 516:.\Generated_Source\PSoC4/UART_1_SPI.c ****     /*******************************************************************************
 517:.\Generated_Source\PSoC4/UART_1_SPI.c ****     * Function Name: UART_1_SpiSaveConfig
 518:.\Generated_Source\PSoC4/UART_1_SPI.c ****     ********************************************************************************
 519:.\Generated_Source\PSoC4/UART_1_SPI.c ****     *
 520:.\Generated_Source\PSoC4/UART_1_SPI.c ****     * Summary:
ARM GAS  C:\Users\marce\AppData\Local\Temp\ccpev28C.s 			page 19


 521:.\Generated_Source\PSoC4/UART_1_SPI.c ****     *  Clears INTR_SPI_EC.WAKE_UP and enables it. This interrupt
 522:.\Generated_Source\PSoC4/UART_1_SPI.c ****     *  source triggers when the master assigns the SS line and wakes up the device.
 523:.\Generated_Source\PSoC4/UART_1_SPI.c ****     *
 524:.\Generated_Source\PSoC4/UART_1_SPI.c ****     * Parameters:
 525:.\Generated_Source\PSoC4/UART_1_SPI.c ****     *  None
 526:.\Generated_Source\PSoC4/UART_1_SPI.c ****     *
 527:.\Generated_Source\PSoC4/UART_1_SPI.c ****     * Return:
 528:.\Generated_Source\PSoC4/UART_1_SPI.c ****     *  None
 529:.\Generated_Source\PSoC4/UART_1_SPI.c ****     *
 530:.\Generated_Source\PSoC4/UART_1_SPI.c ****     *******************************************************************************/
 531:.\Generated_Source\PSoC4/UART_1_SPI.c ****     void UART_1_SpiSaveConfig(void)
 532:.\Generated_Source\PSoC4/UART_1_SPI.c ****     {
 447              		.loc 1 532 0
 448              		.cfi_startproc
 533:.\Generated_Source\PSoC4/UART_1_SPI.c ****         UART_1_ClearSpiExtClkInterruptSource(UART_1_INTR_SPI_EC_WAKE_UP);
 449              		.loc 1 533 0
 450 0000 0123     		mov	r3, #1
 451 0002 024A     		ldr	r2, .L32
 452 0004 1360     		str	r3, [r2]
 534:.\Generated_Source\PSoC4/UART_1_SPI.c ****         UART_1_SetSpiExtClkInterruptMode(UART_1_INTR_SPI_EC_WAKE_UP);
 453              		.loc 1 534 0
 454 0006 024A     		ldr	r2, .L32+4
 455 0008 1360     		str	r3, [r2]
 535:.\Generated_Source\PSoC4/UART_1_SPI.c ****     }
 456              		.loc 1 535 0
 457              		@ sp needed
 458 000a 7047     		bx	lr
 459              	.L33:
 460              		.align	2
 461              	.L32:
 462 000c C00E0740 		.word	1074204352
 463 0010 C80E0740 		.word	1074204360
 464              		.cfi_endproc
 465              	.LFE4:
 466              		.size	UART_1_SpiSaveConfig, .-UART_1_SpiSaveConfig
 467              		.section	.text.UART_1_SpiRestoreConfig,"ax",%progbits
 468              		.align	2
 469              		.global	UART_1_SpiRestoreConfig
 470              		.code	16
 471              		.thumb_func
 472              		.type	UART_1_SpiRestoreConfig, %function
 473              	UART_1_SpiRestoreConfig:
 474              	.LFB5:
 536:.\Generated_Source\PSoC4/UART_1_SPI.c **** 
 537:.\Generated_Source\PSoC4/UART_1_SPI.c **** 
 538:.\Generated_Source\PSoC4/UART_1_SPI.c ****     /*******************************************************************************
 539:.\Generated_Source\PSoC4/UART_1_SPI.c ****     * Function Name: UART_1_SpiRestoreConfig
 540:.\Generated_Source\PSoC4/UART_1_SPI.c ****     ********************************************************************************
 541:.\Generated_Source\PSoC4/UART_1_SPI.c ****     *
 542:.\Generated_Source\PSoC4/UART_1_SPI.c ****     * Summary:
 543:.\Generated_Source\PSoC4/UART_1_SPI.c ****     *  Disables the INTR_SPI_EC.WAKE_UP interrupt source. After wakeup
 544:.\Generated_Source\PSoC4/UART_1_SPI.c ****     *  slave does not drive the MISO line and the master receives 0xFF.
 545:.\Generated_Source\PSoC4/UART_1_SPI.c ****     *
 546:.\Generated_Source\PSoC4/UART_1_SPI.c ****     * Parameters:
 547:.\Generated_Source\PSoC4/UART_1_SPI.c ****     *  None
 548:.\Generated_Source\PSoC4/UART_1_SPI.c ****     *
 549:.\Generated_Source\PSoC4/UART_1_SPI.c ****     * Return:
ARM GAS  C:\Users\marce\AppData\Local\Temp\ccpev28C.s 			page 20


 550:.\Generated_Source\PSoC4/UART_1_SPI.c ****     *  None
 551:.\Generated_Source\PSoC4/UART_1_SPI.c ****     *
 552:.\Generated_Source\PSoC4/UART_1_SPI.c ****     *******************************************************************************/
 553:.\Generated_Source\PSoC4/UART_1_SPI.c ****     void UART_1_SpiRestoreConfig(void)
 554:.\Generated_Source\PSoC4/UART_1_SPI.c ****     {
 475              		.loc 1 554 0
 476              		.cfi_startproc
 555:.\Generated_Source\PSoC4/UART_1_SPI.c ****         UART_1_SetSpiExtClkInterruptMode(UART_1_NO_INTR_SOURCES);
 477              		.loc 1 555 0
 478 0000 0022     		mov	r2, #0
 479 0002 014B     		ldr	r3, .L35
 480 0004 1A60     		str	r2, [r3]
 556:.\Generated_Source\PSoC4/UART_1_SPI.c ****     }
 481              		.loc 1 556 0
 482              		@ sp needed
 483 0006 7047     		bx	lr
 484              	.L36:
 485              		.align	2
 486              	.L35:
 487 0008 C80E0740 		.word	1074204360
 488              		.cfi_endproc
 489              	.LFE5:
 490              		.size	UART_1_SpiRestoreConfig, .-UART_1_SpiRestoreConfig
 491              		.global	UART_1_configSpi
 492              		.section	.rodata
 493              		.align	2
 494              		.type	UART_1_configSpi, %object
 495              		.size	UART_1_configSpi, 84
 496              	UART_1_configSpi:
 497 0000 00000000 		.word	0
 498 0004 00000000 		.word	0
 499 0008 00000000 		.word	0
 500 000c 10000000 		.word	16
 501 0010 00000000 		.word	0
 502 0014 00000000 		.word	0
 503 0018 00000000 		.word	0
 504 001c 08000000 		.word	8
 505 0020 08000000 		.word	8
 506 0024 01000000 		.word	1
 507 0028 01000000 		.word	1
 508 002c 00000000 		.word	0
 509 0030 00000000 		.word	0
 510 0034 00000000 		.word	0
 511 0038 00000000 		.word	0
 512 003c 01000000 		.word	1
 513 0040 00000000 		.word	0
 514 0044 07000000 		.word	7
 515 0048 00000000 		.word	0
 516 004c 00000000 		.word	0
 517 0050 00       		.byte	0
 518 0051 00       		.byte	0
 519 0052 00       		.byte	0
 520 0053 00       		.space	1
 521              		.text
 522              	.Letext0:
 523              		.file 2 "Generated_Source\\PSoC4/cytypes.h"
 524              		.file 3 ".\\Generated_Source\\PSoC4\\UART_1_SPI_UART.h"
ARM GAS  C:\Users\marce\AppData\Local\Temp\ccpev28C.s 			page 21


 525              		.file 4 ".\\Generated_Source\\PSoC4\\UART_1_PVT.h"
 526              		.file 5 ".\\Generated_Source\\PSoC4\\UART_1_SPI_UART_PVT.h"
 527              		.file 6 "Generated_Source\\PSoC4/CyLib.h"